---
triple:          'x86_64-apple-darwin'
binary-path:     SudokuSolver
relocations:
  - { offsetInCU: 0x3681, offset: 0x3681, size: 0x8, addend: 0x0, symName: __ZNSt3__16chronomiB7v160006IxNS_5ratioILl1ELl1000000000EEExS3_EENS_11common_typeIJNS0_8durationIT_T0_EENS5_IT1_T2_EEEE4typeERKS8_RKSB_, symObjAddr: 0x4130, symBinAddr: 0x1000066B0, symSize: 0x70 }
  - { offsetInCU: 0x36EE, offset: 0x36EE, size: 0x8, addend: 0x0, symName: __ZNSt3__16chrono13duration_castB7v160006INS0_8durationIxNS_5ratioILl1ELl1000EEEEExNS3_ILl1ELl1000000000EEEEENS_9enable_ifIXsr13__is_durationIT_EE5valueES8_E4typeERKNS2_IT0_T1_EE, symObjAddr: 0xA30, symBinAddr: 0x100002FB0, symSize: 0x30 }
  - { offsetInCU: 0x3735, offset: 0x3735, size: 0x8, addend: 0x0, symName: __ZNSt3__16chronomiB7v160006INS0_12steady_clockENS0_8durationIxNS_5ratioILl1ELl1000000000EEEEES6_EENS_11common_typeIJT0_T1_EE4typeERKNS0_10time_pointIT_S8_EERKNSC_ISD_S9_EE, symObjAddr: 0xA60, symBinAddr: 0x100002FE0, symSize: 0x50 }
  - { offsetInCU: 0x78CB, offset: 0x78CB, size: 0x8, addend: 0x0, symName: __ZNSt3__124__put_character_sequenceB7v160006IcNS_11char_traitsIcEEEERNS_13basic_ostreamIT_T0_EES7_PKS4_m, symObjAddr: 0x22A0, symBinAddr: 0x100004820, symSize: 0x1F0 }
  - { offsetInCU: 0x87B8, offset: 0x87B8, size: 0x8, addend: 0x0, symName: __ZNSt3__16copy_nB7v160006IPKcmPcEENS_9enable_ifIXsr33__is_cpp17_random_access_iteratorIT_EE5valueET1_E4typeES5_T0_S6_, symObjAddr: 0x3A40, symBinAddr: 0x100005FC0, symSize: 0x40 }
  - { offsetInCU: 0x9814, offset: 0x9814, size: 0x8, addend: 0x0, symName: __ZNSt3__1lsB7v160006INS_11char_traitsIcEEEERNS_13basic_ostreamIcT_EES6_PKc, symObjAddr: 0x490, symBinAddr: 0x100002A10, symSize: 0x40 }
  - { offsetInCU: 0xA602, offset: 0xA602, size: 0x8, addend: 0x0, symName: __ZNSt3__1rsB7v160006IcNS_11char_traitsIcEENS_9allocatorIcEEEERNS_13basic_istreamIT_T0_EES9_RNS_12basic_stringIS6_S7_T1_EE, symObjAddr: 0x5D0, symBinAddr: 0x100002B50, symSize: 0x2E0 }
  - { offsetInCU: 0xA6D1, offset: 0xA6D1, size: 0x8, addend: 0x0, symName: __ZNSt3__1plB7v160006IcNS_11char_traitsIcEENS_9allocatorIcEEEENS_12basic_stringIT_T0_T1_EERKS9_SB_, symObjAddr: 0x8B0, symBinAddr: 0x100002E30, symSize: 0x110 }
  - { offsetInCU: 0xA773, offset: 0xA773, size: 0x8, addend: 0x0, symName: __ZNSt3__14endlB7v160006IcNS_11char_traitsIcEEEERNS_13basic_ostreamIT_T0_EES7_, symObjAddr: 0xAF0, symBinAddr: 0x100003070, symSize: 0x50 }
  - { offsetInCU: 0xA7DF, offset: 0xA7DF, size: 0x8, addend: 0x0, symName: __ZNSt3__118__debug_db_erase_cB7v160006INS_6vectorI8PositionNS_9allocatorIS2_EEEEEEvPT_, symObjAddr: 0xF30, symBinAddr: 0x1000034B0, symSize: 0x10 }
  - { offsetInCU: 0xA810, offset: 0xA810, size: 0x8, addend: 0x0, symName: __ZNSt3__112__to_addressB7v160006I8PositionEEPT_S3_, symObjAddr: 0x1040, symBinAddr: 0x1000035C0, symSize: 0x10 }
  - { offsetInCU: 0xA845, offset: 0xA845, size: 0x8, addend: 0x0, symName: __ZNSt3__119__libcpp_deallocateB7v160006EPvmm, symObjAddr: 0x1150, symBinAddr: 0x1000036D0, symSize: 0x30 }
  - { offsetInCU: 0xA88D, offset: 0xA88D, size: 0x8, addend: 0x0, symName: __ZNSt3__127__do_deallocate_handle_sizeB7v160006IJEEEvPvmDpT_, symObjAddr: 0x1180, symBinAddr: 0x100003700, symSize: 0x20 }
  - { offsetInCU: 0xA8CB, offset: 0xA8CB, size: 0x8, addend: 0x0, symName: __ZNSt3__124__libcpp_operator_deleteB7v160006IJPvEEEvDpT_, symObjAddr: 0x11A0, symBinAddr: 0x100003720, symSize: 0x20 }
  - { offsetInCU: 0xA900, offset: 0xA900, size: 0x8, addend: 0x0, symName: __ZNSt3__118__debug_db_erase_cB7v160006INS_6vectorINS1_INS1_IiNS_9allocatorIiEEEENS2_IS4_EEEENS2_IS6_EEEEEEvPT_, symObjAddr: 0x1410, symBinAddr: 0x100003990, symSize: 0x10 }
  - { offsetInCU: 0xA931, offset: 0xA931, size: 0x8, addend: 0x0, symName: __ZNSt3__112__to_addressB7v160006INS_6vectorINS1_IiNS_9allocatorIiEEEENS2_IS4_EEEEEEPT_S8_, symObjAddr: 0x1540, symBinAddr: 0x100003AC0, symSize: 0x10 }
  - { offsetInCU: 0xA966, offset: 0xA966, size: 0x8, addend: 0x0, symName: __ZNSt3__118__debug_db_erase_cB7v160006INS_6vectorINS1_IiNS_9allocatorIiEEEENS2_IS4_EEEEEEvPT_, symObjAddr: 0x1810, symBinAddr: 0x100003D90, symSize: 0x10 }
  - { offsetInCU: 0xA997, offset: 0xA997, size: 0x8, addend: 0x0, symName: __ZNSt3__112__to_addressB7v160006INS_6vectorIiNS_9allocatorIiEEEEEEPT_S6_, symObjAddr: 0x1940, symBinAddr: 0x100003EC0, symSize: 0x10 }
  - { offsetInCU: 0xA9CC, offset: 0xA9CC, size: 0x8, addend: 0x0, symName: __ZNSt3__118__debug_db_erase_cB7v160006INS_6vectorIiNS_9allocatorIiEEEEEEvPT_, symObjAddr: 0x1C10, symBinAddr: 0x100004190, symSize: 0x10 }
  - { offsetInCU: 0xA9FD, offset: 0xA9FD, size: 0x8, addend: 0x0, symName: __ZNSt3__112__to_addressB7v160006IiEEPT_S2_, symObjAddr: 0x1D20, symBinAddr: 0x1000042A0, symSize: 0x10 }
  - { offsetInCU: 0xAA32, offset: 0xAA32, size: 0x8, addend: 0x0, symName: __ZNSt3__119__debug_db_insert_cB7v160006INS_12basic_stringIcNS_11char_traitsIcEENS_9allocatorIcEEEEEEvPT_, symObjAddr: 0x2180, symBinAddr: 0x100004700, symSize: 0x10 }
  - { offsetInCU: 0xAA63, offset: 0xAA63, size: 0x8, addend: 0x0, symName: __ZNSt3__116__pad_and_outputB7v160006IcNS_11char_traitsIcEEEENS_19ostreambuf_iteratorIT_T0_EES6_PKS4_S8_S8_RNS_8ios_baseES4_, symObjAddr: 0x24E0, symBinAddr: 0x100004A60, symSize: 0x220 }
  - { offsetInCU: 0xAB33, offset: 0xAB33, size: 0x8, addend: 0x0, symName: __ZNSt3__112__to_addressB7v160006IKcEEPT_S3_, symObjAddr: 0x2940, symBinAddr: 0x100004EC0, symSize: 0x10 }
  - { offsetInCU: 0xAB9B, offset: 0xAB9B, size: 0x8, addend: 0x0, symName: __ZNSt3__19use_facetB7v160006INS_5ctypeIcEEEERKT_RKNS_6localeE, symObjAddr: 0x2BA0, symBinAddr: 0x100005120, symSize: 0x30 }
  - { offsetInCU: 0xAF7B, offset: 0xAF7B, size: 0x8, addend: 0x0, symName: __ZNSt3__118__constexpr_strlenB7v160006EPKc, symObjAddr: 0x2C30, symBinAddr: 0x1000051B0, symSize: 0x20 }
  - { offsetInCU: 0xB1A8, offset: 0xB1A8, size: 0x8, addend: 0x0, symName: __ZNSt3__125__debug_db_invalidate_allB7v160006INS_12basic_stringIcNS_11char_traitsIcEENS_9allocatorIcEEEEEEvPT_, symObjAddr: 0x30C0, symBinAddr: 0x100005640, symSize: 0x10 }
  - { offsetInCU: 0xB40E, offset: 0xB40E, size: 0x8, addend: 0x0, symName: __ZNSt3__112__to_addressB7v160006IcEEPT_S2_, symObjAddr: 0x3390, symBinAddr: 0x100005910, symSize: 0x10 }
  - { offsetInCU: 0xB443, offset: 0xB443, size: 0x8, addend: 0x0, symName: __ZNSt3__120__throw_length_errorB7v160006EPKc, symObjAddr: 0x3840, symBinAddr: 0x100005DC0, symSize: 0x70 }
  - { offsetInCU: 0xB46B, offset: 0xB46B, size: 0x8, addend: 0x0, symName: __ZNSt3__117__libcpp_allocateB7v160006Emm, symObjAddr: 0x39D0, symBinAddr: 0x100005F50, symSize: 0x20 }
  - { offsetInCU: 0xB4A8, offset: 0xB4A8, size: 0x8, addend: 0x0, symName: __ZNSt3__121__libcpp_operator_newB7v160006IJmEEEPvDpT_, symObjAddr: 0x39F0, symBinAddr: 0x100005F70, symSize: 0x20 }
  - { offsetInCU: 0xB4E1, offset: 0xB4E1, size: 0x8, addend: 0x0, symName: __ZNSt3__14copyB7v160006IPKcPcEET0_T_S5_S4_, symObjAddr: 0x3A80, symBinAddr: 0x100006000, symSize: 0x40 }
  - { offsetInCU: 0xB53B, offset: 0xB53B, size: 0x8, addend: 0x0, symName: __ZNSt3__16__copyB7v160006INS_17_ClassicAlgPolicyEPKcS3_PcEENS_4pairIT0_T2_EES6_T1_S7_, symObjAddr: 0x3AC0, symBinAddr: 0x100006040, symSize: 0x40 }
  - { offsetInCU: 0xB5A7, offset: 0xB5A7, size: 0x8, addend: 0x0, symName: __ZNSt3__123__dispatch_copy_or_moveB7v160006INS_17_ClassicAlgPolicyENS_11__copy_loopIS1_EENS_14__copy_trivialEPKcS6_PcEENS_4pairIT2_T4_EES9_T3_SA_, symObjAddr: 0x3B00, symBinAddr: 0x100006080, symSize: 0x40 }
  - { offsetInCU: 0xB625, offset: 0xB625, size: 0x8, addend: 0x0, symName: __ZNSt3__121__unwrap_and_dispatchB7v160006INS_10__overloadINS_11__copy_loopINS_17_ClassicAlgPolicyEEENS_14__copy_trivialEEEPKcS8_PcLi0EEENS_4pairIT0_T2_EESB_T1_SC_, symObjAddr: 0x3B40, symBinAddr: 0x1000060C0, symSize: 0xB0 }
  - { offsetInCU: 0xB6B4, offset: 0xB6B4, size: 0x8, addend: 0x0, symName: __ZNSt3__114__unwrap_rangeB7v160006IPKcS2_EENS_4pairIT0_S4_EET_S6_, symObjAddr: 0x3BF0, symBinAddr: 0x100006170, symSize: 0x50 }
  - { offsetInCU: 0xB849, offset: 0xB849, size: 0x8, addend: 0x0, symName: __ZNSt3__113__unwrap_iterB7v160006IPcNS_18__unwrap_iter_implIS1_Lb1EEELi0EEEDTclsrT0_8__unwrapclsr3stdE7declvalIT_EEEES5_, symObjAddr: 0x3C80, symBinAddr: 0x100006200, symSize: 0x20 }
  - { offsetInCU: 0xB88D, offset: 0xB88D, size: 0x8, addend: 0x0, symName: __ZNSt3__19make_pairB7v160006IPKcPcEENS_4pairINS_18__unwrap_ref_decayIT_E4typeENS5_IT0_E4typeEEEOS6_OS9_, symObjAddr: 0x3CA0, symBinAddr: 0x100006220, symSize: 0x30 }
  - { offsetInCU: 0xB8DC, offset: 0xB8DC, size: 0x8, addend: 0x0, symName: __ZNSt3__114__rewrap_rangeB7v160006IPKcS2_EET_S3_T0_, symObjAddr: 0x3CD0, symBinAddr: 0x100006250, symSize: 0x30 }
  - { offsetInCU: 0xB928, offset: 0xB928, size: 0x8, addend: 0x0, symName: __ZNSt3__113__rewrap_iterB7v160006IPcS1_NS_18__unwrap_iter_implIS1_Lb1EEEEET_S4_T0_, symObjAddr: 0x3D00, symBinAddr: 0x100006280, symSize: 0x40 }
  - { offsetInCU: 0xB97D, offset: 0xB97D, size: 0x8, addend: 0x0, symName: __ZNSt3__19make_pairB7v160006IPKcS2_EENS_4pairINS_18__unwrap_ref_decayIT_E4typeENS4_IT0_E4typeEEEOS5_OS8_, symObjAddr: 0x3D40, symBinAddr: 0x1000062C0, symSize: 0x30 }
  - { offsetInCU: 0xB9CC, offset: 0xB9CC, size: 0x8, addend: 0x0, symName: __ZNSt3__113__unwrap_iterB7v160006IPKcNS_18__unwrap_iter_implIS2_Lb1EEELi0EEEDTclsrT0_8__unwrapclsr3stdE7declvalIT_EEEES6_, symObjAddr: 0x3D70, symBinAddr: 0x1000062F0, symSize: 0x20 }
  - { offsetInCU: 0xBB37, offset: 0xBB37, size: 0x8, addend: 0x0, symName: __ZNSt3__119__copy_trivial_implB7v160006IKccEENS_4pairIPT_PT0_EES4_S4_S6_, symObjAddr: 0x3E10, symBinAddr: 0x100006390, symSize: 0x70 }
  - { offsetInCU: 0xBB9F, offset: 0xBB9F, size: 0x8, addend: 0x0, symName: __ZNSt3__19make_pairB7v160006IRPKcPcEENS_4pairINS_18__unwrap_ref_decayIT_E4typeENS6_IT0_E4typeEEEOS7_OSA_, symObjAddr: 0x3E80, symBinAddr: 0x100006400, symSize: 0x30 }
  - { offsetInCU: 0xBC41, offset: 0xBC41, size: 0x8, addend: 0x0, symName: __ZNSt3__113__rewrap_iterB7v160006IPKcS2_NS_18__unwrap_iter_implIS2_Lb1EEEEET_S5_T0_, symObjAddr: 0x3F90, symBinAddr: 0x100006510, symSize: 0x40 }
  - { offsetInCU: 0xBC96, offset: 0xBC96, size: 0x8, addend: 0x0, symName: __ZNSt3__16fill_nB7v160006IPcmcEET_S2_T0_RKT1_, symObjAddr: 0x4050, symBinAddr: 0x1000065D0, symSize: 0x40 }
  - { offsetInCU: 0xBCF9, offset: 0xBCF9, size: 0x8, addend: 0x0, symName: __ZNSt3__18__fill_nB7v160006IPcmcEET_S2_T0_RKT1_, symObjAddr: 0x4090, symBinAddr: 0x100006610, symSize: 0x50 }
  - { offsetInCU: 0xBD5C, offset: 0xBD5C, size: 0x8, addend: 0x0, symName: __ZNSt3__121__convert_to_integralB7v160006Em, symObjAddr: 0x40E0, symBinAddr: 0x100006660, symSize: 0x10 }
  - { offsetInCU: 0xC1E7, offset: 0xC1E7, size: 0x8, addend: 0x0, symName: __ZSt28__throw_bad_array_new_lengthB7v160006v, symObjAddr: 0x3990, symBinAddr: 0x100005F10, symSize: 0x40 }
  - { offsetInCU: 0xC53C, offset: 0xC53C, size: 0x8, addend: 0x0, symName: __ZNKSt3__16chrono15__duration_castINS0_8durationIxNS_5ratioILl1ELl1000000000EEEEENS2_IxNS3_ILl1ELl1000EEEEENS3_ILl1ELl1000000EEELb1ELb0EEclB7v160006ERKS5_, symObjAddr: 0xBA0, symBinAddr: 0x100003120, symSize: 0x50 }
  - { offsetInCU: 0xEDAE, offset: 0xEDAE, size: 0x8, addend: 0x0, symName: _main, symObjAddr: 0x0, symBinAddr: 0x100002580, symSize: 0x460 }
  - { offsetInCU: 0xEE37, offset: 0xEE37, size: 0x8, addend: 0x0, symName: __ZNSt3__112basic_stringIcNS_11char_traitsIcEENS_9allocatorIcEEEC1B7v160006IDnEEPKc, symObjAddr: 0x460, symBinAddr: 0x1000029E0, symSize: 0x30 }
  - { offsetInCU: 0xEF90, offset: 0xEF90, size: 0x8, addend: 0x0, symName: __ZNSt3__114basic_ifstreamIcNS_11char_traitsIcEEEC1Ev, symObjAddr: 0x4D0, symBinAddr: 0x100002A50, symSize: 0xE0 }
  - { offsetInCU: 0xEFBB, offset: 0xEFBB, size: 0x8, addend: 0x0, symName: __ZNSt3__112basic_stringIcNS_11char_traitsIcEENS_9allocatorIcEEEC1B7v160006Ev, symObjAddr: 0x5B0, symBinAddr: 0x100002B30, symSize: 0x20 }
  - { offsetInCU: 0xEFE3, offset: 0xEFE3, size: 0x8, addend: 0x0, symName: __ZNKSt3__19basic_iosIcNS_11char_traitsIcEEEntB7v160006Ev, symObjAddr: 0x9C0, symBinAddr: 0x100002F40, symSize: 0x20 }
  - { offsetInCU: 0xF008, offset: 0xF008, size: 0x8, addend: 0x0, symName: __ZNSt3__114basic_ifstreamIcNS_11char_traitsIcEEE5closeEv, symObjAddr: 0x9E0, symBinAddr: 0x100002F60, symSize: 0x50 }
  - { offsetInCU: 0xF02E, offset: 0xF02E, size: 0x8, addend: 0x0, symName: __ZNKSt3__16chrono8durationIxNS_5ratioILl1ELl1000EEEE5countB7v160006Ev, symObjAddr: 0xAB0, symBinAddr: 0x100003030, symSize: 0x20 }
  - { offsetInCU: 0xF052, offset: 0xF052, size: 0x8, addend: 0x0, symName: __ZNSt3__113basic_ostreamIcNS_11char_traitsIcEEElsB7v160006EPFRS3_S4_E, symObjAddr: 0xAD0, symBinAddr: 0x100003050, symSize: 0x20 }
  - { offsetInCU: 0xF459, offset: 0xF459, size: 0x8, addend: 0x0, symName: __ZN4GameD1Ev, symObjAddr: 0xB40, symBinAddr: 0x1000030C0, symSize: 0x20 }
  - { offsetInCU: 0xF489, offset: 0xF489, size: 0x8, addend: 0x0, symName: __ZNSt3__114basic_ifstreamIcNS_11char_traitsIcEEED1Ev, symObjAddr: 0xB60, symBinAddr: 0x1000030E0, symSize: 0x40 }
  - { offsetInCU: 0xF4B4, offset: 0xF4B4, size: 0x8, addend: 0x0, symName: __ZNKSt3__16chrono8durationIxNS_5ratioILl1ELl1000000000EEEE5countB7v160006Ev, symObjAddr: 0xBF0, symBinAddr: 0x100003170, symSize: 0x20 }
  - { offsetInCU: 0xF4E8, offset: 0xF4E8, size: 0x8, addend: 0x0, symName: __ZNSt3__16chrono8durationIxNS_5ratioILl1ELl1000EEEEC1B7v160006IxEERKT_PNS_9enable_ifIXaasr14is_convertibleIS8_xEE5valueooL_ZNS_17integral_constantIbLb0EE5valueEEntsr23treat_as_floating_pointIS6_EE5valueEvE4typeE, symObjAddr: 0xC10, symBinAddr: 0x100003190, symSize: 0x30 }
  - { offsetInCU: 0xF534, offset: 0xF534, size: 0x8, addend: 0x0, symName: __ZNSt3__16chrono8durationIxNS_5ratioILl1ELl1000EEEEC2B7v160006IxEERKT_PNS_9enable_ifIXaasr14is_convertibleIS8_xEE5valueooL_ZNS_17integral_constantIbLb0EE5valueEEntsr23treat_as_floating_pointIS6_EE5valueEvE4typeE, symObjAddr: 0xC40, symBinAddr: 0x1000031C0, symSize: 0x20 }
  - { offsetInCU: 0xF580, offset: 0xF580, size: 0x8, addend: 0x0, symName: __ZN4GameD2Ev, symObjAddr: 0xC60, symBinAddr: 0x1000031E0, symSize: 0x40 }
  - { offsetInCU: 0xF5AB, offset: 0xF5AB, size: 0x8, addend: 0x0, symName: __ZN12PossibleGridD1Ev, symObjAddr: 0xCA0, symBinAddr: 0x100003220, symSize: 0x20 }
  - { offsetInCU: 0xF5D6, offset: 0xF5D6, size: 0x8, addend: 0x0, symName: __ZN4GridD1Ev, symObjAddr: 0xCC0, symBinAddr: 0x100003240, symSize: 0x20 }
  - { offsetInCU: 0xF601, offset: 0xF601, size: 0x8, addend: 0x0, symName: __ZN12PossibleGridD2Ev, symObjAddr: 0xCE0, symBinAddr: 0x100003260, symSize: 0x30 }
  - { offsetInCU: 0xF62C, offset: 0xF62C, size: 0x8, addend: 0x0, symName: __ZNSt3__16vectorI8PositionNS_9allocatorIS1_EEED1B7v160006Ev, symObjAddr: 0xD10, symBinAddr: 0x100003290, symSize: 0x20 }
  - { offsetInCU: 0xF655, offset: 0xF655, size: 0x8, addend: 0x0, symName: __ZNSt3__16vectorINS0_INS0_IiNS_9allocatorIiEEEENS1_IS3_EEEENS1_IS5_EEED1B7v160006Ev, symObjAddr: 0xD30, symBinAddr: 0x1000032B0, symSize: 0x20 }
  - { offsetInCU: 0xF67E, offset: 0xF67E, size: 0x8, addend: 0x0, symName: __ZNSt3__16vectorI8PositionNS_9allocatorIS1_EEED2B7v160006Ev, symObjAddr: 0xD50, symBinAddr: 0x1000032D0, symSize: 0x40 }
  - { offsetInCU: 0xF6A7, offset: 0xF6A7, size: 0x8, addend: 0x0, symName: __ZNSt3__16vectorI8PositionNS_9allocatorIS1_EEE16__destroy_vectorC1ERS4_, symObjAddr: 0xD90, symBinAddr: 0x100003310, symSize: 0x30 }
  - { offsetInCU: 0xF6DE, offset: 0xF6DE, size: 0x8, addend: 0x0, symName: __ZNSt3__16vectorI8PositionNS_9allocatorIS1_EEE16__destroy_vectorclB7v160006Ev, symObjAddr: 0xDD0, symBinAddr: 0x100003350, symSize: 0x90 }
  - { offsetInCU: 0xF703, offset: 0xF703, size: 0x8, addend: 0x0, symName: __ZNSt3__16vectorI8PositionNS_9allocatorIS1_EEE16__destroy_vectorC2ERS4_, symObjAddr: 0xE60, symBinAddr: 0x1000033E0, symSize: 0x20 }
  - { offsetInCU: 0xF73A, offset: 0xF73A, size: 0x8, addend: 0x0, symName: __ZNKSt3__16vectorI8PositionNS_9allocatorIS1_EEE17__annotate_deleteB7v160006Ev, symObjAddr: 0xE80, symBinAddr: 0x100003400, symSize: 0xB0 }
  - { offsetInCU: 0xF75E, offset: 0xF75E, size: 0x8, addend: 0x0, symName: __ZNSt3__16vectorI8PositionNS_9allocatorIS1_EEE7__clearB7v160006Ev, symObjAddr: 0xF40, symBinAddr: 0x1000034C0, symSize: 0x20 }
  - { offsetInCU: 0xF783, offset: 0xF783, size: 0x8, addend: 0x0, symName: __ZNSt3__116allocator_traitsINS_9allocatorI8PositionEEE10deallocateB7v160006ERS3_PS2_m, symObjAddr: 0xF60, symBinAddr: 0x1000034E0, symSize: 0x30 }
  - { offsetInCU: 0xF7C4, offset: 0xF7C4, size: 0x8, addend: 0x0, symName: __ZNSt3__16vectorI8PositionNS_9allocatorIS1_EEE7__allocB7v160006Ev, symObjAddr: 0xF90, symBinAddr: 0x100003510, symSize: 0x20 }
  - { offsetInCU: 0xF7E8, offset: 0xF7E8, size: 0x8, addend: 0x0, symName: __ZNKSt3__16vectorI8PositionNS_9allocatorIS1_EEE8capacityB7v160006Ev, symObjAddr: 0xFB0, symBinAddr: 0x100003530, symSize: 0x30 }
  - { offsetInCU: 0xF80C, offset: 0xF80C, size: 0x8, addend: 0x0, symName: __ZNKSt3__16vectorI8PositionNS_9allocatorIS1_EEE31__annotate_contiguous_containerB7v160006EPKvS6_S6_S6_, symObjAddr: 0xFE0, symBinAddr: 0x100003560, symSize: 0x20 }
  - { offsetInCU: 0xF860, offset: 0xF860, size: 0x8, addend: 0x0, symName: __ZNKSt3__16vectorI8PositionNS_9allocatorIS1_EEE4dataB7v160006Ev, symObjAddr: 0x1000, symBinAddr: 0x100003580, symSize: 0x20 }
  - { offsetInCU: 0xF884, offset: 0xF884, size: 0x8, addend: 0x0, symName: __ZNKSt3__16vectorI8PositionNS_9allocatorIS1_EEE4sizeB7v160006Ev, symObjAddr: 0x1020, symBinAddr: 0x1000035A0, symSize: 0x20 }
  - { offsetInCU: 0xF8A8, offset: 0xF8A8, size: 0x8, addend: 0x0, symName: __ZNSt3__16vectorI8PositionNS_9allocatorIS1_EEE22__base_destruct_at_endB7v160006EPS1_, symObjAddr: 0x1050, symBinAddr: 0x1000035D0, symSize: 0x80 }
  - { offsetInCU: 0xF8EB, offset: 0xF8EB, size: 0x8, addend: 0x0, symName: __ZNSt3__116allocator_traitsINS_9allocatorI8PositionEEE7destroyB7v160006IS2_vEEvRS3_PT_, symObjAddr: 0x10D0, symBinAddr: 0x100003650, symSize: 0x30 }
  - { offsetInCU: 0xF927, offset: 0xF927, size: 0x8, addend: 0x0, symName: __ZNSt3__19allocatorI8PositionE7destroyB7v160006EPS1_, symObjAddr: 0x1100, symBinAddr: 0x100003680, symSize: 0x10 }
  - { offsetInCU: 0xF959, offset: 0xF959, size: 0x8, addend: 0x0, symName: __ZNSt3__19allocatorI8PositionE10deallocateB7v160006EPS1_m, symObjAddr: 0x1110, symBinAddr: 0x100003690, symSize: 0x40 }
  - { offsetInCU: 0xF999, offset: 0xF999, size: 0x8, addend: 0x0, symName: __ZNSt3__117__compressed_pairIP8PositionNS_9allocatorIS1_EEE6secondB7v160006Ev, symObjAddr: 0x11C0, symBinAddr: 0x100003740, symSize: 0x20 }
  - { offsetInCU: 0xF9BD, offset: 0xF9BD, size: 0x8, addend: 0x0, symName: __ZNSt3__122__compressed_pair_elemINS_9allocatorI8PositionEELi1ELb1EE5__getB7v160006Ev, symObjAddr: 0x11E0, symBinAddr: 0x100003760, symSize: 0x10 }
  - { offsetInCU: 0xF9E1, offset: 0xF9E1, size: 0x8, addend: 0x0, symName: __ZNKSt3__16vectorI8PositionNS_9allocatorIS1_EEE9__end_capB7v160006Ev, symObjAddr: 0x11F0, symBinAddr: 0x100003770, symSize: 0x20 }
  - { offsetInCU: 0xFA05, offset: 0xFA05, size: 0x8, addend: 0x0, symName: __ZNKSt3__117__compressed_pairIP8PositionNS_9allocatorIS1_EEE5firstB7v160006Ev, symObjAddr: 0x1210, symBinAddr: 0x100003790, symSize: 0x20 }
  - { offsetInCU: 0xFA29, offset: 0xFA29, size: 0x8, addend: 0x0, symName: __ZNKSt3__122__compressed_pair_elemIP8PositionLi0ELb0EE5__getB7v160006Ev, symObjAddr: 0x1230, symBinAddr: 0x1000037B0, symSize: 0x10 }
  - { offsetInCU: 0xFA4E, offset: 0xFA4E, size: 0x8, addend: 0x0, symName: __ZNSt3__16vectorINS0_INS0_IiNS_9allocatorIiEEEENS1_IS3_EEEENS1_IS5_EEED2B7v160006Ev, symObjAddr: 0x1240, symBinAddr: 0x1000037C0, symSize: 0x40 }
  - { offsetInCU: 0xFA77, offset: 0xFA77, size: 0x8, addend: 0x0, symName: __ZNSt3__16vectorINS0_INS0_IiNS_9allocatorIiEEEENS1_IS3_EEEENS1_IS5_EEE16__destroy_vectorC1ERS7_, symObjAddr: 0x1280, symBinAddr: 0x100003800, symSize: 0x30 }
  - { offsetInCU: 0xFAAE, offset: 0xFAAE, size: 0x8, addend: 0x0, symName: __ZNSt3__16vectorINS0_INS0_IiNS_9allocatorIiEEEENS1_IS3_EEEENS1_IS5_EEE16__destroy_vectorclB7v160006Ev, symObjAddr: 0x12B0, symBinAddr: 0x100003830, symSize: 0x90 }
  - { offsetInCU: 0xFAD3, offset: 0xFAD3, size: 0x8, addend: 0x0, symName: __ZNSt3__16vectorINS0_INS0_IiNS_9allocatorIiEEEENS1_IS3_EEEENS1_IS5_EEE16__destroy_vectorC2ERS7_, symObjAddr: 0x1340, symBinAddr: 0x1000038C0, symSize: 0x20 }
  - { offsetInCU: 0xFB0A, offset: 0xFB0A, size: 0x8, addend: 0x0, symName: __ZNKSt3__16vectorINS0_INS0_IiNS_9allocatorIiEEEENS1_IS3_EEEENS1_IS5_EEE17__annotate_deleteB7v160006Ev, symObjAddr: 0x1360, symBinAddr: 0x1000038E0, symSize: 0xB0 }
  - { offsetInCU: 0xFB2E, offset: 0xFB2E, size: 0x8, addend: 0x0, symName: __ZNSt3__16vectorINS0_INS0_IiNS_9allocatorIiEEEENS1_IS3_EEEENS1_IS5_EEE7__clearB7v160006Ev, symObjAddr: 0x1420, symBinAddr: 0x1000039A0, symSize: 0x20 }
  - { offsetInCU: 0xFB53, offset: 0xFB53, size: 0x8, addend: 0x0, symName: __ZNSt3__116allocator_traitsINS_9allocatorINS_6vectorINS2_IiNS1_IiEEEENS1_IS4_EEEEEEE10deallocateB7v160006ERS7_PS6_m, symObjAddr: 0x1440, symBinAddr: 0x1000039C0, symSize: 0x30 }
  - { offsetInCU: 0xFB94, offset: 0xFB94, size: 0x8, addend: 0x0, symName: __ZNSt3__16vectorINS0_INS0_IiNS_9allocatorIiEEEENS1_IS3_EEEENS1_IS5_EEE7__allocB7v160006Ev, symObjAddr: 0x1470, symBinAddr: 0x1000039F0, symSize: 0x20 }
  - { offsetInCU: 0xFBB8, offset: 0xFBB8, size: 0x8, addend: 0x0, symName: __ZNKSt3__16vectorINS0_INS0_IiNS_9allocatorIiEEEENS1_IS3_EEEENS1_IS5_EEE8capacityB7v160006Ev, symObjAddr: 0x1490, symBinAddr: 0x100003A10, symSize: 0x40 }
  - { offsetInCU: 0xFBDC, offset: 0xFBDC, size: 0x8, addend: 0x0, symName: __ZNKSt3__16vectorINS0_INS0_IiNS_9allocatorIiEEEENS1_IS3_EEEENS1_IS5_EEE31__annotate_contiguous_containerB7v160006EPKvS9_S9_S9_, symObjAddr: 0x14D0, symBinAddr: 0x100003A50, symSize: 0x20 }
  - { offsetInCU: 0xFC30, offset: 0xFC30, size: 0x8, addend: 0x0, symName: __ZNKSt3__16vectorINS0_INS0_IiNS_9allocatorIiEEEENS1_IS3_EEEENS1_IS5_EEE4dataB7v160006Ev, symObjAddr: 0x14F0, symBinAddr: 0x100003A70, symSize: 0x20 }
  - { offsetInCU: 0xFC54, offset: 0xFC54, size: 0x8, addend: 0x0, symName: __ZNKSt3__16vectorINS0_INS0_IiNS_9allocatorIiEEEENS1_IS3_EEEENS1_IS5_EEE4sizeB7v160006Ev, symObjAddr: 0x1510, symBinAddr: 0x100003A90, symSize: 0x30 }
  - { offsetInCU: 0xFC78, offset: 0xFC78, size: 0x8, addend: 0x0, symName: __ZNSt3__16vectorINS0_INS0_IiNS_9allocatorIiEEEENS1_IS3_EEEENS1_IS5_EEE22__base_destruct_at_endB7v160006EPS5_, symObjAddr: 0x1550, symBinAddr: 0x100003AD0, symSize: 0x80 }
  - { offsetInCU: 0xFCBB, offset: 0xFCBB, size: 0x8, addend: 0x0, symName: __ZNSt3__116allocator_traitsINS_9allocatorINS_6vectorINS2_IiNS1_IiEEEENS1_IS4_EEEEEEE7destroyB7v160006IS6_vEEvRS7_PT_, symObjAddr: 0x15D0, symBinAddr: 0x100003B50, symSize: 0x30 }
  - { offsetInCU: 0xFCF7, offset: 0xFCF7, size: 0x8, addend: 0x0, symName: __ZNSt3__19allocatorINS_6vectorINS1_IiNS0_IiEEEENS0_IS3_EEEEE7destroyB7v160006EPS5_, symObjAddr: 0x1600, symBinAddr: 0x100003B80, symSize: 0x20 }
  - { offsetInCU: 0xFD2A, offset: 0xFD2A, size: 0x8, addend: 0x0, symName: __ZNSt3__16vectorINS0_IiNS_9allocatorIiEEEENS1_IS3_EEED1B7v160006Ev, symObjAddr: 0x1620, symBinAddr: 0x100003BA0, symSize: 0x20 }
  - { offsetInCU: 0xFD53, offset: 0xFD53, size: 0x8, addend: 0x0, symName: __ZNSt3__16vectorINS0_IiNS_9allocatorIiEEEENS1_IS3_EEED2B7v160006Ev, symObjAddr: 0x1640, symBinAddr: 0x100003BC0, symSize: 0x40 }
  - { offsetInCU: 0xFD7C, offset: 0xFD7C, size: 0x8, addend: 0x0, symName: __ZNSt3__16vectorINS0_IiNS_9allocatorIiEEEENS1_IS3_EEE16__destroy_vectorC1ERS5_, symObjAddr: 0x1680, symBinAddr: 0x100003C00, symSize: 0x30 }
  - { offsetInCU: 0xFDB3, offset: 0xFDB3, size: 0x8, addend: 0x0, symName: __ZNSt3__16vectorINS0_IiNS_9allocatorIiEEEENS1_IS3_EEE16__destroy_vectorclB7v160006Ev, symObjAddr: 0x16B0, symBinAddr: 0x100003C30, symSize: 0x90 }
  - { offsetInCU: 0xFDD8, offset: 0xFDD8, size: 0x8, addend: 0x0, symName: __ZNSt3__16vectorINS0_IiNS_9allocatorIiEEEENS1_IS3_EEE16__destroy_vectorC2ERS5_, symObjAddr: 0x1740, symBinAddr: 0x100003CC0, symSize: 0x20 }
  - { offsetInCU: 0xFE0F, offset: 0xFE0F, size: 0x8, addend: 0x0, symName: __ZNKSt3__16vectorINS0_IiNS_9allocatorIiEEEENS1_IS3_EEE17__annotate_deleteB7v160006Ev, symObjAddr: 0x1760, symBinAddr: 0x100003CE0, symSize: 0xB0 }
  - { offsetInCU: 0xFE33, offset: 0xFE33, size: 0x8, addend: 0x0, symName: __ZNSt3__16vectorINS0_IiNS_9allocatorIiEEEENS1_IS3_EEE7__clearB7v160006Ev, symObjAddr: 0x1820, symBinAddr: 0x100003DA0, symSize: 0x20 }
  - { offsetInCU: 0xFE58, offset: 0xFE58, size: 0x8, addend: 0x0, symName: __ZNSt3__116allocator_traitsINS_9allocatorINS_6vectorIiNS1_IiEEEEEEE10deallocateB7v160006ERS5_PS4_m, symObjAddr: 0x1840, symBinAddr: 0x100003DC0, symSize: 0x30 }
  - { offsetInCU: 0xFE99, offset: 0xFE99, size: 0x8, addend: 0x0, symName: __ZNSt3__16vectorINS0_IiNS_9allocatorIiEEEENS1_IS3_EEE7__allocB7v160006Ev, symObjAddr: 0x1870, symBinAddr: 0x100003DF0, symSize: 0x20 }
  - { offsetInCU: 0xFEBD, offset: 0xFEBD, size: 0x8, addend: 0x0, symName: __ZNKSt3__16vectorINS0_IiNS_9allocatorIiEEEENS1_IS3_EEE8capacityB7v160006Ev, symObjAddr: 0x1890, symBinAddr: 0x100003E10, symSize: 0x40 }
  - { offsetInCU: 0xFEE1, offset: 0xFEE1, size: 0x8, addend: 0x0, symName: __ZNKSt3__16vectorINS0_IiNS_9allocatorIiEEEENS1_IS3_EEE31__annotate_contiguous_containerB7v160006EPKvS7_S7_S7_, symObjAddr: 0x18D0, symBinAddr: 0x100003E50, symSize: 0x20 }
  - { offsetInCU: 0xFF35, offset: 0xFF35, size: 0x8, addend: 0x0, symName: __ZNKSt3__16vectorINS0_IiNS_9allocatorIiEEEENS1_IS3_EEE4dataB7v160006Ev, symObjAddr: 0x18F0, symBinAddr: 0x100003E70, symSize: 0x20 }
  - { offsetInCU: 0xFF59, offset: 0xFF59, size: 0x8, addend: 0x0, symName: __ZNKSt3__16vectorINS0_IiNS_9allocatorIiEEEENS1_IS3_EEE4sizeB7v160006Ev, symObjAddr: 0x1910, symBinAddr: 0x100003E90, symSize: 0x30 }
  - { offsetInCU: 0xFF7D, offset: 0xFF7D, size: 0x8, addend: 0x0, symName: __ZNSt3__16vectorINS0_IiNS_9allocatorIiEEEENS1_IS3_EEE22__base_destruct_at_endB7v160006EPS3_, symObjAddr: 0x1950, symBinAddr: 0x100003ED0, symSize: 0x80 }
  - { offsetInCU: 0xFFC0, offset: 0xFFC0, size: 0x8, addend: 0x0, symName: __ZNSt3__116allocator_traitsINS_9allocatorINS_6vectorIiNS1_IiEEEEEEE7destroyB7v160006IS4_vEEvRS5_PT_, symObjAddr: 0x19D0, symBinAddr: 0x100003F50, symSize: 0x30 }
  - { offsetInCU: 0xFFFC, offset: 0xFFFC, size: 0x8, addend: 0x0, symName: __ZNSt3__19allocatorINS_6vectorIiNS0_IiEEEEE7destroyB7v160006EPS3_, symObjAddr: 0x1A00, symBinAddr: 0x100003F80, symSize: 0x20 }
  - { offsetInCU: 0x1002F, offset: 0x1002F, size: 0x8, addend: 0x0, symName: __ZNSt3__16vectorIiNS_9allocatorIiEEED1B7v160006Ev, symObjAddr: 0x1A20, symBinAddr: 0x100003FA0, symSize: 0x20 }
  - { offsetInCU: 0x10058, offset: 0x10058, size: 0x8, addend: 0x0, symName: __ZNSt3__16vectorIiNS_9allocatorIiEEED2B7v160006Ev, symObjAddr: 0x1A40, symBinAddr: 0x100003FC0, symSize: 0x40 }
  - { offsetInCU: 0x10081, offset: 0x10081, size: 0x8, addend: 0x0, symName: __ZNSt3__16vectorIiNS_9allocatorIiEEE16__destroy_vectorC1ERS3_, symObjAddr: 0x1A80, symBinAddr: 0x100004000, symSize: 0x30 }
  - { offsetInCU: 0x100B8, offset: 0x100B8, size: 0x8, addend: 0x0, symName: __ZNSt3__16vectorIiNS_9allocatorIiEEE16__destroy_vectorclB7v160006Ev, symObjAddr: 0x1AB0, symBinAddr: 0x100004030, symSize: 0x90 }
  - { offsetInCU: 0x100DD, offset: 0x100DD, size: 0x8, addend: 0x0, symName: __ZNSt3__16vectorIiNS_9allocatorIiEEE16__destroy_vectorC2ERS3_, symObjAddr: 0x1B40, symBinAddr: 0x1000040C0, symSize: 0x20 }
  - { offsetInCU: 0x10114, offset: 0x10114, size: 0x8, addend: 0x0, symName: __ZNKSt3__16vectorIiNS_9allocatorIiEEE17__annotate_deleteB7v160006Ev, symObjAddr: 0x1B60, symBinAddr: 0x1000040E0, symSize: 0xB0 }
  - { offsetInCU: 0x10138, offset: 0x10138, size: 0x8, addend: 0x0, symName: __ZNSt3__16vectorIiNS_9allocatorIiEEE7__clearB7v160006Ev, symObjAddr: 0x1C20, symBinAddr: 0x1000041A0, symSize: 0x20 }
  - { offsetInCU: 0x1015D, offset: 0x1015D, size: 0x8, addend: 0x0, symName: __ZNSt3__116allocator_traitsINS_9allocatorIiEEE10deallocateB7v160006ERS2_Pim, symObjAddr: 0x1C40, symBinAddr: 0x1000041C0, symSize: 0x30 }
  - { offsetInCU: 0x1019E, offset: 0x1019E, size: 0x8, addend: 0x0, symName: __ZNSt3__16vectorIiNS_9allocatorIiEEE7__allocB7v160006Ev, symObjAddr: 0x1C70, symBinAddr: 0x1000041F0, symSize: 0x20 }
  - { offsetInCU: 0x101C2, offset: 0x101C2, size: 0x8, addend: 0x0, symName: __ZNKSt3__16vectorIiNS_9allocatorIiEEE8capacityB7v160006Ev, symObjAddr: 0x1C90, symBinAddr: 0x100004210, symSize: 0x30 }
  - { offsetInCU: 0x101E6, offset: 0x101E6, size: 0x8, addend: 0x0, symName: __ZNKSt3__16vectorIiNS_9allocatorIiEEE31__annotate_contiguous_containerB7v160006EPKvS5_S5_S5_, symObjAddr: 0x1CC0, symBinAddr: 0x100004240, symSize: 0x20 }
  - { offsetInCU: 0x1023A, offset: 0x1023A, size: 0x8, addend: 0x0, symName: __ZNKSt3__16vectorIiNS_9allocatorIiEEE4dataB7v160006Ev, symObjAddr: 0x1CE0, symBinAddr: 0x100004260, symSize: 0x20 }
  - { offsetInCU: 0x1025E, offset: 0x1025E, size: 0x8, addend: 0x0, symName: __ZNKSt3__16vectorIiNS_9allocatorIiEEE4sizeB7v160006Ev, symObjAddr: 0x1D00, symBinAddr: 0x100004280, symSize: 0x20 }
  - { offsetInCU: 0x10282, offset: 0x10282, size: 0x8, addend: 0x0, symName: __ZNSt3__16vectorIiNS_9allocatorIiEEE22__base_destruct_at_endB7v160006EPi, symObjAddr: 0x1D30, symBinAddr: 0x1000042B0, symSize: 0x80 }
  - { offsetInCU: 0x102C5, offset: 0x102C5, size: 0x8, addend: 0x0, symName: __ZNSt3__116allocator_traitsINS_9allocatorIiEEE7destroyB7v160006IivEEvRS2_PT_, symObjAddr: 0x1DB0, symBinAddr: 0x100004330, symSize: 0x30 }
  - { offsetInCU: 0x10301, offset: 0x10301, size: 0x8, addend: 0x0, symName: __ZNSt3__19allocatorIiE7destroyB7v160006EPi, symObjAddr: 0x1DE0, symBinAddr: 0x100004360, symSize: 0x10 }
  - { offsetInCU: 0x10333, offset: 0x10333, size: 0x8, addend: 0x0, symName: __ZNSt3__19allocatorIiE10deallocateB7v160006EPim, symObjAddr: 0x1DF0, symBinAddr: 0x100004370, symSize: 0x40 }
  - { offsetInCU: 0x10373, offset: 0x10373, size: 0x8, addend: 0x0, symName: __ZNSt3__117__compressed_pairIPiNS_9allocatorIiEEE6secondB7v160006Ev, symObjAddr: 0x1E30, symBinAddr: 0x1000043B0, symSize: 0x20 }
  - { offsetInCU: 0x10397, offset: 0x10397, size: 0x8, addend: 0x0, symName: __ZNSt3__122__compressed_pair_elemINS_9allocatorIiEELi1ELb1EE5__getB7v160006Ev, symObjAddr: 0x1E50, symBinAddr: 0x1000043D0, symSize: 0x10 }
  - { offsetInCU: 0x103BB, offset: 0x103BB, size: 0x8, addend: 0x0, symName: __ZNKSt3__16vectorIiNS_9allocatorIiEEE9__end_capB7v160006Ev, symObjAddr: 0x1E60, symBinAddr: 0x1000043E0, symSize: 0x20 }
  - { offsetInCU: 0x103DF, offset: 0x103DF, size: 0x8, addend: 0x0, symName: __ZNKSt3__117__compressed_pairIPiNS_9allocatorIiEEE5firstB7v160006Ev, symObjAddr: 0x1E80, symBinAddr: 0x100004400, symSize: 0x20 }
  - { offsetInCU: 0x10403, offset: 0x10403, size: 0x8, addend: 0x0, symName: __ZNKSt3__122__compressed_pair_elemIPiLi0ELb0EE5__getB7v160006Ev, symObjAddr: 0x1EA0, symBinAddr: 0x100004420, symSize: 0x10 }
  - { offsetInCU: 0x10427, offset: 0x10427, size: 0x8, addend: 0x0, symName: __ZNSt3__19allocatorINS_6vectorIiNS0_IiEEEEE10deallocateB7v160006EPS3_m, symObjAddr: 0x1EB0, symBinAddr: 0x100004430, symSize: 0x50 }
  - { offsetInCU: 0x10467, offset: 0x10467, size: 0x8, addend: 0x0, symName: __ZNSt3__117__compressed_pairIPNS_6vectorIiNS_9allocatorIiEEEENS2_IS4_EEE6secondB7v160006Ev, symObjAddr: 0x1F00, symBinAddr: 0x100004480, symSize: 0x20 }
  - { offsetInCU: 0x1048B, offset: 0x1048B, size: 0x8, addend: 0x0, symName: __ZNSt3__122__compressed_pair_elemINS_9allocatorINS_6vectorIiNS1_IiEEEEEELi1ELb1EE5__getB7v160006Ev, symObjAddr: 0x1F20, symBinAddr: 0x1000044A0, symSize: 0x10 }
  - { offsetInCU: 0x104AF, offset: 0x104AF, size: 0x8, addend: 0x0, symName: __ZNKSt3__16vectorINS0_IiNS_9allocatorIiEEEENS1_IS3_EEE9__end_capB7v160006Ev, symObjAddr: 0x1F30, symBinAddr: 0x1000044B0, symSize: 0x20 }
  - { offsetInCU: 0x104D3, offset: 0x104D3, size: 0x8, addend: 0x0, symName: __ZNKSt3__117__compressed_pairIPNS_6vectorIiNS_9allocatorIiEEEENS2_IS4_EEE5firstB7v160006Ev, symObjAddr: 0x1F50, symBinAddr: 0x1000044D0, symSize: 0x20 }
  - { offsetInCU: 0x104F7, offset: 0x104F7, size: 0x8, addend: 0x0, symName: __ZNKSt3__122__compressed_pair_elemIPNS_6vectorIiNS_9allocatorIiEEEELi0ELb0EE5__getB7v160006Ev, symObjAddr: 0x1F70, symBinAddr: 0x1000044F0, symSize: 0x10 }
  - { offsetInCU: 0x1051B, offset: 0x1051B, size: 0x8, addend: 0x0, symName: __ZNSt3__19allocatorINS_6vectorINS1_IiNS0_IiEEEENS0_IS3_EEEEE10deallocateB7v160006EPS5_m, symObjAddr: 0x1F80, symBinAddr: 0x100004500, symSize: 0x50 }
  - { offsetInCU: 0x1055B, offset: 0x1055B, size: 0x8, addend: 0x0, symName: __ZNSt3__117__compressed_pairIPNS_6vectorINS1_IiNS_9allocatorIiEEEENS2_IS4_EEEENS2_IS6_EEE6secondB7v160006Ev, symObjAddr: 0x1FD0, symBinAddr: 0x100004550, symSize: 0x20 }
  - { offsetInCU: 0x1057F, offset: 0x1057F, size: 0x8, addend: 0x0, symName: __ZNSt3__122__compressed_pair_elemINS_9allocatorINS_6vectorINS2_IiNS1_IiEEEENS1_IS4_EEEEEELi1ELb1EE5__getB7v160006Ev, symObjAddr: 0x1FF0, symBinAddr: 0x100004570, symSize: 0x10 }
  - { offsetInCU: 0x105A3, offset: 0x105A3, size: 0x8, addend: 0x0, symName: __ZNKSt3__16vectorINS0_INS0_IiNS_9allocatorIiEEEENS1_IS3_EEEENS1_IS5_EEE9__end_capB7v160006Ev, symObjAddr: 0x2000, symBinAddr: 0x100004580, symSize: 0x20 }
  - { offsetInCU: 0x105C7, offset: 0x105C7, size: 0x8, addend: 0x0, symName: __ZNKSt3__117__compressed_pairIPNS_6vectorINS1_IiNS_9allocatorIiEEEENS2_IS4_EEEENS2_IS6_EEE5firstB7v160006Ev, symObjAddr: 0x2020, symBinAddr: 0x1000045A0, symSize: 0x20 }
  - { offsetInCU: 0x105EB, offset: 0x105EB, size: 0x8, addend: 0x0, symName: __ZNKSt3__122__compressed_pair_elemIPNS_6vectorINS1_IiNS_9allocatorIiEEEENS2_IS4_EEEELi0ELb0EE5__getB7v160006Ev, symObjAddr: 0x2040, symBinAddr: 0x1000045C0, symSize: 0x10 }
  - { offsetInCU: 0x10610, offset: 0x10610, size: 0x8, addend: 0x0, symName: __ZN4GridD2Ev, symObjAddr: 0x2050, symBinAddr: 0x1000045D0, symSize: 0x30 }
  - { offsetInCU: 0x1063B, offset: 0x1063B, size: 0x8, addend: 0x0, symName: __ZNSt3__114basic_ifstreamIcNS_11char_traitsIcEEED2Ev, symObjAddr: 0x2080, symBinAddr: 0x100004600, symSize: 0x60 }
  - { offsetInCU: 0x10673, offset: 0x10673, size: 0x8, addend: 0x0, symName: __ZTv0_n24_NSt3__114basic_ifstreamIcNS_11char_traitsIcEEED1Ev, symObjAddr: 0x20E0, symBinAddr: 0x100004660, symSize: 0x20 }
  - { offsetInCU: 0x1068A, offset: 0x1068A, size: 0x8, addend: 0x0, symName: __ZNSt3__112basic_stringIcNS_11char_traitsIcEENS_9allocatorIcEEEC2B7v160006Ev, symObjAddr: 0x2100, symBinAddr: 0x100004680, symSize: 0x50 }
  - { offsetInCU: 0x106B8, offset: 0x106B8, size: 0x8, addend: 0x0, symName: __ZNSt3__117__compressed_pairINS_12basic_stringIcNS_11char_traitsIcEENS_9allocatorIcEEE5__repES5_EC1B7v160006INS_18__default_init_tagESA_EEOT_OT0_, symObjAddr: 0x2150, symBinAddr: 0x1000046D0, symSize: 0x30 }
  - { offsetInCU: 0x1070E, offset: 0x1070E, size: 0x8, addend: 0x0, symName: __ZNSt3__112basic_stringIcNS_11char_traitsIcEENS_9allocatorIcEEE14__default_initB7v160006Ev, symObjAddr: 0x2190, symBinAddr: 0x100004710, symSize: 0x50 }
  - { offsetInCU: 0x10733, offset: 0x10733, size: 0x8, addend: 0x0, symName: __ZNSt3__117__compressed_pairINS_12basic_stringIcNS_11char_traitsIcEENS_9allocatorIcEEE5__repES5_EC2B7v160006INS_18__default_init_tagESA_EEOT_OT0_, symObjAddr: 0x21E0, symBinAddr: 0x100004760, symSize: 0x30 }
  - { offsetInCU: 0x1078A, offset: 0x1078A, size: 0x8, addend: 0x0, symName: __ZNSt3__122__compressed_pair_elemINS_12basic_stringIcNS_11char_traitsIcEENS_9allocatorIcEEE5__repELi0ELb0EEC2B7v160006ENS_18__default_init_tagE, symObjAddr: 0x2210, symBinAddr: 0x100004790, symSize: 0x10 }
  - { offsetInCU: 0x107BE, offset: 0x107BE, size: 0x8, addend: 0x0, symName: __ZNSt3__122__compressed_pair_elemINS_9allocatorIcEELi1ELb1EEC2B7v160006ENS_18__default_init_tagE, symObjAddr: 0x2220, symBinAddr: 0x1000047A0, symSize: 0x20 }
  - { offsetInCU: 0x107F2, offset: 0x107F2, size: 0x8, addend: 0x0, symName: __ZNSt3__19allocatorIcEC2B7v160006Ev, symObjAddr: 0x2240, symBinAddr: 0x1000047C0, symSize: 0x20 }
  - { offsetInCU: 0x1081B, offset: 0x1081B, size: 0x8, addend: 0x0, symName: __ZNSt3__116__non_trivial_ifILb1ENS_9allocatorIcEEEC2B7v160006Ev, symObjAddr: 0x2260, symBinAddr: 0x1000047E0, symSize: 0x10 }
  - { offsetInCU: 0x10843, offset: 0x10843, size: 0x8, addend: 0x0, symName: __ZNSt3__117__compressed_pairINS_12basic_stringIcNS_11char_traitsIcEENS_9allocatorIcEEE5__repES5_E5firstB7v160006Ev, symObjAddr: 0x2270, symBinAddr: 0x1000047F0, symSize: 0x20 }
  - { offsetInCU: 0x10867, offset: 0x10867, size: 0x8, addend: 0x0, symName: __ZNSt3__122__compressed_pair_elemINS_12basic_stringIcNS_11char_traitsIcEENS_9allocatorIcEEE5__repELi0ELb0EE5__getB7v160006Ev, symObjAddr: 0x2290, symBinAddr: 0x100004810, symSize: 0x10 }
  - { offsetInCU: 0x1088C, offset: 0x1088C, size: 0x8, addend: 0x0, symName: __ZNSt3__111char_traitsIcE6lengthEPKc, symObjAddr: 0x2490, symBinAddr: 0x100004A10, symSize: 0x30 }
  - { offsetInCU: 0x108CC, offset: 0x108CC, size: 0x8, addend: 0x0, symName: __ZNKSt3__113basic_ostreamIcNS_11char_traitsIcEEE6sentrycvbB7v160006Ev, symObjAddr: 0x24C0, symBinAddr: 0x100004A40, symSize: 0x20 }
  - { offsetInCU: 0x108F1, offset: 0x108F1, size: 0x8, addend: 0x0, symName: __ZNSt3__119ostreambuf_iteratorIcNS_11char_traitsIcEEEC1B7v160006ERNS_13basic_ostreamIcS2_EE, symObjAddr: 0x2700, symBinAddr: 0x100004C80, symSize: 0x30 }
  - { offsetInCU: 0x10928, offset: 0x10928, size: 0x8, addend: 0x0, symName: __ZNKSt3__18ios_base5flagsB7v160006Ev, symObjAddr: 0x2730, symBinAddr: 0x100004CB0, symSize: 0x20 }
  - { offsetInCU: 0x1094F, offset: 0x1094F, size: 0x8, addend: 0x0, symName: __ZNKSt3__19basic_iosIcNS_11char_traitsIcEEE4fillB7v160006Ev, symObjAddr: 0x2750, symBinAddr: 0x100004CD0, symSize: 0x70 }
  - { offsetInCU: 0x10975, offset: 0x10975, size: 0x8, addend: 0x0, symName: __ZNKSt3__119ostreambuf_iteratorIcNS_11char_traitsIcEEE6failedB7v160006Ev, symObjAddr: 0x27C0, symBinAddr: 0x100004D40, symSize: 0x20 }
  - { offsetInCU: 0x10999, offset: 0x10999, size: 0x8, addend: 0x0, symName: __ZNSt3__19basic_iosIcNS_11char_traitsIcEEE8setstateB7v160006Ej, symObjAddr: 0x27E0, symBinAddr: 0x100004D60, symSize: 0x30 }
  - { offsetInCU: 0x109CD, offset: 0x109CD, size: 0x8, addend: 0x0, symName: __ZNKSt3__18ios_base5widthB7v160006Ev, symObjAddr: 0x2810, symBinAddr: 0x100004D90, symSize: 0x20 }
  - { offsetInCU: 0x109F3, offset: 0x109F3, size: 0x8, addend: 0x0, symName: __ZNSt3__115basic_streambufIcNS_11char_traitsIcEEE5sputnB7v160006EPKcl, symObjAddr: 0x2830, symBinAddr: 0x100004DB0, symSize: 0x30 }
  - { offsetInCU: 0x10A34, offset: 0x10A34, size: 0x8, addend: 0x0, symName: __ZNSt3__112basic_stringIcNS_11char_traitsIcEENS_9allocatorIcEEEC1B7v160006Emc, symObjAddr: 0x2860, symBinAddr: 0x100004DE0, symSize: 0x30 }
  - { offsetInCU: 0x10A7A, offset: 0x10A7A, size: 0x8, addend: 0x0, symName: __ZNKSt3__112basic_stringIcNS_11char_traitsIcEENS_9allocatorIcEEE4dataB7v160006Ev, symObjAddr: 0x2890, symBinAddr: 0x100004E10, symSize: 0x30 }
  - { offsetInCU: 0x10A9F, offset: 0x10A9F, size: 0x8, addend: 0x0, symName: __ZNSt3__18ios_base5widthB7v160006El, symObjAddr: 0x28C0, symBinAddr: 0x100004E40, symSize: 0x30 }
  - { offsetInCU: 0x10AE4, offset: 0x10AE4, size: 0x8, addend: 0x0, symName: __ZNSt3__112basic_stringIcNS_11char_traitsIcEENS_9allocatorIcEEEC2B7v160006Emc, symObjAddr: 0x28F0, symBinAddr: 0x100004E70, symSize: 0x50 }
  - { offsetInCU: 0x10B2A, offset: 0x10B2A, size: 0x8, addend: 0x0, symName: __ZNKSt3__112basic_stringIcNS_11char_traitsIcEENS_9allocatorIcEEE13__get_pointerB7v160006Ev, symObjAddr: 0x2950, symBinAddr: 0x100004ED0, symSize: 0x50 }
  - { offsetInCU: 0x10B4E, offset: 0x10B4E, size: 0x8, addend: 0x0, symName: __ZNKSt3__112basic_stringIcNS_11char_traitsIcEENS_9allocatorIcEEE9__is_longB7v160006Ev, symObjAddr: 0x29A0, symBinAddr: 0x100004F20, symSize: 0x30 }
  - { offsetInCU: 0x10B72, offset: 0x10B72, size: 0x8, addend: 0x0, symName: __ZNKSt3__112basic_stringIcNS_11char_traitsIcEENS_9allocatorIcEEE18__get_long_pointerB7v160006Ev, symObjAddr: 0x29D0, symBinAddr: 0x100004F50, symSize: 0x20 }
  - { offsetInCU: 0x10B96, offset: 0x10B96, size: 0x8, addend: 0x0, symName: __ZNKSt3__112basic_stringIcNS_11char_traitsIcEENS_9allocatorIcEEE19__get_short_pointerB7v160006Ev, symObjAddr: 0x29F0, symBinAddr: 0x100004F70, symSize: 0x30 }
  - { offsetInCU: 0x10BBA, offset: 0x10BBA, size: 0x8, addend: 0x0, symName: __ZNKSt3__117__compressed_pairINS_12basic_stringIcNS_11char_traitsIcEENS_9allocatorIcEEE5__repES5_E5firstB7v160006Ev, symObjAddr: 0x2A20, symBinAddr: 0x100004FA0, symSize: 0x20 }
  - { offsetInCU: 0x10BDE, offset: 0x10BDE, size: 0x8, addend: 0x0, symName: __ZNKSt3__122__compressed_pair_elemINS_12basic_stringIcNS_11char_traitsIcEENS_9allocatorIcEEE5__repELi0ELb0EE5__getB7v160006Ev, symObjAddr: 0x2A40, symBinAddr: 0x100004FC0, symSize: 0x10 }
  - { offsetInCU: 0x10C03, offset: 0x10C03, size: 0x8, addend: 0x0, symName: __ZNSt3__114pointer_traitsIPKcE10pointer_toB7v160006ERS1_, symObjAddr: 0x2A50, symBinAddr: 0x100004FD0, symSize: 0x10 }
  - { offsetInCU: 0x10C26, offset: 0x10C26, size: 0x8, addend: 0x0, symName: __ZNSt3__119ostreambuf_iteratorIcNS_11char_traitsIcEEEC2B7v160006ERNS_13basic_ostreamIcS2_EE, symObjAddr: 0x2A60, symBinAddr: 0x100004FE0, symSize: 0x50 }
  - { offsetInCU: 0x10C5D, offset: 0x10C5D, size: 0x8, addend: 0x0, symName: __ZNKSt3__19basic_iosIcNS_11char_traitsIcEEE5rdbufB7v160006Ev, symObjAddr: 0x2AB0, symBinAddr: 0x100005030, symSize: 0x20 }
  - { offsetInCU: 0x10C83, offset: 0x10C83, size: 0x8, addend: 0x0, symName: __ZNKSt3__18ios_base5rdbufB7v160006Ev, symObjAddr: 0x2AD0, symBinAddr: 0x100005050, symSize: 0x20 }
  - { offsetInCU: 0x10CA8, offset: 0x10CA8, size: 0x8, addend: 0x0, symName: __ZNSt3__111char_traitsIcE11eq_int_typeEii, symObjAddr: 0x2AF0, symBinAddr: 0x100005070, symSize: 0x20 }
  - { offsetInCU: 0x10CD9, offset: 0x10CD9, size: 0x8, addend: 0x0, symName: __ZNSt3__111char_traitsIcE3eofEv, symObjAddr: 0x2B10, symBinAddr: 0x100005090, symSize: 0x10 }
  - { offsetInCU: 0x10CED, offset: 0x10CED, size: 0x8, addend: 0x0, symName: __ZNKSt3__19basic_iosIcNS_11char_traitsIcEEE5widenB7v160006Ec, symObjAddr: 0x2B20, symBinAddr: 0x1000050A0, symSize: 0x80 }
  - { offsetInCU: 0x10D4A, offset: 0x10D4A, size: 0x8, addend: 0x0, symName: __ZNKSt3__15ctypeIcE5widenB7v160006Ec, symObjAddr: 0x2BD0, symBinAddr: 0x100005150, symSize: 0x30 }
  - { offsetInCU: 0x10D7E, offset: 0x10D7E, size: 0x8, addend: 0x0, symName: __ZNSt3__18ios_base8setstateB7v160006Ej, symObjAddr: 0x2C00, symBinAddr: 0x100005180, symSize: 0x30 }
  - { offsetInCU: 0x10DB4, offset: 0x10DB4, size: 0x8, addend: 0x0, symName: __ZNSt3__112basic_stringIcNS_11char_traitsIcEENS_9allocatorIcEEEC2B7v160006IDnEEPKc, symObjAddr: 0x2C50, symBinAddr: 0x1000051D0, symSize: 0x60 }
  - { offsetInCU: 0x10DF1, offset: 0x10DF1, size: 0x8, addend: 0x0, symName: __ZNSt3__19basic_iosIcNS_11char_traitsIcEEEC2B7v160006Ev, symObjAddr: 0x2CB0, symBinAddr: 0x100005230, symSize: 0x40 }
  - { offsetInCU: 0x10E1A, offset: 0x10E1A, size: 0x8, addend: 0x0, symName: __ZNSt3__113basic_istreamIcNS_11char_traitsIcEEEC2B7v160006EPNS_15basic_streambufIcS2_EE, symObjAddr: 0x2CF0, symBinAddr: 0x100005270, symSize: 0x50 }
  - { offsetInCU: 0x10E5D, offset: 0x10E5D, size: 0x8, addend: 0x0, symName: __ZNSt3__18ios_baseC2B7v160006Ev, symObjAddr: 0x2D40, symBinAddr: 0x1000052C0, symSize: 0x20 }
  - { offsetInCU: 0x10E86, offset: 0x10E86, size: 0x8, addend: 0x0, symName: __ZNSt3__19basic_iosIcNS_11char_traitsIcEEE4initB7v160006EPNS_15basic_streambufIcS2_EE, symObjAddr: 0x2D60, symBinAddr: 0x1000052E0, symSize: 0x50 }
  - { offsetInCU: 0x10ED9, offset: 0x10ED9, size: 0x8, addend: 0x0, symName: __ZNKSt3__113basic_istreamIcNS_11char_traitsIcEEE6sentrycvbB7v160006Ev, symObjAddr: 0x2DB0, symBinAddr: 0x100005330, symSize: 0x20 }
  - { offsetInCU: 0x10EFE, offset: 0x10EFE, size: 0x8, addend: 0x0, symName: __ZNSt3__112basic_stringIcNS_11char_traitsIcEENS_9allocatorIcEEE5clearB7v160006Ev, symObjAddr: 0x2DD0, symBinAddr: 0x100005350, symSize: 0xA0 }
  - { offsetInCU: 0x10F24, offset: 0x10F24, size: 0x8, addend: 0x0, symName: __ZNKSt3__112basic_stringIcNS_11char_traitsIcEENS_9allocatorIcEEE8max_sizeB7v160006Ev, symObjAddr: 0x2E70, symBinAddr: 0x1000053F0, symSize: 0xA0 }
  - { offsetInCU: 0x10F76, offset: 0x10F76, size: 0x8, addend: 0x0, symName: __ZNSt3__114numeric_limitsIlE3maxB7v160006Ev, symObjAddr: 0x2F10, symBinAddr: 0x100005490, symSize: 0x10 }
  - { offsetInCU: 0x10F89, offset: 0x10F89, size: 0x8, addend: 0x0, symName: __ZNSt3__115basic_streambufIcNS_11char_traitsIcEEE5sgetcB7v160006Ev, symObjAddr: 0x2F20, symBinAddr: 0x1000054A0, symSize: 0x50 }
  - { offsetInCU: 0x10FAE, offset: 0x10FAE, size: 0x8, addend: 0x0, symName: __ZNSt3__111char_traitsIcE12to_char_typeEi, symObjAddr: 0x2F70, symBinAddr: 0x1000054F0, symSize: 0x10 }
  - { offsetInCU: 0x10FD0, offset: 0x10FD0, size: 0x8, addend: 0x0, symName: __ZNKSt3__15ctypeIcE2isB7v160006Ejc, symObjAddr: 0x2F80, symBinAddr: 0x100005500, symSize: 0x70 }
  - { offsetInCU: 0x11012, offset: 0x11012, size: 0x8, addend: 0x0, symName: __ZNSt3__115basic_streambufIcNS_11char_traitsIcEEE6sbumpcB7v160006Ev, symObjAddr: 0x2FF0, symBinAddr: 0x100005570, symSize: 0x60 }
  - { offsetInCU: 0x11036, offset: 0x11036, size: 0x8, addend: 0x0, symName: __ZNSt3__18ios_base18__setstate_nothrowB7v160006Ej, symObjAddr: 0x3050, symBinAddr: 0x1000055D0, symSize: 0x50 }
  - { offsetInCU: 0x11069, offset: 0x11069, size: 0x8, addend: 0x0, symName: __ZNKSt3__19basic_iosIcNS_11char_traitsIcEEE10exceptionsB7v160006Ev, symObjAddr: 0x30A0, symBinAddr: 0x100005620, symSize: 0x20 }
  - { offsetInCU: 0x1108E, offset: 0x1108E, size: 0x8, addend: 0x0, symName: __ZNSt3__111char_traitsIcE6assignERcRKc, symObjAddr: 0x30D0, symBinAddr: 0x100005650, symSize: 0x20 }
  - { offsetInCU: 0x110BE, offset: 0x110BE, size: 0x8, addend: 0x0, symName: __ZNSt3__112basic_stringIcNS_11char_traitsIcEENS_9allocatorIcEEE18__get_long_pointerB7v160006Ev, symObjAddr: 0x30F0, symBinAddr: 0x100005670, symSize: 0x20 }
  - { offsetInCU: 0x110E2, offset: 0x110E2, size: 0x8, addend: 0x0, symName: __ZNSt3__112basic_stringIcNS_11char_traitsIcEENS_9allocatorIcEEE15__set_long_sizeB7v160006Em, symObjAddr: 0x3110, symBinAddr: 0x100005690, symSize: 0x30 }
  - { offsetInCU: 0x11115, offset: 0x11115, size: 0x8, addend: 0x0, symName: __ZNSt3__112basic_stringIcNS_11char_traitsIcEENS_9allocatorIcEEE19__get_short_pointerB7v160006Ev, symObjAddr: 0x3140, symBinAddr: 0x1000056C0, symSize: 0x30 }
  - { offsetInCU: 0x11139, offset: 0x11139, size: 0x8, addend: 0x0, symName: __ZNSt3__112basic_stringIcNS_11char_traitsIcEENS_9allocatorIcEEE16__set_short_sizeB7v160006Em, symObjAddr: 0x3170, symBinAddr: 0x1000056F0, symSize: 0x50 }
  - { offsetInCU: 0x1116D, offset: 0x1116D, size: 0x8, addend: 0x0, symName: __ZNSt3__114pointer_traitsIPcE10pointer_toB7v160006ERc, symObjAddr: 0x31C0, symBinAddr: 0x100005740, symSize: 0x10 }
  - { offsetInCU: 0x1119A, offset: 0x1119A, size: 0x8, addend: 0x0, symName: __ZNSt3__116allocator_traitsINS_9allocatorIcEEE8max_sizeB7v160006IS2_vEEmRKS2_, symObjAddr: 0x31D0, symBinAddr: 0x100005750, symSize: 0x20 }
  - { offsetInCU: 0x111C7, offset: 0x111C7, size: 0x8, addend: 0x0, symName: __ZNKSt3__112basic_stringIcNS_11char_traitsIcEENS_9allocatorIcEEE7__allocB7v160006Ev, symObjAddr: 0x31F0, symBinAddr: 0x100005770, symSize: 0x20 }
  - { offsetInCU: 0x111EC, offset: 0x111EC, size: 0x8, addend: 0x0, symName: __ZNSt3__114numeric_limitsImE3maxB7v160006Ev, symObjAddr: 0x3210, symBinAddr: 0x100005790, symSize: 0x10 }
  - { offsetInCU: 0x111FF, offset: 0x111FF, size: 0x8, addend: 0x0, symName: __ZNKSt3__19allocatorIcE8max_sizeB7v160006Ev, symObjAddr: 0x3220, symBinAddr: 0x1000057A0, symSize: 0x20 }
  - { offsetInCU: 0x11223, offset: 0x11223, size: 0x8, addend: 0x0, symName: __ZNKSt3__117__compressed_pairINS_12basic_stringIcNS_11char_traitsIcEENS_9allocatorIcEEE5__repES5_E6secondB7v160006Ev, symObjAddr: 0x3240, symBinAddr: 0x1000057C0, symSize: 0x20 }
  - { offsetInCU: 0x11247, offset: 0x11247, size: 0x8, addend: 0x0, symName: __ZNKSt3__122__compressed_pair_elemINS_9allocatorIcEELi1ELb1EE5__getB7v160006Ev, symObjAddr: 0x3260, symBinAddr: 0x1000057E0, symSize: 0x10 }
  - { offsetInCU: 0x1126C, offset: 0x1126C, size: 0x8, addend: 0x0, symName: __ZNSt3__123__libcpp_numeric_limitsImLb1EE3maxB7v160006Ev, symObjAddr: 0x3270, symBinAddr: 0x1000057F0, symSize: 0x10 }
  - { offsetInCU: 0x11280, offset: 0x11280, size: 0x8, addend: 0x0, symName: __ZNSt3__123__libcpp_numeric_limitsIlLb1EE3maxB7v160006Ev, symObjAddr: 0x3280, symBinAddr: 0x100005800, symSize: 0x10 }
  - { offsetInCU: 0x11294, offset: 0x11294, size: 0x8, addend: 0x0, symName: __ZNSt3__111char_traitsIcE11to_int_typeEc, symObjAddr: 0x3290, symBinAddr: 0x100005810, symSize: 0x10 }
  - { offsetInCU: 0x112B6, offset: 0x112B6, size: 0x8, addend: 0x0, symName: __Z7isasciii, symObjAddr: 0x32A0, symBinAddr: 0x100005820, symSize: 0x20 }
  - { offsetInCU: 0x112E3, offset: 0x112E3, size: 0x8, addend: 0x0, symName: __ZNKSt3__18ios_base10exceptionsB7v160006Ev, symObjAddr: 0x32C0, symBinAddr: 0x100005840, symSize: 0x20 }
  - { offsetInCU: 0x11309, offset: 0x11309, size: 0x8, addend: 0x0, symName: __ZNKSt3__112basic_stringIcNS_11char_traitsIcEENS_9allocatorIcEEE4sizeB7v160006Ev, symObjAddr: 0x32E0, symBinAddr: 0x100005860, symSize: 0x50 }
  - { offsetInCU: 0x1132E, offset: 0x1132E, size: 0x8, addend: 0x0, symName: __ZNSt3__116allocator_traitsINS_9allocatorIcEEE37select_on_container_copy_constructionB7v160006IS2_vvEES2_RKS2_, symObjAddr: 0x3330, symBinAddr: 0x1000058B0, symSize: 0x10 }
  - { offsetInCU: 0x1135C, offset: 0x1135C, size: 0x8, addend: 0x0, symName: __ZNKSt3__112basic_stringIcNS_11char_traitsIcEENS_9allocatorIcEEE13get_allocatorB7v160006Ev, symObjAddr: 0x3340, symBinAddr: 0x1000058C0, symSize: 0x20 }
  - { offsetInCU: 0x11381, offset: 0x11381, size: 0x8, addend: 0x0, symName: __ZNSt3__112basic_stringIcNS_11char_traitsIcEENS_9allocatorIcEEEC1B7v160006ENS_24__uninitialized_size_tagEmRKS4_, symObjAddr: 0x3360, symBinAddr: 0x1000058E0, symSize: 0x30 }
  - { offsetInCU: 0x113D3, offset: 0x113D3, size: 0x8, addend: 0x0, symName: __ZNSt3__112basic_stringIcNS_11char_traitsIcEENS_9allocatorIcEEE13__get_pointerB7v160006Ev, symObjAddr: 0x33A0, symBinAddr: 0x100005920, symSize: 0x50 }
  - { offsetInCU: 0x113F8, offset: 0x113F8, size: 0x8, addend: 0x0, symName: __ZNSt3__111char_traitsIcE4copyEPcPKcm, symObjAddr: 0x33F0, symBinAddr: 0x100005970, symSize: 0x70 }
  - { offsetInCU: 0x11437, offset: 0x11437, size: 0x8, addend: 0x0, symName: __ZNSt3__111char_traitsIcE6assignEPcmc, symObjAddr: 0x3460, symBinAddr: 0x1000059E0, symSize: 0x40 }
  - { offsetInCU: 0x11475, offset: 0x11475, size: 0x8, addend: 0x0, symName: __ZNKSt3__112basic_stringIcNS_11char_traitsIcEENS_9allocatorIcEEE15__get_long_sizeB7v160006Ev, symObjAddr: 0x34A0, symBinAddr: 0x100005A20, symSize: 0x20 }
  - { offsetInCU: 0x11499, offset: 0x11499, size: 0x8, addend: 0x0, symName: __ZNKSt3__112basic_stringIcNS_11char_traitsIcEENS_9allocatorIcEEE16__get_short_sizeB7v160006Ev, symObjAddr: 0x34C0, symBinAddr: 0x100005A40, symSize: 0x30 }
  - { offsetInCU: 0x114BE, offset: 0x114BE, size: 0x8, addend: 0x0, symName: __ZNSt3__112basic_stringIcNS_11char_traitsIcEENS_9allocatorIcEEEC2B7v160006ENS_24__uninitialized_size_tagEmRKS4_, symObjAddr: 0x34F0, symBinAddr: 0x100005A70, symSize: 0x120 }
  - { offsetInCU: 0x11540, offset: 0x11540, size: 0x8, addend: 0x0, symName: __ZNSt3__117__compressed_pairINS_12basic_stringIcNS_11char_traitsIcEENS_9allocatorIcEEE5__repES5_EC1B7v160006INS_18__default_init_tagERKS5_EEOT_OT0_, symObjAddr: 0x3610, symBinAddr: 0x100005B90, symSize: 0x30 }
  - { offsetInCU: 0x11596, offset: 0x11596, size: 0x8, addend: 0x0, symName: __ZNKSt3__112basic_stringIcNS_11char_traitsIcEENS_9allocatorIcEEE20__throw_length_errorB7v160006Ev, symObjAddr: 0x3640, symBinAddr: 0x100005BC0, symSize: 0x20 }
  - { offsetInCU: 0x115BB, offset: 0x115BB, size: 0x8, addend: 0x0, symName: __ZNSt3__112basic_stringIcNS_11char_traitsIcEENS_9allocatorIcEEE13__fits_in_ssoB7v160006Em, symObjAddr: 0x3660, symBinAddr: 0x100005BE0, symSize: 0x20 }
  - { offsetInCU: 0x115DF, offset: 0x115DF, size: 0x8, addend: 0x0, symName: __ZNSt3__112basic_stringIcNS_11char_traitsIcEENS_9allocatorIcEEE11__recommendB7v160006Em, symObjAddr: 0x3680, symBinAddr: 0x100005C00, symSize: 0x70 }
  - { offsetInCU: 0x11612, offset: 0x11612, size: 0x8, addend: 0x0, symName: __ZNSt3__116allocator_traitsINS_9allocatorIcEEE8allocateB7v160006ERS2_m, symObjAddr: 0x36F0, symBinAddr: 0x100005C70, symSize: 0x30 }
  - { offsetInCU: 0x11644, offset: 0x11644, size: 0x8, addend: 0x0, symName: __ZNSt3__112basic_stringIcNS_11char_traitsIcEENS_9allocatorIcEEE7__allocB7v160006Ev, symObjAddr: 0x3720, symBinAddr: 0x100005CA0, symSize: 0x20 }
  - { offsetInCU: 0x11669, offset: 0x11669, size: 0x8, addend: 0x0, symName: __ZNSt3__112basic_stringIcNS_11char_traitsIcEENS_9allocatorIcEEE16__begin_lifetimeB7v160006EPcm, symObjAddr: 0x3740, symBinAddr: 0x100005CC0, symSize: 0x10 }
  - { offsetInCU: 0x1169B, offset: 0x1169B, size: 0x8, addend: 0x0, symName: __ZNSt3__112basic_stringIcNS_11char_traitsIcEENS_9allocatorIcEEE14__set_long_capB7v160006Em, symObjAddr: 0x3750, symBinAddr: 0x100005CD0, symSize: 0x70 }
  - { offsetInCU: 0x116CE, offset: 0x116CE, size: 0x8, addend: 0x0, symName: __ZNSt3__112basic_stringIcNS_11char_traitsIcEENS_9allocatorIcEEE18__set_long_pointerB7v160006EPc, symObjAddr: 0x37C0, symBinAddr: 0x100005D40, symSize: 0x30 }
  - { offsetInCU: 0x11702, offset: 0x11702, size: 0x8, addend: 0x0, symName: __ZNSt3__117__compressed_pairINS_12basic_stringIcNS_11char_traitsIcEENS_9allocatorIcEEE5__repES5_EC2B7v160006INS_18__default_init_tagERKS5_EEOT_OT0_, symObjAddr: 0x37F0, symBinAddr: 0x100005D70, symSize: 0x40 }
  - { offsetInCU: 0x11759, offset: 0x11759, size: 0x8, addend: 0x0, symName: __ZNSt3__122__compressed_pair_elemINS_9allocatorIcEELi1ELb1EEC2B7v160006IRKS2_vEEOT_, symObjAddr: 0x3830, symBinAddr: 0x100005DB0, symSize: 0x10 }
  - { offsetInCU: 0x1179A, offset: 0x1179A, size: 0x8, addend: 0x0, symName: __ZNSt12length_errorC1B7v160006EPKc, symObjAddr: 0x38B0, symBinAddr: 0x100005E30, symSize: 0x30 }
  - { offsetInCU: 0x117D1, offset: 0x117D1, size: 0x8, addend: 0x0, symName: __ZNSt12length_errorC2B7v160006EPKc, symObjAddr: 0x38E0, symBinAddr: 0x100005E60, symSize: 0x40 }
  - { offsetInCU: 0x11808, offset: 0x11808, size: 0x8, addend: 0x0, symName: __ZNSt3__112basic_stringIcNS_11char_traitsIcEENS_9allocatorIcEEE10__align_itB7v160006ILm16EEEmm, symObjAddr: 0x3920, symBinAddr: 0x100005EA0, symSize: 0x20 }
  - { offsetInCU: 0x11835, offset: 0x11835, size: 0x8, addend: 0x0, symName: __ZNSt3__19allocatorIcE8allocateB7v160006Em, symObjAddr: 0x3940, symBinAddr: 0x100005EC0, symSize: 0x50 }
  - { offsetInCU: 0x11867, offset: 0x11867, size: 0x8, addend: 0x0, symName: __ZNSt3__117__compressed_pairINS_12basic_stringIcNS_11char_traitsIcEENS_9allocatorIcEEE5__repES5_E6secondB7v160006Ev, symObjAddr: 0x3A10, symBinAddr: 0x100005F90, symSize: 0x20 }
  - { offsetInCU: 0x1188B, offset: 0x1188B, size: 0x8, addend: 0x0, symName: __ZNSt3__122__compressed_pair_elemINS_9allocatorIcEELi1ELb1EE5__getB7v160006Ev, symObjAddr: 0x3A30, symBinAddr: 0x100005FB0, symSize: 0x10 }
  - { offsetInCU: 0x118D2, offset: 0x118D2, size: 0x8, addend: 0x0, symName: __ZNKSt3__114__copy_trivialclB7v160006IKccLi0EEENS_4pairIPT_PT0_EES5_S5_S7_, symObjAddr: 0x3C40, symBinAddr: 0x1000061C0, symSize: 0x40 }
  - { offsetInCU: 0x11957, offset: 0x11957, size: 0x8, addend: 0x0, symName: __ZNSt3__14pairIPKcS2_EC1B7v160006IS2_S2_LPv0EEEOT_OT0_, symObjAddr: 0x3D90, symBinAddr: 0x100006310, symSize: 0x30 }
  - { offsetInCU: 0x119B4, offset: 0x119B4, size: 0x8, addend: 0x0, symName: __ZNSt3__14pairIPKcS2_EC2B7v160006IS2_S2_LPv0EEEOT_OT0_, symObjAddr: 0x3DC0, symBinAddr: 0x100006340, symSize: 0x30 }
  - { offsetInCU: 0x11A11, offset: 0x11A11, size: 0x8, addend: 0x0, symName: __ZNSt3__118__unwrap_iter_implIPKcLb1EE8__unwrapB7v160006ES2_, symObjAddr: 0x3DF0, symBinAddr: 0x100006370, symSize: 0x20 }
  - { offsetInCU: 0x11A3E, offset: 0x11A3E, size: 0x8, addend: 0x0, symName: __ZNSt3__14pairIPKcPcEC1B7v160006IRS2_S3_LPv0EEEOT_OT0_, symObjAddr: 0x3EB0, symBinAddr: 0x100006430, symSize: 0x30 }
  - { offsetInCU: 0x11A9B, offset: 0x11A9B, size: 0x8, addend: 0x0, symName: __ZNSt3__14pairIPKcPcEC2B7v160006IRS2_S3_LPv0EEEOT_OT0_, symObjAddr: 0x3EE0, symBinAddr: 0x100006460, symSize: 0x30 }
  - { offsetInCU: 0x11AF8, offset: 0x11AF8, size: 0x8, addend: 0x0, symName: __ZNSt3__118__unwrap_iter_implIPcLb1EE8__unwrapB7v160006ES1_, symObjAddr: 0x3F10, symBinAddr: 0x100006490, symSize: 0x20 }
  - { offsetInCU: 0x11B1B, offset: 0x11B1B, size: 0x8, addend: 0x0, symName: __ZNSt3__14pairIPKcPcEC1B7v160006IS2_S3_LPv0EEEOT_OT0_, symObjAddr: 0x3F30, symBinAddr: 0x1000064B0, symSize: 0x30 }
  - { offsetInCU: 0x11B78, offset: 0x11B78, size: 0x8, addend: 0x0, symName: __ZNSt3__14pairIPKcPcEC2B7v160006IS2_S3_LPv0EEEOT_OT0_, symObjAddr: 0x3F60, symBinAddr: 0x1000064E0, symSize: 0x30 }
  - { offsetInCU: 0x11BD5, offset: 0x11BD5, size: 0x8, addend: 0x0, symName: __ZNSt3__118__unwrap_iter_implIPKcLb1EE8__rewrapB7v160006ES2_S2_, symObjAddr: 0x3FD0, symBinAddr: 0x100006550, symSize: 0x40 }
  - { offsetInCU: 0x11C06, offset: 0x11C06, size: 0x8, addend: 0x0, symName: __ZNSt3__118__unwrap_iter_implIPcLb1EE8__rewrapB7v160006ES1_S1_, symObjAddr: 0x4010, symBinAddr: 0x100006590, symSize: 0x40 }
  - { offsetInCU: 0x11C36, offset: 0x11C36, size: 0x8, addend: 0x0, symName: __ZNKSt3__19basic_iosIcNS_11char_traitsIcEEE4failB7v160006Ev, symObjAddr: 0x40F0, symBinAddr: 0x100006670, symSize: 0x20 }
  - { offsetInCU: 0x11C5B, offset: 0x11C5B, size: 0x8, addend: 0x0, symName: __ZNKSt3__18ios_base4failB7v160006Ev, symObjAddr: 0x4110, symBinAddr: 0x100006690, symSize: 0x20 }
  - { offsetInCU: 0x11C9F, offset: 0x11C9F, size: 0x8, addend: 0x0, symName: __ZNKSt3__16chrono10time_pointINS0_12steady_clockENS0_8durationIxNS_5ratioILl1ELl1000000000EEEEEE16time_since_epochB7v160006Ev, symObjAddr: 0x41A0, symBinAddr: 0x100006720, symSize: 0x20 }
  - { offsetInCU: 0x11CC4, offset: 0x11CC4, size: 0x8, addend: 0x0, symName: __ZNSt3__16chrono8durationIxNS_5ratioILl1ELl1000000000EEEEC1B7v160006IxEERKT_PNS_9enable_ifIXaasr14is_convertibleIS8_xEE5valueooL_ZNS_17integral_constantIbLb0EE5valueEEntsr23treat_as_floating_pointIS6_EE5valueEvE4typeE, symObjAddr: 0x41C0, symBinAddr: 0x100006740, symSize: 0x30 }
  - { offsetInCU: 0x11D10, offset: 0x11D10, size: 0x8, addend: 0x0, symName: __ZNSt3__16chrono8durationIxNS_5ratioILl1ELl1000000000EEEEC2B7v160006IxEERKT_PNS_9enable_ifIXaasr14is_convertibleIS8_xEE5valueooL_ZNS_17integral_constantIbLb0EE5valueEEntsr23treat_as_floating_pointIS6_EE5valueEvE4typeE, symObjAddr: 0x41F0, symBinAddr: 0x100006770, symSize: 0x20 }
  - { offsetInCU: 0x73FB, offset: 0x19264, size: 0x8, addend: 0x0, symName: __ZNSt3__17advanceB7v160006IP8PositionmmvEEvRT_T0_, symObjAddr: 0x6600, symBinAddr: 0x10000B5C0, symSize: 0x50 }
  - { offsetInCU: 0xB115, offset: 0x1CF7E, size: 0x8, addend: 0x0, symName: __ZNSt3__1neB7v160006IPNS_4pairI8PositioniEEEEbRKNS_11__wrap_iterIT_EES9_, symObjAddr: 0x640, symBinAddr: 0x100006D50, symSize: 0x30 }
  - { offsetInCU: 0xB158, offset: 0x1CFC1, size: 0x8, addend: 0x0, symName: __ZNSt3__1neB7v160006IPKiEEbRKNS_11__wrap_iterIT_EES7_, symObjAddr: 0xD60, symBinAddr: 0x100007470, symSize: 0x30 }
  - { offsetInCU: 0xB19B, offset: 0x1D004, size: 0x8, addend: 0x0, symName: __ZNSt3__119__debug_db_insert_cB7v160006INS_6vectorINS1_IiNS_9allocatorIiEEEENS2_IS4_EEEEEEvPT_, symObjAddr: 0x10F0, symBinAddr: 0x100007720, symSize: 0x10 }
  - { offsetInCU: 0xB1CC, offset: 0x1D035, size: 0x8, addend: 0x0, symName: __ZNSt3__119__debug_db_insert_cB7v160006INS_6vectorINS1_INS1_IiNS_9allocatorIiEEEENS2_IS4_EEEENS2_IS6_EEEEEEvPT_, symObjAddr: 0x1480, symBinAddr: 0x100007910, symSize: 0x10 }
  - { offsetInCU: 0xB1FD, offset: 0x1D066, size: 0x8, addend: 0x0, symName: __ZNSt3__119__debug_db_insert_cB7v160006INS_6vectorI8PositionNS_9allocatorIS2_EEEEEEvPT_, symObjAddr: 0x15D0, symBinAddr: 0x100007A60, symSize: 0x10 }
  - { offsetInCU: 0xB22E, offset: 0x1D097, size: 0x8, addend: 0x0, symName: __ZNSt3__125__debug_db_invalidate_allB7v160006INS_6vectorINS1_INS1_IiNS_9allocatorIiEEEENS2_IS4_EEEENS2_IS6_EEEEEEvPT_, symObjAddr: 0x2C90, symBinAddr: 0x100007DD0, symSize: 0x10 }
  - { offsetInCU: 0xB25F, offset: 0x1D0C8, size: 0x8, addend: 0x0, symName: __ZNSt3__125__debug_db_invalidate_allB7v160006INS_6vectorI8PositionNS_9allocatorIS2_EEEEEEvPT_, symObjAddr: 0x2D40, symBinAddr: 0x100007E80, symSize: 0x10 }
  - { offsetInCU: 0xB290, offset: 0x1D0F9, size: 0x8, addend: 0x0, symName: __ZNSt3__122__make_exception_guardB7v160006INS_6vectorINS1_IiNS_9allocatorIiEEEENS2_IS4_EEE16__destroy_vectorEEENS_28__exception_guard_exceptionsIT_EES9_, symObjAddr: 0x3540, symBinAddr: 0x100008680, symSize: 0x40 }
  - { offsetInCU: 0xB2C5, offset: 0x1D12E, size: 0x8, addend: 0x0, symName: __ZNSt3__119__allocate_at_leastB7v160006INS_9allocatorINS_6vectorIiNS1_IiEEEEEEEENS_19__allocation_resultINS_16allocator_traitsIT_E7pointerEEERS8_m, symObjAddr: 0x3840, symBinAddr: 0x100008980, symSize: 0x40 }
  - { offsetInCU: 0xB308, offset: 0x1D171, size: 0x8, addend: 0x0, symName: __ZNSt3__13minB7v160006ImEERKT_S3_S3_, symObjAddr: 0x3940, symBinAddr: 0x100008A80, symSize: 0x30 }
  - { offsetInCU: 0xB34B, offset: 0x1D1B4, size: 0x8, addend: 0x0, symName: __ZNSt3__13minB7v160006ImNS_6__lessImmEEEERKT_S5_S5_T0_, symObjAddr: 0x39A0, symBinAddr: 0x100008AD0, symSize: 0x50 }
  - { offsetInCU: 0xB3E0, offset: 0x1D249, size: 0x8, addend: 0x0, symName: __ZNSt3__130__uninitialized_allocator_copyB7v160006INS_9allocatorINS_6vectorIiNS1_IiEEEEEEPS4_S6_S6_EET2_RT_T0_T1_S7_, symObjAddr: 0x3C60, symBinAddr: 0x100008C20, symSize: 0x100 }
  - { offsetInCU: 0xB47E, offset: 0x1D2E7, size: 0x8, addend: 0x0, symName: __ZNSt3__122__make_exception_guardB7v160006INS_29_AllocatorDestroyRangeReverseINS_9allocatorINS_6vectorIiNS2_IiEEEEEEPS5_EEEENS_28__exception_guard_exceptionsIT_EESA_, symObjAddr: 0x3DC0, symBinAddr: 0x100008D80, symSize: 0x60 }
  - { offsetInCU: 0xB4B3, offset: 0x1D31C, size: 0x8, addend: 0x0, symName: __ZNSt3__122__make_exception_guardB7v160006INS_6vectorIiNS_9allocatorIiEEE16__destroy_vectorEEENS_28__exception_guard_exceptionsIT_EES7_, symObjAddr: 0x4150, symBinAddr: 0x100009110, symSize: 0x40 }
  - { offsetInCU: 0xB4E8, offset: 0x1D351, size: 0x8, addend: 0x0, symName: __ZNSt3__119__debug_db_insert_cB7v160006INS_6vectorIiNS_9allocatorIiEEEEEEvPT_, symObjAddr: 0x4190, symBinAddr: 0x100009150, symSize: 0x10 }
  - { offsetInCU: 0xB519, offset: 0x1D382, size: 0x8, addend: 0x0, symName: __ZNSt3__119__allocate_at_leastB7v160006INS_9allocatorIiEEEENS_19__allocation_resultINS_16allocator_traitsIT_E7pointerEEERS5_m, symObjAddr: 0x4480, symBinAddr: 0x100009440, symSize: 0x40 }
  - { offsetInCU: 0xB55C, offset: 0x1D3C5, size: 0x8, addend: 0x0, symName: __ZNSt3__130__uninitialized_allocator_copyB7v160006INS_9allocatorIiEEPiS3_S3_EET2_RT_T0_T1_S4_, symObjAddr: 0x4680, symBinAddr: 0x100009640, symSize: 0x100 }
  - { offsetInCU: 0xB5FA, offset: 0x1D463, size: 0x8, addend: 0x0, symName: __ZNSt3__122__make_exception_guardB7v160006INS_29_AllocatorDestroyRangeReverseINS_9allocatorIiEEPiEEEENS_28__exception_guard_exceptionsIT_EES7_, symObjAddr: 0x47E0, symBinAddr: 0x1000097A0, symSize: 0x60 }
  - { offsetInCU: 0xB62F, offset: 0x1D498, size: 0x8, addend: 0x0, symName: __ZNSt3__119__allocator_destroyB7v160006INS_9allocatorIiEENS_16reverse_iteratorIPiEES5_EEvRT_T0_T1_, symObjAddr: 0x4A60, symBinAddr: 0x100009A20, symSize: 0x70 }
  - { offsetInCU: 0xB692, offset: 0x1D4FB, size: 0x8, addend: 0x0, symName: __ZNSt3__1neB7v160006IPiS1_EEbRKNS_16reverse_iteratorIT_EERKNS2_IT0_EE, symObjAddr: 0x4B00, symBinAddr: 0x100009AC0, symSize: 0x40 }
  - { offsetInCU: 0xB6DE, offset: 0x1D547, size: 0x8, addend: 0x0, symName: __ZNSt3__112__to_addressB7v160006INS_16reverse_iteratorIPiEEvEENS_5decayIDTclsr19__to_address_helperIT_EE6__callclsr3stdE7declvalIRKS5_EEEEE4typeES7_, symObjAddr: 0x4B40, symBinAddr: 0x100009B00, symSize: 0x20 }
  - { offsetInCU: 0xB73D, offset: 0x1D5A6, size: 0x8, addend: 0x0, symName: __ZNSt3__119__allocator_destroyB7v160006INS_9allocatorINS_6vectorIiNS1_IiEEEEEENS_16reverse_iteratorIPS4_EES8_EEvRT_T0_T1_, symObjAddr: 0x4D60, symBinAddr: 0x100009D20, symSize: 0x70 }
  - { offsetInCU: 0xB7A0, offset: 0x1D609, size: 0x8, addend: 0x0, symName: __ZNSt3__1neB7v160006IPNS_6vectorIiNS_9allocatorIiEEEES5_EEbRKNS_16reverse_iteratorIT_EERKNS6_IT0_EE, symObjAddr: 0x4E00, symBinAddr: 0x100009DC0, symSize: 0x40 }
  - { offsetInCU: 0xB7EC, offset: 0x1D655, size: 0x8, addend: 0x0, symName: __ZNSt3__112__to_addressB7v160006INS_16reverse_iteratorIPNS_6vectorIiNS_9allocatorIiEEEEEEvEENS_5decayIDTclsr19__to_address_helperIT_EE6__callclsr3stdE7declvalIRKS9_EEEEE4typeESB_, symObjAddr: 0x4E40, symBinAddr: 0x100009E00, symSize: 0x20 }
  - { offsetInCU: 0xB84B, offset: 0x1D6B4, size: 0x8, addend: 0x0, symName: __ZNSt3__13maxB7v160006ImEERKT_S3_S3_, symObjAddr: 0x5060, symBinAddr: 0x10000A020, symSize: 0x30 }
  - { offsetInCU: 0xB88E, offset: 0x1D6F7, size: 0x8, addend: 0x0, symName: __ZNSt3__13maxB7v160006ImNS_6__lessImmEEEERKT_S5_S5_T0_, symObjAddr: 0x5120, symBinAddr: 0x10000A0E0, symSize: 0x50 }
  - { offsetInCU: 0xB8E8, offset: 0x1D751, size: 0x8, addend: 0x0, symName: __ZNSt3__119__allocate_at_leastB7v160006INS_9allocatorINS_6vectorINS2_IiNS1_IiEEEENS1_IS4_EEEEEEEENS_19__allocation_resultINS_16allocator_traitsIT_E7pointerEEERSA_m, symObjAddr: 0x5260, symBinAddr: 0x10000A220, symSize: 0x40 }
  - { offsetInCU: 0xB92B, offset: 0x1D794, size: 0x8, addend: 0x0, symName: __ZNSt3__142__uninitialized_allocator_move_if_noexceptB7v160006INS_9allocatorINS_6vectorINS2_IiNS1_IiEEEENS1_IS4_EEEEEENS_16reverse_iteratorIPS6_EESA_SA_EET2_RT_T0_T1_SB_, symObjAddr: 0x54A0, symBinAddr: 0x10000A460, symSize: 0x180 }
  - { offsetInCU: 0xB9CA, offset: 0x1D833, size: 0x8, addend: 0x0, symName: __ZNSt3__14swapB7v160006IPNS_6vectorINS1_IiNS_9allocatorIiEEEENS2_IS4_EEEEEENS_9enable_ifIXaasr21is_move_constructibleIT_EE5valuesr18is_move_assignableIS9_EE5valueEvE4typeERS9_SC_, symObjAddr: 0x5670, symBinAddr: 0x10000A630, symSize: 0x40 }
  - { offsetInCU: 0xBA1B, offset: 0x1D884, size: 0x8, addend: 0x0, symName: __ZNSt3__122__make_exception_guardB7v160006INS_29_AllocatorDestroyRangeReverseINS_9allocatorINS_6vectorINS3_IiNS2_IiEEEENS2_IS5_EEEEEENS_16reverse_iteratorIPS7_EEEEEENS_28__exception_guard_exceptionsIT_EESE_, symObjAddr: 0x5750, symBinAddr: 0x10000A710, symSize: 0x60 }
  - { offsetInCU: 0xBA50, offset: 0x1D8B9, size: 0x8, addend: 0x0, symName: __ZNSt3__1neB7v160006IPNS_6vectorINS1_IiNS_9allocatorIiEEEENS2_IS4_EEEES7_EEbRKNS_16reverse_iteratorIT_EERKNS8_IT0_EE, symObjAddr: 0x57F0, symBinAddr: 0x10000A7B0, symSize: 0x40 }
  - { offsetInCU: 0xBA9C, offset: 0x1D905, size: 0x8, addend: 0x0, symName: __ZNSt3__112__to_addressB7v160006INS_16reverse_iteratorIPNS_6vectorINS2_IiNS_9allocatorIiEEEENS3_IS5_EEEEEEvEENS_5decayIDTclsr19__to_address_helperIT_EE6__callclsr3stdE7declvalIRKSB_EEEEE4typeESD_, symObjAddr: 0x5860, symBinAddr: 0x10000A820, symSize: 0x20 }
  - { offsetInCU: 0xBAD2, offset: 0x1D93B, size: 0x8, addend: 0x0, symName: __ZNSt3__115__debug_db_swapB7v160006INS_6vectorINS1_IiNS_9allocatorIiEEEENS2_IS4_EEEEEEvPT_S8_, symObjAddr: 0x5B00, symBinAddr: 0x10000AAC0, symSize: 0x10 }
  - { offsetInCU: 0xBB3A, offset: 0x1D9A3, size: 0x8, addend: 0x0, symName: __ZNSt3__119__allocator_destroyB7v160006INS_9allocatorINS_6vectorINS2_IiNS1_IiEEEENS1_IS4_EEEEEENS_16reverse_iteratorINS8_IPS6_EEEESB_EEvRT_T0_T1_, symObjAddr: 0x5CA0, symBinAddr: 0x10000AC60, symSize: 0x70 }
  - { offsetInCU: 0xBB9D, offset: 0x1DA06, size: 0x8, addend: 0x0, symName: __ZNSt3__1neB7v160006INS_16reverse_iteratorIPNS_6vectorINS2_IiNS_9allocatorIiEEEENS3_IS5_EEEEEES9_EEbRKNS1_IT_EERKNS1_IT0_EE, symObjAddr: 0x5D40, symBinAddr: 0x10000AD00, symSize: 0x50 }
  - { offsetInCU: 0xBBE9, offset: 0x1DA52, size: 0x8, addend: 0x0, symName: __ZNSt3__112__to_addressB7v160006INS_16reverse_iteratorINS1_IPNS_6vectorINS2_IiNS_9allocatorIiEEEENS3_IS5_EEEEEEEEvEENS_5decayIDTclsr19__to_address_helperIT_EE6__callclsr3stdE7declvalIRKSC_EEEEE4typeESE_, symObjAddr: 0x5D90, symBinAddr: 0x10000AD50, symSize: 0x20 }
  - { offsetInCU: 0xBC48, offset: 0x1DAB1, size: 0x8, addend: 0x0, symName: __ZNSt3__18distanceB7v160006IP8PositionEENS_15iterator_traitsIT_E15difference_typeES4_S4_, symObjAddr: 0x65D0, symBinAddr: 0x10000B590, symSize: 0x30 }
  - { offsetInCU: 0xBC8B, offset: 0x1DAF4, size: 0x8, addend: 0x0, symName: __ZNSt3__14copyB7v160006IP8PositionS2_EET0_T_S4_S3_, symObjAddr: 0x6650, symBinAddr: 0x10000B610, symSize: 0x40 }
  - { offsetInCU: 0xBCE5, offset: 0x1DB4E, size: 0x8, addend: 0x0, symName: __ZNSt3__110__distanceB7v160006IP8PositionEENS_15iterator_traitsIT_E15difference_typeES4_S4_NS_26random_access_iterator_tagE, symObjAddr: 0x6940, symBinAddr: 0x10000B900, symSize: 0x20 }
  - { offsetInCU: 0xBD33, offset: 0x1DB9C, size: 0x8, addend: 0x0, symName: __ZNSt3__19__advanceB7v160006IP8PositionEEvRT_NS_15iterator_traitsIS3_E15difference_typeENS_26random_access_iterator_tagE, symObjAddr: 0x6970, symBinAddr: 0x10000B920, symSize: 0x20 }
  - { offsetInCU: 0xBD7D, offset: 0x1DBE6, size: 0x8, addend: 0x0, symName: __ZNSt3__16__copyB7v160006INS_17_ClassicAlgPolicyEP8PositionS3_S3_EENS_4pairIT0_T2_EES5_T1_S6_, symObjAddr: 0x6990, symBinAddr: 0x10000B940, symSize: 0x40 }
  - { offsetInCU: 0xBDE9, offset: 0x1DC52, size: 0x8, addend: 0x0, symName: __ZNSt3__123__dispatch_copy_or_moveB7v160006INS_17_ClassicAlgPolicyENS_11__copy_loopIS1_EENS_14__copy_trivialEP8PositionS6_S6_EENS_4pairIT2_T4_EES8_T3_S9_, symObjAddr: 0x69D0, symBinAddr: 0x10000B980, symSize: 0x40 }
  - { offsetInCU: 0xBE67, offset: 0x1DCD0, size: 0x8, addend: 0x0, symName: __ZNSt3__121__unwrap_and_dispatchB7v160006INS_10__overloadINS_11__copy_loopINS_17_ClassicAlgPolicyEEENS_14__copy_trivialEEEP8PositionS8_S8_Li0EEENS_4pairIT0_T2_EESA_T1_SB_, symObjAddr: 0x6A10, symBinAddr: 0x10000B9C0, symSize: 0xB0 }
  - { offsetInCU: 0xBEF6, offset: 0x1DD5F, size: 0x8, addend: 0x0, symName: __ZNSt3__114__unwrap_rangeB7v160006IP8PositionS2_EENS_4pairIT0_S4_EET_S6_, symObjAddr: 0x6AC0, symBinAddr: 0x10000BA70, symSize: 0x50 }
  - { offsetInCU: 0xC08B, offset: 0x1DEF4, size: 0x8, addend: 0x0, symName: __ZNSt3__113__unwrap_iterB7v160006IP8PositionNS_18__unwrap_iter_implIS2_Lb1EEELi0EEEDTclsrT0_8__unwrapclsr3stdE7declvalIT_EEEES6_, symObjAddr: 0x6B50, symBinAddr: 0x10000BB00, symSize: 0x20 }
  - { offsetInCU: 0xC0CF, offset: 0x1DF38, size: 0x8, addend: 0x0, symName: __ZNSt3__19make_pairB7v160006IP8PositionS2_EENS_4pairINS_18__unwrap_ref_decayIT_E4typeENS4_IT0_E4typeEEEOS5_OS8_, symObjAddr: 0x6B70, symBinAddr: 0x10000BB20, symSize: 0x30 }
  - { offsetInCU: 0xC11E, offset: 0x1DF87, size: 0x8, addend: 0x0, symName: __ZNSt3__114__rewrap_rangeB7v160006IP8PositionS2_EET_S3_T0_, symObjAddr: 0x6BA0, symBinAddr: 0x10000BB50, symSize: 0x30 }
  - { offsetInCU: 0xC16A, offset: 0x1DFD3, size: 0x8, addend: 0x0, symName: __ZNSt3__113__rewrap_iterB7v160006IP8PositionS2_NS_18__unwrap_iter_implIS2_Lb1EEEEET_S5_T0_, symObjAddr: 0x6BD0, symBinAddr: 0x10000BB80, symSize: 0x40 }
  - { offsetInCU: 0xC1BF, offset: 0x1E028, size: 0x8, addend: 0x0, symName: __ZNSt3__119__copy_trivial_implB7v160006I8PositionS1_EENS_4pairIPT_PT0_EES4_S4_S6_, symObjAddr: 0x6C10, symBinAddr: 0x10000BBC0, symSize: 0x70 }
  - { offsetInCU: 0xC227, offset: 0x1E090, size: 0x8, addend: 0x0, symName: __ZNSt3__19make_pairB7v160006IRP8PositionS2_EENS_4pairINS_18__unwrap_ref_decayIT_E4typeENS5_IT0_E4typeEEEOS6_OS9_, symObjAddr: 0x6C80, symBinAddr: 0x10000BC30, symSize: 0x30 }
  - { offsetInCU: 0xC2C9, offset: 0x1E132, size: 0x8, addend: 0x0, symName: __ZNSt3__130__uninitialized_allocator_copyB7v160006INS_9allocatorI8PositionEEPS2_S4_S4_EET2_RT_T0_T1_S5_, symObjAddr: 0x6E10, symBinAddr: 0x10000BDC0, symSize: 0x100 }
  - { offsetInCU: 0xC367, offset: 0x1E1D0, size: 0x8, addend: 0x0, symName: __ZNSt3__122__make_exception_guardB7v160006INS_29_AllocatorDestroyRangeReverseINS_9allocatorI8PositionEEPS3_EEEENS_28__exception_guard_exceptionsIT_EES8_, symObjAddr: 0x6F70, symBinAddr: 0x10000BF20, symSize: 0x60 }
  - { offsetInCU: 0xC39C, offset: 0x1E205, size: 0x8, addend: 0x0, symName: __ZNSt3__119__allocator_destroyB7v160006INS_9allocatorI8PositionEENS_16reverse_iteratorIPS2_EES6_EEvRT_T0_T1_, symObjAddr: 0x71F0, symBinAddr: 0x10000C1A0, symSize: 0x70 }
  - { offsetInCU: 0xC3FF, offset: 0x1E268, size: 0x8, addend: 0x0, symName: __ZNSt3__1neB7v160006IP8PositionS2_EEbRKNS_16reverse_iteratorIT_EERKNS3_IT0_EE, symObjAddr: 0x7290, symBinAddr: 0x10000C240, symSize: 0x40 }
  - { offsetInCU: 0xC44B, offset: 0x1E2B4, size: 0x8, addend: 0x0, symName: __ZNSt3__112__to_addressB7v160006INS_16reverse_iteratorIP8PositionEEvEENS_5decayIDTclsr19__to_address_helperIT_EE6__callclsr3stdE7declvalIRKS6_EEEEE4typeES8_, symObjAddr: 0x72D0, symBinAddr: 0x10000C280, symSize: 0x20 }
  - { offsetInCU: 0xC4AA, offset: 0x1E313, size: 0x8, addend: 0x0, symName: __ZNSt3__119__allocate_at_leastB7v160006INS_9allocatorI8PositionEEEENS_19__allocation_resultINS_16allocator_traitsIT_E7pointerEEERS6_m, symObjAddr: 0x74F0, symBinAddr: 0x10000C4A0, symSize: 0x40 }
  - { offsetInCU: 0xC4ED, offset: 0x1E356, size: 0x8, addend: 0x0, symName: __ZNSt3__1eqB7v160006IPNS_4pairI8PositioniEEEEbRKNS_11__wrap_iterIT_EES9_, symObjAddr: 0x7700, symBinAddr: 0x10000C6B0, symSize: 0x40 }
  - { offsetInCU: 0xC530, offset: 0x1E399, size: 0x8, addend: 0x0, symName: __ZNSt3__115__debug_db_swapB7v160006INS_12basic_stringIcNS_11char_traitsIcEENS_9allocatorIcEEEEEEvPT_S8_, symObjAddr: 0x7910, symBinAddr: 0x10000C890, symSize: 0x10 }
  - { offsetInCU: 0xC56F, offset: 0x1E3D8, size: 0x8, addend: 0x0, symName: __ZNSt3__1eqB7v160006IPKiEEbRKNS_11__wrap_iterIT_EES7_, symObjAddr: 0x7950, symBinAddr: 0x10000C8A0, symSize: 0x40 }
  - { offsetInCU: 0xC5B2, offset: 0x1E41B, size: 0x8, addend: 0x0, symName: __ZNSt3__125__debug_db_invalidate_allB7v160006INS_6vectorINS1_IiNS_9allocatorIiEEEENS2_IS4_EEEEEEvPT_, symObjAddr: 0x7C50, symBinAddr: 0x10000CBA0, symSize: 0x10 }
  - { offsetInCU: 0xC5E3, offset: 0x1E44C, size: 0x8, addend: 0x0, symName: __ZNSt3__118__debug_db_erase_cB7v160006INS_6vectorINS_4pairI8PositioniEENS_9allocatorIS4_EEEEEEvPT_, symObjAddr: 0x8AA0, symBinAddr: 0x10000CF80, symSize: 0x10 }
  - { offsetInCU: 0xC614, offset: 0x1E47D, size: 0x8, addend: 0x0, symName: __ZNSt3__112__to_addressB7v160006INS_4pairI8PositioniEEEEPT_S5_, symObjAddr: 0x8BD0, symBinAddr: 0x10000D0B0, symSize: 0x10 }
  - { offsetInCU: 0xC649, offset: 0x1E4B2, size: 0x8, addend: 0x0, symName: __ZNSt3__122__make_exception_guardB7v160006INS_6vectorI4GridNS_9allocatorIS2_EEE16__destroy_vectorEEENS_28__exception_guard_exceptionsIT_EES8_, symObjAddr: 0x8F40, symBinAddr: 0x10000D420, symSize: 0x40 }
  - { offsetInCU: 0xC67E, offset: 0x1E4E7, size: 0x8, addend: 0x0, symName: __ZNSt3__119__debug_db_insert_cB7v160006INS_6vectorI4GridNS_9allocatorIS2_EEEEEEvPT_, symObjAddr: 0x8FB0, symBinAddr: 0x10000D490, symSize: 0x10 }
  - { offsetInCU: 0xC6AF, offset: 0x1E518, size: 0x8, addend: 0x0, symName: __ZNSt3__119__allocate_at_leastB7v160006INS_9allocatorI4GridEEEENS_19__allocation_resultINS_16allocator_traitsIT_E7pointerEEERS6_m, symObjAddr: 0x9330, symBinAddr: 0x10000D810, symSize: 0x40 }
  - { offsetInCU: 0xC6F2, offset: 0x1E55B, size: 0x8, addend: 0x0, symName: __ZNSt3__112__to_addressB7v160006I4GridEEPT_S3_, symObjAddr: 0x9610, symBinAddr: 0x10000DAF0, symSize: 0x10 }
  - { offsetInCU: 0xC727, offset: 0x1E590, size: 0x8, addend: 0x0, symName: __ZNSt3__130__uninitialized_allocator_copyB7v160006INS_9allocatorI4GridEEPKS2_S5_PS2_EET2_RT_T0_T1_S7_, symObjAddr: 0x96A0, symBinAddr: 0x10000DB80, symSize: 0x100 }
  - { offsetInCU: 0xC7C5, offset: 0x1E62E, size: 0x8, addend: 0x0, symName: __ZNSt3__122__make_exception_guardB7v160006INS_29_AllocatorDestroyRangeReverseINS_9allocatorI4GridEEPS3_EEEENS_28__exception_guard_exceptionsIT_EES8_, symObjAddr: 0x9800, symBinAddr: 0x10000DCE0, symSize: 0x60 }
  - { offsetInCU: 0xC7FA, offset: 0x1E663, size: 0x8, addend: 0x0, symName: __ZNSt3__119__allocator_destroyB7v160006INS_9allocatorI4GridEENS_16reverse_iteratorIPS2_EES6_EEvRT_T0_T1_, symObjAddr: 0x9A90, symBinAddr: 0x10000DF70, symSize: 0x70 }
  - { offsetInCU: 0xC85D, offset: 0x1E6C6, size: 0x8, addend: 0x0, symName: __ZNSt3__1neB7v160006IP4GridS2_EEbRKNS_16reverse_iteratorIT_EERKNS3_IT0_EE, symObjAddr: 0x9B30, symBinAddr: 0x10000E010, symSize: 0x40 }
  - { offsetInCU: 0xC8A9, offset: 0x1E712, size: 0x8, addend: 0x0, symName: __ZNSt3__112__to_addressB7v160006INS_16reverse_iteratorIP4GridEEvEENS_5decayIDTclsr19__to_address_helperIT_EE6__callclsr3stdE7declvalIRKS6_EEEEE4typeES8_, symObjAddr: 0x9BA0, symBinAddr: 0x10000E080, symSize: 0x20 }
  - { offsetInCU: 0xC908, offset: 0x1E771, size: 0x8, addend: 0x0, symName: __ZNSt3__118__debug_db_erase_cB7v160006INS_6vectorI4GridNS_9allocatorIS2_EEEEEEvPT_, symObjAddr: 0x9E80, symBinAddr: 0x10000E360, symSize: 0x10 }
  - { offsetInCU: 0xC939, offset: 0x1E7A2, size: 0x8, addend: 0x0, symName: __ZNSt3__142__uninitialized_allocator_move_if_noexceptB7v160006INS_9allocatorI4GridEENS_16reverse_iteratorIPS2_EES6_S6_EET2_RT_T0_T1_S7_, symObjAddr: 0xA780, symBinAddr: 0x10000EC60, symSize: 0x170 }
  - { offsetInCU: 0xC9D8, offset: 0x1E841, size: 0x8, addend: 0x0, symName: __ZNSt3__14swapB7v160006IP4GridEENS_9enable_ifIXaasr21is_move_constructibleIT_EE5valuesr18is_move_assignableIS4_EE5valueEvE4typeERS4_S7_, symObjAddr: 0xA8F0, symBinAddr: 0x10000EDD0, symSize: 0x40 }
  - { offsetInCU: 0xCA29, offset: 0x1E892, size: 0x8, addend: 0x0, symName: __ZNSt3__125__debug_db_invalidate_allB7v160006INS_6vectorI4GridNS_9allocatorIS2_EEEEEEvPT_, symObjAddr: 0xA930, symBinAddr: 0x10000EE10, symSize: 0x10 }
  - { offsetInCU: 0xCA5A, offset: 0x1E8C3, size: 0x8, addend: 0x0, symName: __ZNSt3__122__make_exception_guardB7v160006INS_29_AllocatorDestroyRangeReverseINS_9allocatorI4GridEENS_16reverse_iteratorIPS3_EEEEEENS_28__exception_guard_exceptionsIT_EESA_, symObjAddr: 0xA940, symBinAddr: 0x10000EE20, symSize: 0x60 }
  - { offsetInCU: 0xCA8F, offset: 0x1E8F8, size: 0x8, addend: 0x0, symName: __ZNSt3__119__allocator_destroyB7v160006INS_9allocatorI4GridEENS_16reverse_iteratorINS4_IPS2_EEEES7_EEvRT_T0_T1_, symObjAddr: 0xAC00, symBinAddr: 0x10000F0E0, symSize: 0x70 }
  - { offsetInCU: 0xCAF2, offset: 0x1E95B, size: 0x8, addend: 0x0, symName: __ZNSt3__1neB7v160006INS_16reverse_iteratorIP4GridEES4_EEbRKNS1_IT_EERKNS1_IT0_EE, symObjAddr: 0xACA0, symBinAddr: 0x10000F180, symSize: 0x50 }
  - { offsetInCU: 0xCB3E, offset: 0x1E9A7, size: 0x8, addend: 0x0, symName: __ZNSt3__112__to_addressB7v160006INS_16reverse_iteratorINS1_IP4GridEEEEvEENS_5decayIDTclsr19__to_address_helperIT_EE6__callclsr3stdE7declvalIRKS7_EEEEE4typeES9_, symObjAddr: 0xACF0, symBinAddr: 0x10000F1D0, symSize: 0x20 }
  - { offsetInCU: 0xD39B, offset: 0x1F204, size: 0x8, addend: 0x0, symName: __ZNSt3__16vectorINS0_INS0_IiNS_9allocatorIiEEEENS1_IS3_EEEENS1_IS5_EEE26__swap_out_circular_bufferERNS_14__split_bufferIS5_RS6_EE, symObjAddr: 0x3130, symBinAddr: 0x100008270, symSize: 0x130 }
  - { offsetInCU: 0xD97C, offset: 0x1F7E5, size: 0x8, addend: 0x0, symName: __ZNSt3__16vectorI4GridNS_9allocatorIS1_EEE26__swap_out_circular_bufferERNS_14__split_bufferIS1_RS3_EE, symObjAddr: 0xA440, symBinAddr: 0x10000E920, symSize: 0x130 }
  - { offsetInCU: 0xFA52, offset: 0x218BB, size: 0x8, addend: 0x0, symName: __ZN4GameC2ENSt3__112basic_stringIcNS0_11char_traitsIcEENS0_9allocatorIcEEEE, symObjAddr: 0x0, symBinAddr: 0x100006790, symSize: 0xE0 }
  - { offsetInCU: 0xFA8C, offset: 0x218F5, size: 0x8, addend: 0x0, symName: __ZN4GridC1Ev, symObjAddr: 0xE0, symBinAddr: 0x100006870, symSize: 0x20 }
  - { offsetInCU: 0xFAB5, offset: 0x2191E, size: 0x8, addend: 0x0, symName: __ZN12PossibleGridC1Ev, symObjAddr: 0x100, symBinAddr: 0x100006890, symSize: 0x20 }
  - { offsetInCU: 0xFADE, offset: 0x21947, size: 0x8, addend: 0x0, symName: __ZN4GameC1ENSt3__112basic_stringIcNS0_11char_traitsIcEENS0_9allocatorIcEEEE, symObjAddr: 0x160, symBinAddr: 0x1000068B0, symSize: 0x20 }
  - { offsetInCU: 0xFB18, offset: 0x21981, size: 0x8, addend: 0x0, symName: __ZN4Game13evaluateBoardEv, symObjAddr: 0x180, symBinAddr: 0x1000068D0, symSize: 0x260 }
  - { offsetInCU: 0xFC0F, offset: 0x21A78, size: 0x8, addend: 0x0, symName: __ZN12PossibleGrid7setGridEP4Grid, symObjAddr: 0x3E0, symBinAddr: 0x100006B30, symSize: 0x120 }
  - { offsetInCU: 0xFC41, offset: 0x21AAA, size: 0x8, addend: 0x0, symName: __ZNK12PossibleGrid20getUnsolvedPositionsEv, symObjAddr: 0x500, symBinAddr: 0x100006C50, symSize: 0x20 }
  - { offsetInCU: 0xFC64, offset: 0x21ACD, size: 0x8, addend: 0x0, symName: __ZNKSt3__16vectorI8PositionNS_9allocatorIS1_EEEixB7v160006Em, symObjAddr: 0x540, symBinAddr: 0x100006C70, symSize: 0x20 }
  - { offsetInCU: 0xFC9B, offset: 0x21B04, size: 0x8, addend: 0x0, symName: __ZNK12PossibleGrid19getPossibleValuesAtEii, symObjAddr: 0x560, symBinAddr: 0x100006C90, symSize: 0x40 }
  - { offsetInCU: 0xFCDB, offset: 0x21B44, size: 0x8, addend: 0x0, symName: __ZNKSt3__16vectorIiNS_9allocatorIiEEE5frontB7v160006Ev, symObjAddr: 0x5C0, symBinAddr: 0x100006CD0, symSize: 0x20 }
  - { offsetInCU: 0xFCFE, offset: 0x21B67, size: 0x8, addend: 0x0, symName: __ZNSt3__16vectorINS_4pairI8PositioniEENS_9allocatorIS3_EEE5beginB7v160006Ev, symObjAddr: 0x5E0, symBinAddr: 0x100006CF0, symSize: 0x30 }
  - { offsetInCU: 0xFD25, offset: 0x21B8E, size: 0x8, addend: 0x0, symName: __ZNSt3__16vectorINS_4pairI8PositioniEENS_9allocatorIS3_EEE3endB7v160006Ev, symObjAddr: 0x610, symBinAddr: 0x100006D20, symSize: 0x30 }
  - { offsetInCU: 0xFD4D, offset: 0x21BB6, size: 0x8, addend: 0x0, symName: __ZNKSt3__111__wrap_iterIPNS_4pairI8PositioniEEEdeB7v160006Ev, symObjAddr: 0x670, symBinAddr: 0x100006D80, symSize: 0x20 }
  - { offsetInCU: 0xFD71, offset: 0x21BDA, size: 0x8, addend: 0x0, symName: __ZNSt3__111__wrap_iterIPNS_4pairI8PositioniEEEppB7v160006Ev, symObjAddr: 0x690, symBinAddr: 0x100006DA0, symSize: 0x20 }
  - { offsetInCU: 0xFD95, offset: 0x21BFE, size: 0x8, addend: 0x0, symName: __ZNSt3__16vectorINS_4pairI8PositioniEENS_9allocatorIS3_EEED1B7v160006Ev, symObjAddr: 0x6B0, symBinAddr: 0x100006DC0, symSize: 0x20 }
  - { offsetInCU: 0xFDBE, offset: 0x21C27, size: 0x8, addend: 0x0, symName: __ZN4Game16depthFirstSearchEv, symObjAddr: 0x6D0, symBinAddr: 0x100006DE0, symSize: 0x510 }
  - { offsetInCU: 0xFE97, offset: 0x21D00, size: 0x8, addend: 0x0, symName: __ZN4GridC1ERKS_, symObjAddr: 0xBE0, symBinAddr: 0x1000072F0, symSize: 0x30 }
  - { offsetInCU: 0xFECB, offset: 0x21D34, size: 0x8, addend: 0x0, symName: __ZNSt3__16vectorI4GridNS_9allocatorIS1_EEEC1B7v160006ESt16initializer_listIS1_E, symObjAddr: 0xC10, symBinAddr: 0x100007320, symSize: 0x30 }
  - { offsetInCU: 0xFF05, offset: 0x21D6E, size: 0x8, addend: 0x0, symName: __ZNKSt3__16vectorI4GridNS_9allocatorIS1_EEE5emptyB7v160006Ev, symObjAddr: 0xC40, symBinAddr: 0x100007350, symSize: 0x20 }
  - { offsetInCU: 0xFF29, offset: 0x21D92, size: 0x8, addend: 0x0, symName: __ZNSt3__16vectorI4GridNS_9allocatorIS1_EEE4backB7v160006Ev, symObjAddr: 0xC60, symBinAddr: 0x100007370, symSize: 0x20 }
  - { offsetInCU: 0xFF52, offset: 0x21DBB, size: 0x8, addend: 0x0, symName: __ZN4GridC1EOS_, symObjAddr: 0xC80, symBinAddr: 0x100007390, symSize: 0x30 }
  - { offsetInCU: 0xFF85, offset: 0x21DEE, size: 0x8, addend: 0x0, symName: __ZNSt3__16vectorI4GridNS_9allocatorIS1_EEE8pop_backEv, symObjAddr: 0xCB0, symBinAddr: 0x1000073C0, symSize: 0x30 }
  - { offsetInCU: 0xFFAD, offset: 0x21E16, size: 0x8, addend: 0x0, symName: __ZNKSt3__16vectorI8PositionNS_9allocatorIS1_EEE5frontB7v160006Ev, symObjAddr: 0xCE0, symBinAddr: 0x1000073F0, symSize: 0x20 }
  - { offsetInCU: 0xFFD0, offset: 0x21E39, size: 0x8, addend: 0x0, symName: __ZNKSt3__16vectorIiNS_9allocatorIiEEE5beginB7v160006Ev, symObjAddr: 0xD00, symBinAddr: 0x100007410, symSize: 0x30 }
  - { offsetInCU: 0xFFF7, offset: 0x21E60, size: 0x8, addend: 0x0, symName: __ZNKSt3__16vectorIiNS_9allocatorIiEEE3endB7v160006Ev, symObjAddr: 0xD30, symBinAddr: 0x100007440, symSize: 0x30 }
  - { offsetInCU: 0x1001F, offset: 0x21E88, size: 0x8, addend: 0x0, symName: __ZNKSt3__111__wrap_iterIPKiEdeB7v160006Ev, symObjAddr: 0xD90, symBinAddr: 0x1000074A0, symSize: 0x20 }
  - { offsetInCU: 0x10042, offset: 0x21EAB, size: 0x8, addend: 0x0, symName: __ZNSt3__16vectorI4GridNS_9allocatorIS1_EEE9push_backB7v160006EOS1_, symObjAddr: 0xDB0, symBinAddr: 0x1000074C0, symSize: 0x60 }
  - { offsetInCU: 0x10079, offset: 0x21EE2, size: 0x8, addend: 0x0, symName: __ZNSt3__111__wrap_iterIPKiEppB7v160006Ev, symObjAddr: 0xE10, symBinAddr: 0x100007520, symSize: 0x20 }
  - { offsetInCU: 0x1009D, offset: 0x21F06, size: 0x8, addend: 0x0, symName: __ZN4GridaSEOS_, symObjAddr: 0xE30, symBinAddr: 0x100007540, symSize: 0x60 }
  - { offsetInCU: 0x100CD, offset: 0x21F36, size: 0x8, addend: 0x0, symName: __ZNSt3__16vectorI4GridNS_9allocatorIS1_EEED1B7v160006Ev, symObjAddr: 0xE90, symBinAddr: 0x1000075A0, symSize: 0x20 }
  - { offsetInCU: 0x100F6, offset: 0x21F5F, size: 0x8, addend: 0x0, symName: __ZNK4Game11printResultEv, symObjAddr: 0xEB0, symBinAddr: 0x1000075C0, symSize: 0x70 }
  - { offsetInCU: 0x1011D, offset: 0x21F86, size: 0x8, addend: 0x0, symName: __ZN4GridC2Ev, symObjAddr: 0xFD0, symBinAddr: 0x100007630, symSize: 0x40 }
  - { offsetInCU: 0x10146, offset: 0x21FAF, size: 0x8, addend: 0x0, symName: __ZNSt3__16vectorINS0_IiNS_9allocatorIiEEEENS1_IS3_EEEC1B7v160006Ev, symObjAddr: 0x1010, symBinAddr: 0x100007670, symSize: 0x20 }
  - { offsetInCU: 0x1016F, offset: 0x21FD8, size: 0x8, addend: 0x0, symName: __ZNSt3__16vectorINS0_IiNS_9allocatorIiEEEENS1_IS3_EEEC2B7v160006Ev, symObjAddr: 0x1050, symBinAddr: 0x100007690, symSize: 0x60 }
  - { offsetInCU: 0x101A2, offset: 0x2200B, size: 0x8, addend: 0x0, symName: __ZNSt3__117__compressed_pairIPNS_6vectorIiNS_9allocatorIiEEEENS2_IS4_EEEC1B7v160006IDnNS_18__default_init_tagEEEOT_OT0_, symObjAddr: 0x10B0, symBinAddr: 0x1000076F0, symSize: 0x30 }
  - { offsetInCU: 0x101F9, offset: 0x22062, size: 0x8, addend: 0x0, symName: __ZNSt3__117__compressed_pairIPNS_6vectorIiNS_9allocatorIiEEEENS2_IS4_EEEC2B7v160006IDnNS_18__default_init_tagEEEOT_OT0_, symObjAddr: 0x1100, symBinAddr: 0x100007730, symSize: 0x40 }
  - { offsetInCU: 0x10250, offset: 0x220B9, size: 0x8, addend: 0x0, symName: __ZNSt3__122__compressed_pair_elemIPNS_6vectorIiNS_9allocatorIiEEEELi0ELb0EEC2B7v160006IDnvEEOT_, symObjAddr: 0x1140, symBinAddr: 0x100007770, symSize: 0x20 }
  - { offsetInCU: 0x10291, offset: 0x220FA, size: 0x8, addend: 0x0, symName: __ZNSt3__122__compressed_pair_elemINS_9allocatorINS_6vectorIiNS1_IiEEEEEELi1ELb1EEC2B7v160006ENS_18__default_init_tagE, symObjAddr: 0x1160, symBinAddr: 0x100007790, symSize: 0x20 }
  - { offsetInCU: 0x102C5, offset: 0x2212E, size: 0x8, addend: 0x0, symName: __ZNSt3__19allocatorINS_6vectorIiNS0_IiEEEEEC2B7v160006Ev, symObjAddr: 0x1180, symBinAddr: 0x1000077B0, symSize: 0x20 }
  - { offsetInCU: 0x102EE, offset: 0x22157, size: 0x8, addend: 0x0, symName: __ZNSt3__116__non_trivial_ifILb1ENS_9allocatorINS_6vectorIiNS1_IiEEEEEEEC2B7v160006Ev, symObjAddr: 0x11A0, symBinAddr: 0x1000077D0, symSize: 0x10 }
  - { offsetInCU: 0x10317, offset: 0x22180, size: 0x8, addend: 0x0, symName: __ZN12PossibleGridC2Ev, symObjAddr: 0x1350, symBinAddr: 0x1000077E0, symSize: 0x60 }
  - { offsetInCU: 0x10340, offset: 0x221A9, size: 0x8, addend: 0x0, symName: __ZNSt3__16vectorINS0_INS0_IiNS_9allocatorIiEEEENS1_IS3_EEEENS1_IS5_EEEC1B7v160006Ev, symObjAddr: 0x13B0, symBinAddr: 0x100007840, symSize: 0x20 }
  - { offsetInCU: 0x10369, offset: 0x221D2, size: 0x8, addend: 0x0, symName: __ZNSt3__16vectorI8PositionNS_9allocatorIS1_EEEC1B7v160006Ev, symObjAddr: 0x13D0, symBinAddr: 0x100007860, symSize: 0x20 }
  - { offsetInCU: 0x10392, offset: 0x221FB, size: 0x8, addend: 0x0, symName: __ZNSt3__16vectorINS0_INS0_IiNS_9allocatorIiEEEENS1_IS3_EEEENS1_IS5_EEEC2B7v160006Ev, symObjAddr: 0x13F0, symBinAddr: 0x100007880, symSize: 0x60 }
  - { offsetInCU: 0x103BB, offset: 0x22224, size: 0x8, addend: 0x0, symName: __ZNSt3__117__compressed_pairIPNS_6vectorINS1_IiNS_9allocatorIiEEEENS2_IS4_EEEENS2_IS6_EEEC1B7v160006IDnNS_18__default_init_tagEEEOT_OT0_, symObjAddr: 0x1450, symBinAddr: 0x1000078E0, symSize: 0x30 }
  - { offsetInCU: 0x10412, offset: 0x2227B, size: 0x8, addend: 0x0, symName: __ZNSt3__117__compressed_pairIPNS_6vectorINS1_IiNS_9allocatorIiEEEENS2_IS4_EEEENS2_IS6_EEEC2B7v160006IDnNS_18__default_init_tagEEEOT_OT0_, symObjAddr: 0x1490, symBinAddr: 0x100007920, symSize: 0x40 }
  - { offsetInCU: 0x10469, offset: 0x222D2, size: 0x8, addend: 0x0, symName: __ZNSt3__122__compressed_pair_elemIPNS_6vectorINS1_IiNS_9allocatorIiEEEENS2_IS4_EEEELi0ELb0EEC2B7v160006IDnvEEOT_, symObjAddr: 0x14D0, symBinAddr: 0x100007960, symSize: 0x20 }
  - { offsetInCU: 0x104AA, offset: 0x22313, size: 0x8, addend: 0x0, symName: __ZNSt3__122__compressed_pair_elemINS_9allocatorINS_6vectorINS2_IiNS1_IiEEEENS1_IS4_EEEEEELi1ELb1EEC2B7v160006ENS_18__default_init_tagE, symObjAddr: 0x14F0, symBinAddr: 0x100007980, symSize: 0x20 }
  - { offsetInCU: 0x104DE, offset: 0x22347, size: 0x8, addend: 0x0, symName: __ZNSt3__19allocatorINS_6vectorINS1_IiNS0_IiEEEENS0_IS3_EEEEEC2B7v160006Ev, symObjAddr: 0x1510, symBinAddr: 0x1000079A0, symSize: 0x20 }
  - { offsetInCU: 0x10507, offset: 0x22370, size: 0x8, addend: 0x0, symName: __ZNSt3__116__non_trivial_ifILb1ENS_9allocatorINS_6vectorINS2_IiNS1_IiEEEENS1_IS4_EEEEEEEC2B7v160006Ev, symObjAddr: 0x1530, symBinAddr: 0x1000079C0, symSize: 0x10 }
  - { offsetInCU: 0x10530, offset: 0x22399, size: 0x8, addend: 0x0, symName: __ZNSt3__16vectorI8PositionNS_9allocatorIS1_EEEC2B7v160006Ev, symObjAddr: 0x1540, symBinAddr: 0x1000079D0, symSize: 0x60 }
  - { offsetInCU: 0x10559, offset: 0x223C2, size: 0x8, addend: 0x0, symName: __ZNSt3__117__compressed_pairIP8PositionNS_9allocatorIS1_EEEC1B7v160006IDnNS_18__default_init_tagEEEOT_OT0_, symObjAddr: 0x15A0, symBinAddr: 0x100007A30, symSize: 0x30 }
  - { offsetInCU: 0x105B0, offset: 0x22419, size: 0x8, addend: 0x0, symName: __ZNSt3__117__compressed_pairIP8PositionNS_9allocatorIS1_EEEC2B7v160006IDnNS_18__default_init_tagEEEOT_OT0_, symObjAddr: 0x15E0, symBinAddr: 0x100007A70, symSize: 0x40 }
  - { offsetInCU: 0x10607, offset: 0x22470, size: 0x8, addend: 0x0, symName: __ZNSt3__122__compressed_pair_elemIP8PositionLi0ELb0EEC2B7v160006IDnvEEOT_, symObjAddr: 0x1620, symBinAddr: 0x100007AB0, symSize: 0x20 }
  - { offsetInCU: 0x10648, offset: 0x224B1, size: 0x8, addend: 0x0, symName: __ZNSt3__122__compressed_pair_elemINS_9allocatorI8PositionEELi1ELb1EEC2B7v160006ENS_18__default_init_tagE, symObjAddr: 0x1640, symBinAddr: 0x100007AD0, symSize: 0x20 }
  - { offsetInCU: 0x1067C, offset: 0x224E5, size: 0x8, addend: 0x0, symName: __ZNSt3__19allocatorI8PositionEC2B7v160006Ev, symObjAddr: 0x1660, symBinAddr: 0x100007AF0, symSize: 0x20 }
  - { offsetInCU: 0x106A5, offset: 0x2250E, size: 0x8, addend: 0x0, symName: __ZNSt3__116__non_trivial_ifILb1ENS_9allocatorI8PositionEEEC2B7v160006Ev, symObjAddr: 0x1680, symBinAddr: 0x100007B10, symSize: 0x10 }
  - { offsetInCU: 0x106CE, offset: 0x22537, size: 0x8, addend: 0x0, symName: __ZN4Grid11getGridSizeEv, symObjAddr: 0x29E0, symBinAddr: 0x100007B20, symSize: 0x10 }
  - { offsetInCU: 0x106F2, offset: 0x2255B, size: 0x8, addend: 0x0, symName: __ZN4Grid14getSectionSizeEv, symObjAddr: 0x29F0, symBinAddr: 0x100007B30, symSize: 0x20 }
  - { offsetInCU: 0x10716, offset: 0x2257F, size: 0x8, addend: 0x0, symName: __ZN12PossibleGrid5clearEv, symObjAddr: 0x2A10, symBinAddr: 0x100007B50, symSize: 0x30 }
  - { offsetInCU: 0x10739, offset: 0x225A2, size: 0x8, addend: 0x0, symName: __ZNSt3__16vectorINS0_INS0_IiNS_9allocatorIiEEEENS1_IS3_EEEENS1_IS5_EEE6resizeEmRKS5_, symObjAddr: 0x2A40, symBinAddr: 0x100007B80, symSize: 0x80 }
  - { offsetInCU: 0x1078E, offset: 0x225F7, size: 0x8, addend: 0x0, symName: __ZNSt3__16vectorINS0_IiNS_9allocatorIiEEEENS1_IS3_EEEC1Em, symObjAddr: 0x2AC0, symBinAddr: 0x100007C00, symSize: 0x30 }
  - { offsetInCU: 0x107C7, offset: 0x22630, size: 0x8, addend: 0x0, symName: __ZNSt3__16vectorI8PositionNS_9allocatorIS1_EEEaSB7v160006ERKS4_, symObjAddr: 0x2AF0, symBinAddr: 0x100007C30, symSize: 0x60 }
  - { offsetInCU: 0x107FE, offset: 0x22667, size: 0x8, addend: 0x0, symName: __ZNSt3__16vectorINS0_INS0_IiNS_9allocatorIiEEEENS1_IS3_EEEENS1_IS5_EEE5clearB7v160006Ev, symObjAddr: 0x2B50, symBinAddr: 0x100007C90, symSize: 0x50 }
  - { offsetInCU: 0x10831, offset: 0x2269A, size: 0x8, addend: 0x0, symName: __ZNSt3__16vectorI8PositionNS_9allocatorIS1_EEE5clearB7v160006Ev, symObjAddr: 0x2BA0, symBinAddr: 0x100007CE0, symSize: 0x50 }
  - { offsetInCU: 0x10864, offset: 0x226CD, size: 0x8, addend: 0x0, symName: __ZNKSt3__16vectorINS0_INS0_IiNS_9allocatorIiEEEENS1_IS3_EEEENS1_IS5_EEE17__annotate_shrinkB7v160006Em, symObjAddr: 0x2BF0, symBinAddr: 0x100007D30, symSize: 0xA0 }
  - { offsetInCU: 0x10897, offset: 0x22700, size: 0x8, addend: 0x0, symName: __ZNKSt3__16vectorI8PositionNS_9allocatorIS1_EEE17__annotate_shrinkB7v160006Em, symObjAddr: 0x2CA0, symBinAddr: 0x100007DE0, symSize: 0xA0 }
  - { offsetInCU: 0x108C9, offset: 0x22732, size: 0x8, addend: 0x0, symName: __ZNSt3__16vectorINS0_INS0_IiNS_9allocatorIiEEEENS1_IS3_EEEENS1_IS5_EEE8__appendEmRKS5_, symObjAddr: 0x2D50, symBinAddr: 0x100007E90, symSize: 0x110 }
  - { offsetInCU: 0x10934, offset: 0x2279D, size: 0x8, addend: 0x0, symName: __ZNSt3__16vectorINS0_INS0_IiNS_9allocatorIiEEEENS1_IS3_EEEENS1_IS5_EEE17__destruct_at_endB7v160006EPS5_, symObjAddr: 0x2E60, symBinAddr: 0x100007FA0, symSize: 0x60 }
  - { offsetInCU: 0x10976, offset: 0x227DF, size: 0x8, addend: 0x0, symName: __ZNSt3__16vectorINS0_INS0_IiNS_9allocatorIiEEEENS1_IS3_EEEENS1_IS5_EEE9__end_capB7v160006Ev, symObjAddr: 0x2EC0, symBinAddr: 0x100008000, symSize: 0x20 }
  - { offsetInCU: 0x10999, offset: 0x22802, size: 0x8, addend: 0x0, symName: __ZNSt3__16vectorINS0_INS0_IiNS_9allocatorIiEEEENS1_IS3_EEEENS1_IS5_EEE18__construct_at_endEmRKS5_, symObjAddr: 0x2EE0, symBinAddr: 0x100008020, symSize: 0xC0 }
  - { offsetInCU: 0x10A1A, offset: 0x22883, size: 0x8, addend: 0x0, symName: __ZNKSt3__16vectorINS0_INS0_IiNS_9allocatorIiEEEENS1_IS3_EEEENS1_IS5_EEE11__recommendB7v160006Em, symObjAddr: 0x2FA0, symBinAddr: 0x1000080E0, symSize: 0xA0 }
  - { offsetInCU: 0x10A6F, offset: 0x228D8, size: 0x8, addend: 0x0, symName: __ZNSt3__114__split_bufferINS_6vectorINS1_IiNS_9allocatorIiEEEENS2_IS4_EEEERNS2_IS6_EEEC1EmmS8_, symObjAddr: 0x3040, symBinAddr: 0x100008180, symSize: 0x40 }
  - { offsetInCU: 0x10AC4, offset: 0x2292D, size: 0x8, addend: 0x0, symName: __ZNSt3__114__split_bufferINS_6vectorINS1_IiNS_9allocatorIiEEEENS2_IS4_EEEERNS2_IS6_EEE18__construct_at_endEmRKS6_, symObjAddr: 0x3080, symBinAddr: 0x1000081C0, symSize: 0xB0 }
  - { offsetInCU: 0x10B14, offset: 0x2297D, size: 0x8, addend: 0x0, symName: __ZNSt3__114__split_bufferINS_6vectorINS1_IiNS_9allocatorIiEEEENS2_IS4_EEEERNS2_IS6_EEED1Ev, symObjAddr: 0x3260, symBinAddr: 0x1000083A0, symSize: 0x20 }
  - { offsetInCU: 0x10B3F, offset: 0x229A8, size: 0x8, addend: 0x0, symName: __ZNSt3__117__compressed_pairIPNS_6vectorINS1_IiNS_9allocatorIiEEEENS2_IS4_EEEENS2_IS6_EEE5firstB7v160006Ev, symObjAddr: 0x3280, symBinAddr: 0x1000083C0, symSize: 0x20 }
  - { offsetInCU: 0x10B63, offset: 0x229CC, size: 0x8, addend: 0x0, symName: __ZNSt3__122__compressed_pair_elemIPNS_6vectorINS1_IiNS_9allocatorIiEEEENS2_IS4_EEEELi0ELb0EE5__getB7v160006Ev, symObjAddr: 0x32A0, symBinAddr: 0x1000083E0, symSize: 0x10 }
  - { offsetInCU: 0x10BA0, offset: 0x22A09, size: 0x8, addend: 0x0, symName: __ZNSt3__16vectorINS0_INS0_IiNS_9allocatorIiEEEENS1_IS3_EEEENS1_IS5_EEE21_ConstructTransactionC1B7v160006ERS7_m, symObjAddr: 0x32B0, symBinAddr: 0x1000083F0, symSize: 0x30 }
  - { offsetInCU: 0x10BE7, offset: 0x22A50, size: 0x8, addend: 0x0, symName: __ZNSt3__116allocator_traitsINS_9allocatorINS_6vectorINS2_IiNS1_IiEEEENS1_IS4_EEEEEEE9constructB7v160006IS6_JRKS6_EvEEvRS7_PT_DpOT0_, symObjAddr: 0x32E0, symBinAddr: 0x100008420, symSize: 0x30 }
  - { offsetInCU: 0x10C3E, offset: 0x22AA7, size: 0x8, addend: 0x0, symName: __ZNSt3__16vectorINS0_INS0_IiNS_9allocatorIiEEEENS1_IS3_EEEENS1_IS5_EEE21_ConstructTransactionD1B7v160006Ev, symObjAddr: 0x3310, symBinAddr: 0x100008450, symSize: 0x20 }
  - { offsetInCU: 0x10C67, offset: 0x22AD0, size: 0x8, addend: 0x0, symName: __ZNSt3__16vectorINS0_INS0_IiNS_9allocatorIiEEEENS1_IS3_EEEENS1_IS5_EEE21_ConstructTransactionC2B7v160006ERS7_m, symObjAddr: 0x3330, symBinAddr: 0x100008470, symSize: 0x40 }
  - { offsetInCU: 0x10CAE, offset: 0x22B17, size: 0x8, addend: 0x0, symName: __ZNSt3__19allocatorINS_6vectorINS1_IiNS0_IiEEEENS0_IS3_EEEEE9constructB7v160006IS5_JRKS5_EEEvPT_DpOT0_, symObjAddr: 0x3370, symBinAddr: 0x1000084B0, symSize: 0x30 }
  - { offsetInCU: 0x10D02, offset: 0x22B6B, size: 0x8, addend: 0x0, symName: __ZNSt3__16vectorINS0_IiNS_9allocatorIiEEEENS1_IS3_EEEC1ERKS5_, symObjAddr: 0x33A0, symBinAddr: 0x1000084E0, symSize: 0x30 }
  - { offsetInCU: 0x10D3C, offset: 0x22BA5, size: 0x8, addend: 0x0, symName: __ZNSt3__16vectorINS0_IiNS_9allocatorIiEEEENS1_IS3_EEEC2ERKS5_, symObjAddr: 0x33D0, symBinAddr: 0x100008510, symSize: 0x110 }
  - { offsetInCU: 0x10DA5, offset: 0x22C0E, size: 0x8, addend: 0x0, symName: __ZNSt3__116allocator_traitsINS_9allocatorINS_6vectorIiNS1_IiEEEEEEE37select_on_container_copy_constructionB7v160006IS5_vvEES5_RKS5_, symObjAddr: 0x34E0, symBinAddr: 0x100008620, symSize: 0x10 }
  - { offsetInCU: 0x10DD4, offset: 0x22C3D, size: 0x8, addend: 0x0, symName: __ZNKSt3__16vectorINS0_IiNS_9allocatorIiEEEENS1_IS3_EEE7__allocB7v160006Ev, symObjAddr: 0x34F0, symBinAddr: 0x100008630, symSize: 0x20 }
  - { offsetInCU: 0x10DFD, offset: 0x22C66, size: 0x8, addend: 0x0, symName: __ZNSt3__117__compressed_pairIPNS_6vectorIiNS_9allocatorIiEEEENS2_IS4_EEEC1B7v160006IDnS6_EEOT_OT0_, symObjAddr: 0x3510, symBinAddr: 0x100008650, symSize: 0x30 }
  - { offsetInCU: 0x10E54, offset: 0x22CBD, size: 0x8, addend: 0x0, symName: __ZNSt3__16vectorINS0_IiNS_9allocatorIiEEEENS1_IS3_EEE11__vallocateB7v160006Em, symObjAddr: 0x3580, symBinAddr: 0x1000086C0, symSize: 0xA0 }
  - { offsetInCU: 0x10E95, offset: 0x22CFE, size: 0x8, addend: 0x0, symName: __ZNSt3__16vectorINS0_IiNS_9allocatorIiEEEENS1_IS3_EEE18__construct_at_endIPS3_Li0EEEvT_S8_m, symObjAddr: 0x3620, symBinAddr: 0x100008760, symSize: 0x90 }
  - { offsetInCU: 0x10F08, offset: 0x22D71, size: 0x8, addend: 0x0, symName: __ZNSt3__128__exception_guard_exceptionsINS_6vectorINS1_IiNS_9allocatorIiEEEENS2_IS4_EEE16__destroy_vectorEE10__completeB7v160006Ev, symObjAddr: 0x36B0, symBinAddr: 0x1000087F0, symSize: 0x20 }
  - { offsetInCU: 0x10F2C, offset: 0x22D95, size: 0x8, addend: 0x0, symName: __ZNSt3__128__exception_guard_exceptionsINS_6vectorINS1_IiNS_9allocatorIiEEEENS2_IS4_EEE16__destroy_vectorEED1B7v160006Ev, symObjAddr: 0x36D0, symBinAddr: 0x100008810, symSize: 0x20 }
  - { offsetInCU: 0x10F55, offset: 0x22DBE, size: 0x8, addend: 0x0, symName: __ZNKSt3__117__compressed_pairIPNS_6vectorIiNS_9allocatorIiEEEENS2_IS4_EEE6secondB7v160006Ev, symObjAddr: 0x36F0, symBinAddr: 0x100008830, symSize: 0x20 }
  - { offsetInCU: 0x10F79, offset: 0x22DE2, size: 0x8, addend: 0x0, symName: __ZNKSt3__122__compressed_pair_elemINS_9allocatorINS_6vectorIiNS1_IiEEEEEELi1ELb1EE5__getB7v160006Ev, symObjAddr: 0x3710, symBinAddr: 0x100008850, symSize: 0x10 }
  - { offsetInCU: 0x10F9D, offset: 0x22E06, size: 0x8, addend: 0x0, symName: __ZNSt3__117__compressed_pairIPNS_6vectorIiNS_9allocatorIiEEEENS2_IS4_EEEC2B7v160006IDnS6_EEOT_OT0_, symObjAddr: 0x3720, symBinAddr: 0x100008860, symSize: 0x40 }
  - { offsetInCU: 0x10FF4, offset: 0x22E5D, size: 0x8, addend: 0x0, symName: __ZNSt3__122__compressed_pair_elemINS_9allocatorINS_6vectorIiNS1_IiEEEEEELi1ELb1EEC2B7v160006IS5_vEEOT_, symObjAddr: 0x3760, symBinAddr: 0x1000088A0, symSize: 0x10 }
  - { offsetInCU: 0x11035, offset: 0x22E9E, size: 0x8, addend: 0x0, symName: __ZNSt3__128__exception_guard_exceptionsINS_6vectorINS1_IiNS_9allocatorIiEEEENS2_IS4_EEE16__destroy_vectorEEC1B7v160006ES7_, symObjAddr: 0x3770, symBinAddr: 0x1000088B0, symSize: 0x30 }
  - { offsetInCU: 0x1106C, offset: 0x22ED5, size: 0x8, addend: 0x0, symName: __ZNSt3__128__exception_guard_exceptionsINS_6vectorINS1_IiNS_9allocatorIiEEEENS2_IS4_EEE16__destroy_vectorEEC2B7v160006ES7_, symObjAddr: 0x37A0, symBinAddr: 0x1000088E0, symSize: 0x20 }
  - { offsetInCU: 0x110A2, offset: 0x22F0B, size: 0x8, addend: 0x0, symName: __ZNKSt3__16vectorINS0_IiNS_9allocatorIiEEEENS1_IS3_EEE8max_sizeEv, symObjAddr: 0x37C0, symBinAddr: 0x100008900, symSize: 0x60 }
  - { offsetInCU: 0x110CA, offset: 0x22F33, size: 0x8, addend: 0x0, symName: __ZNKSt3__16vectorINS0_IiNS_9allocatorIiEEEENS1_IS3_EEE20__throw_length_errorB7v160006Ev, symObjAddr: 0x3820, symBinAddr: 0x100008960, symSize: 0x20 }
  - { offsetInCU: 0x110EE, offset: 0x22F57, size: 0x8, addend: 0x0, symName: __ZNSt3__16vectorINS0_IiNS_9allocatorIiEEEENS1_IS3_EEE9__end_capB7v160006Ev, symObjAddr: 0x3880, symBinAddr: 0x1000089C0, symSize: 0x20 }
  - { offsetInCU: 0x11112, offset: 0x22F7B, size: 0x8, addend: 0x0, symName: __ZNKSt3__16vectorINS0_IiNS_9allocatorIiEEEENS1_IS3_EEE14__annotate_newB7v160006Em, symObjAddr: 0x38A0, symBinAddr: 0x1000089E0, symSize: 0xA0 }
  - { offsetInCU: 0x11145, offset: 0x22FAE, size: 0x8, addend: 0x0, symName: __ZNSt3__116allocator_traitsINS_9allocatorINS_6vectorIiNS1_IiEEEEEEE8max_sizeB7v160006IS5_vEEmRKS5_, symObjAddr: 0x3970, symBinAddr: 0x100008AB0, symSize: 0x20 }
  - { offsetInCU: 0x11187, offset: 0x22FF0, size: 0x8, addend: 0x0, symName: __ZNKSt3__16__lessImmEclB7v160006ERKmS3_, symObjAddr: 0x39F0, symBinAddr: 0x100008B20, symSize: 0x30 }
  - { offsetInCU: 0x111C7, offset: 0x23030, size: 0x8, addend: 0x0, symName: __ZNKSt3__19allocatorINS_6vectorIiNS0_IiEEEEE8max_sizeB7v160006Ev, symObjAddr: 0x3A20, symBinAddr: 0x100008B50, symSize: 0x20 }
  - { offsetInCU: 0x111EB, offset: 0x23054, size: 0x8, addend: 0x0, symName: __ZNSt3__19allocatorINS_6vectorIiNS0_IiEEEEE8allocateB7v160006Em, symObjAddr: 0x3B30, symBinAddr: 0x100008B70, symSize: 0x50 }
  - { offsetInCU: 0x1121D, offset: 0x23086, size: 0x8, addend: 0x0, symName: __ZNSt3__117__compressed_pairIPNS_6vectorIiNS_9allocatorIiEEEENS2_IS4_EEE5firstB7v160006Ev, symObjAddr: 0x3C00, symBinAddr: 0x100008BC0, symSize: 0x20 }
  - { offsetInCU: 0x11241, offset: 0x230AA, size: 0x8, addend: 0x0, symName: __ZNSt3__122__compressed_pair_elemIPNS_6vectorIiNS_9allocatorIiEEEELi0ELb0EE5__getB7v160006Ev, symObjAddr: 0x3C20, symBinAddr: 0x100008BE0, symSize: 0x10 }
  - { offsetInCU: 0x1127E, offset: 0x230E7, size: 0x8, addend: 0x0, symName: __ZNSt3__16vectorINS0_IiNS_9allocatorIiEEEENS1_IS3_EEE21_ConstructTransactionC1B7v160006ERS5_m, symObjAddr: 0x3C30, symBinAddr: 0x100008BF0, symSize: 0x30 }
  - { offsetInCU: 0x112C5, offset: 0x2312E, size: 0x8, addend: 0x0, symName: __ZNSt3__16vectorINS0_IiNS_9allocatorIiEEEENS1_IS3_EEE21_ConstructTransactionD1B7v160006Ev, symObjAddr: 0x3D60, symBinAddr: 0x100008D20, symSize: 0x20 }
  - { offsetInCU: 0x112EE, offset: 0x23157, size: 0x8, addend: 0x0, symName: __ZNSt3__16vectorINS0_IiNS_9allocatorIiEEEENS1_IS3_EEE21_ConstructTransactionC2B7v160006ERS5_m, symObjAddr: 0x3D80, symBinAddr: 0x100008D40, symSize: 0x40 }
  - { offsetInCU: 0x11335, offset: 0x2319E, size: 0x8, addend: 0x0, symName: __ZNSt3__129_AllocatorDestroyRangeReverseINS_9allocatorINS_6vectorIiNS1_IiEEEEEEPS4_EC1B7v160006ERS5_RS6_S9_, symObjAddr: 0x3E20, symBinAddr: 0x100008DE0, symSize: 0x40 }
  - { offsetInCU: 0x1138B, offset: 0x231F4, size: 0x8, addend: 0x0, symName: __ZNSt3__116allocator_traitsINS_9allocatorINS_6vectorIiNS1_IiEEEEEEE9constructB7v160006IS4_JRS4_EvEEvRS5_PT_DpOT0_, symObjAddr: 0x3E60, symBinAddr: 0x100008E20, symSize: 0x30 }
  - { offsetInCU: 0x113E2, offset: 0x2324B, size: 0x8, addend: 0x0, symName: __ZNSt3__128__exception_guard_exceptionsINS_29_AllocatorDestroyRangeReverseINS_9allocatorINS_6vectorIiNS2_IiEEEEEEPS5_EEE10__completeB7v160006Ev, symObjAddr: 0x3E90, symBinAddr: 0x100008E50, symSize: 0x20 }
  - { offsetInCU: 0x11406, offset: 0x2326F, size: 0x8, addend: 0x0, symName: __ZNSt3__128__exception_guard_exceptionsINS_29_AllocatorDestroyRangeReverseINS_9allocatorINS_6vectorIiNS2_IiEEEEEEPS5_EEED1B7v160006Ev, symObjAddr: 0x3EB0, symBinAddr: 0x100008E70, symSize: 0x20 }
  - { offsetInCU: 0x1142F, offset: 0x23298, size: 0x8, addend: 0x0, symName: __ZNSt3__128__exception_guard_exceptionsINS_29_AllocatorDestroyRangeReverseINS_9allocatorINS_6vectorIiNS2_IiEEEEEEPS5_EEEC1B7v160006ES8_, symObjAddr: 0x3ED0, symBinAddr: 0x100008E90, symSize: 0x40 }
  - { offsetInCU: 0x11466, offset: 0x232CF, size: 0x8, addend: 0x0, symName: __ZNSt3__128__exception_guard_exceptionsINS_29_AllocatorDestroyRangeReverseINS_9allocatorINS_6vectorIiNS2_IiEEEEEEPS5_EEEC2B7v160006ES8_, symObjAddr: 0x3F10, symBinAddr: 0x100008ED0, symSize: 0x30 }
  - { offsetInCU: 0x1149D, offset: 0x23306, size: 0x8, addend: 0x0, symName: __ZNSt3__129_AllocatorDestroyRangeReverseINS_9allocatorINS_6vectorIiNS1_IiEEEEEEPS4_EC2B7v160006ERS5_RS6_S9_, symObjAddr: 0x3F40, symBinAddr: 0x100008F00, symSize: 0x40 }
  - { offsetInCU: 0x114F3, offset: 0x2335C, size: 0x8, addend: 0x0, symName: __ZNSt3__19allocatorINS_6vectorIiNS0_IiEEEEE9constructB7v160006IS3_JRS3_EEEvPT_DpOT0_, symObjAddr: 0x3F80, symBinAddr: 0x100008F40, symSize: 0x30 }
  - { offsetInCU: 0x11547, offset: 0x233B0, size: 0x8, addend: 0x0, symName: __ZNSt3__16vectorIiNS_9allocatorIiEEEC1ERKS3_, symObjAddr: 0x3FB0, symBinAddr: 0x100008F70, symSize: 0x30 }
  - { offsetInCU: 0x11581, offset: 0x233EA, size: 0x8, addend: 0x0, symName: __ZNSt3__16vectorIiNS_9allocatorIiEEEC2ERKS3_, symObjAddr: 0x3FE0, symBinAddr: 0x100008FA0, symSize: 0x110 }
  - { offsetInCU: 0x115EA, offset: 0x23453, size: 0x8, addend: 0x0, symName: __ZNSt3__116allocator_traitsINS_9allocatorIiEEE37select_on_container_copy_constructionB7v160006IS2_vvEES2_RKS2_, symObjAddr: 0x40F0, symBinAddr: 0x1000090B0, symSize: 0x10 }
  - { offsetInCU: 0x11619, offset: 0x23482, size: 0x8, addend: 0x0, symName: __ZNKSt3__16vectorIiNS_9allocatorIiEEE7__allocB7v160006Ev, symObjAddr: 0x4100, symBinAddr: 0x1000090C0, symSize: 0x20 }
  - { offsetInCU: 0x11642, offset: 0x234AB, size: 0x8, addend: 0x0, symName: __ZNSt3__117__compressed_pairIPiNS_9allocatorIiEEEC1B7v160006IDnS3_EEOT_OT0_, symObjAddr: 0x4120, symBinAddr: 0x1000090E0, symSize: 0x30 }
  - { offsetInCU: 0x11699, offset: 0x23502, size: 0x8, addend: 0x0, symName: __ZNSt3__16vectorIiNS_9allocatorIiEEE11__vallocateB7v160006Em, symObjAddr: 0x41A0, symBinAddr: 0x100009160, symSize: 0xA0 }
  - { offsetInCU: 0x116DA, offset: 0x23543, size: 0x8, addend: 0x0, symName: __ZNSt3__16vectorIiNS_9allocatorIiEEE18__construct_at_endIPiLi0EEEvT_S6_m, symObjAddr: 0x4240, symBinAddr: 0x100009200, symSize: 0x90 }
  - { offsetInCU: 0x1174D, offset: 0x235B6, size: 0x8, addend: 0x0, symName: __ZNSt3__128__exception_guard_exceptionsINS_6vectorIiNS_9allocatorIiEEE16__destroy_vectorEE10__completeB7v160006Ev, symObjAddr: 0x42D0, symBinAddr: 0x100009290, symSize: 0x20 }
  - { offsetInCU: 0x11771, offset: 0x235DA, size: 0x8, addend: 0x0, symName: __ZNSt3__128__exception_guard_exceptionsINS_6vectorIiNS_9allocatorIiEEE16__destroy_vectorEED1B7v160006Ev, symObjAddr: 0x42F0, symBinAddr: 0x1000092B0, symSize: 0x20 }
  - { offsetInCU: 0x1179A, offset: 0x23603, size: 0x8, addend: 0x0, symName: __ZNKSt3__117__compressed_pairIPiNS_9allocatorIiEEE6secondB7v160006Ev, symObjAddr: 0x4310, symBinAddr: 0x1000092D0, symSize: 0x20 }
  - { offsetInCU: 0x117BE, offset: 0x23627, size: 0x8, addend: 0x0, symName: __ZNKSt3__122__compressed_pair_elemINS_9allocatorIiEELi1ELb1EE5__getB7v160006Ev, symObjAddr: 0x4330, symBinAddr: 0x1000092F0, symSize: 0x10 }
  - { offsetInCU: 0x117E2, offset: 0x2364B, size: 0x8, addend: 0x0, symName: __ZNSt3__117__compressed_pairIPiNS_9allocatorIiEEEC2B7v160006IDnS3_EEOT_OT0_, symObjAddr: 0x4340, symBinAddr: 0x100009300, symSize: 0x40 }
  - { offsetInCU: 0x11839, offset: 0x236A2, size: 0x8, addend: 0x0, symName: __ZNSt3__122__compressed_pair_elemIPiLi0ELb0EEC2B7v160006IDnvEEOT_, symObjAddr: 0x4380, symBinAddr: 0x100009340, symSize: 0x20 }
  - { offsetInCU: 0x1187A, offset: 0x236E3, size: 0x8, addend: 0x0, symName: __ZNSt3__122__compressed_pair_elemINS_9allocatorIiEELi1ELb1EEC2B7v160006IS2_vEEOT_, symObjAddr: 0x43A0, symBinAddr: 0x100009360, symSize: 0x10 }
  - { offsetInCU: 0x118BB, offset: 0x23724, size: 0x8, addend: 0x0, symName: __ZNSt3__128__exception_guard_exceptionsINS_6vectorIiNS_9allocatorIiEEE16__destroy_vectorEEC1B7v160006ES5_, symObjAddr: 0x43B0, symBinAddr: 0x100009370, symSize: 0x30 }
  - { offsetInCU: 0x118F2, offset: 0x2375B, size: 0x8, addend: 0x0, symName: __ZNSt3__128__exception_guard_exceptionsINS_6vectorIiNS_9allocatorIiEEE16__destroy_vectorEEC2B7v160006ES5_, symObjAddr: 0x43E0, symBinAddr: 0x1000093A0, symSize: 0x20 }
  - { offsetInCU: 0x11928, offset: 0x23791, size: 0x8, addend: 0x0, symName: __ZNKSt3__16vectorIiNS_9allocatorIiEEE8max_sizeEv, symObjAddr: 0x4400, symBinAddr: 0x1000093C0, symSize: 0x60 }
  - { offsetInCU: 0x11950, offset: 0x237B9, size: 0x8, addend: 0x0, symName: __ZNKSt3__16vectorIiNS_9allocatorIiEEE20__throw_length_errorB7v160006Ev, symObjAddr: 0x4460, symBinAddr: 0x100009420, symSize: 0x20 }
  - { offsetInCU: 0x11974, offset: 0x237DD, size: 0x8, addend: 0x0, symName: __ZNSt3__16vectorIiNS_9allocatorIiEEE9__end_capB7v160006Ev, symObjAddr: 0x44C0, symBinAddr: 0x100009480, symSize: 0x20 }
  - { offsetInCU: 0x11998, offset: 0x23801, size: 0x8, addend: 0x0, symName: __ZNKSt3__16vectorIiNS_9allocatorIiEEE14__annotate_newB7v160006Em, symObjAddr: 0x44E0, symBinAddr: 0x1000094A0, symSize: 0xB0 }
  - { offsetInCU: 0x119CB, offset: 0x23834, size: 0x8, addend: 0x0, symName: __ZNSt3__116allocator_traitsINS_9allocatorIiEEE8max_sizeB7v160006IS2_vEEmRKS2_, symObjAddr: 0x4590, symBinAddr: 0x100009550, symSize: 0x20 }
  - { offsetInCU: 0x119F9, offset: 0x23862, size: 0x8, addend: 0x0, symName: __ZNKSt3__19allocatorIiE8max_sizeB7v160006Ev, symObjAddr: 0x45B0, symBinAddr: 0x100009570, symSize: 0x20 }
  - { offsetInCU: 0x11A1D, offset: 0x23886, size: 0x8, addend: 0x0, symName: __ZNSt3__19allocatorIiE8allocateB7v160006Em, symObjAddr: 0x45D0, symBinAddr: 0x100009590, symSize: 0x50 }
  - { offsetInCU: 0x11A4F, offset: 0x238B8, size: 0x8, addend: 0x0, symName: __ZNSt3__117__compressed_pairIPiNS_9allocatorIiEEE5firstB7v160006Ev, symObjAddr: 0x4620, symBinAddr: 0x1000095E0, symSize: 0x20 }
  - { offsetInCU: 0x11A73, offset: 0x238DC, size: 0x8, addend: 0x0, symName: __ZNSt3__122__compressed_pair_elemIPiLi0ELb0EE5__getB7v160006Ev, symObjAddr: 0x4640, symBinAddr: 0x100009600, symSize: 0x10 }
  - { offsetInCU: 0x11AB0, offset: 0x23919, size: 0x8, addend: 0x0, symName: __ZNSt3__16vectorIiNS_9allocatorIiEEE21_ConstructTransactionC1B7v160006ERS3_m, symObjAddr: 0x4650, symBinAddr: 0x100009610, symSize: 0x30 }
  - { offsetInCU: 0x11AF7, offset: 0x23960, size: 0x8, addend: 0x0, symName: __ZNSt3__16vectorIiNS_9allocatorIiEEE21_ConstructTransactionD1B7v160006Ev, symObjAddr: 0x4780, symBinAddr: 0x100009740, symSize: 0x20 }
  - { offsetInCU: 0x11B20, offset: 0x23989, size: 0x8, addend: 0x0, symName: __ZNSt3__16vectorIiNS_9allocatorIiEEE21_ConstructTransactionC2B7v160006ERS3_m, symObjAddr: 0x47A0, symBinAddr: 0x100009760, symSize: 0x40 }
  - { offsetInCU: 0x11B67, offset: 0x239D0, size: 0x8, addend: 0x0, symName: __ZNSt3__129_AllocatorDestroyRangeReverseINS_9allocatorIiEEPiEC1B7v160006ERS2_RS3_S6_, symObjAddr: 0x4840, symBinAddr: 0x100009800, symSize: 0x40 }
  - { offsetInCU: 0x11BBD, offset: 0x23A26, size: 0x8, addend: 0x0, symName: __ZNSt3__116allocator_traitsINS_9allocatorIiEEE9constructB7v160006IiJRiEvEEvRS2_PT_DpOT0_, symObjAddr: 0x4880, symBinAddr: 0x100009840, symSize: 0x30 }
  - { offsetInCU: 0x11C14, offset: 0x23A7D, size: 0x8, addend: 0x0, symName: __ZNSt3__128__exception_guard_exceptionsINS_29_AllocatorDestroyRangeReverseINS_9allocatorIiEEPiEEE10__completeB7v160006Ev, symObjAddr: 0x48B0, symBinAddr: 0x100009870, symSize: 0x20 }
  - { offsetInCU: 0x11C38, offset: 0x23AA1, size: 0x8, addend: 0x0, symName: __ZNSt3__128__exception_guard_exceptionsINS_29_AllocatorDestroyRangeReverseINS_9allocatorIiEEPiEEED1B7v160006Ev, symObjAddr: 0x48D0, symBinAddr: 0x100009890, symSize: 0x20 }
  - { offsetInCU: 0x11C61, offset: 0x23ACA, size: 0x8, addend: 0x0, symName: __ZNSt3__128__exception_guard_exceptionsINS_29_AllocatorDestroyRangeReverseINS_9allocatorIiEEPiEEEC1B7v160006ES5_, symObjAddr: 0x48F0, symBinAddr: 0x1000098B0, symSize: 0x40 }
  - { offsetInCU: 0x11C98, offset: 0x23B01, size: 0x8, addend: 0x0, symName: __ZNSt3__128__exception_guard_exceptionsINS_29_AllocatorDestroyRangeReverseINS_9allocatorIiEEPiEEEC2B7v160006ES5_, symObjAddr: 0x4930, symBinAddr: 0x1000098F0, symSize: 0x30 }
  - { offsetInCU: 0x11CCF, offset: 0x23B38, size: 0x8, addend: 0x0, symName: __ZNSt3__129_AllocatorDestroyRangeReverseINS_9allocatorIiEEPiEC2B7v160006ERS2_RS3_S6_, symObjAddr: 0x4960, symBinAddr: 0x100009920, symSize: 0x40 }
  - { offsetInCU: 0x11D25, offset: 0x23B8E, size: 0x8, addend: 0x0, symName: __ZNSt3__19allocatorIiE9constructB7v160006IiJRiEEEvPT_DpOT0_, symObjAddr: 0x49A0, symBinAddr: 0x100009960, symSize: 0x20 }
  - { offsetInCU: 0x11D79, offset: 0x23BE2, size: 0x8, addend: 0x0, symName: __ZNSt3__128__exception_guard_exceptionsINS_29_AllocatorDestroyRangeReverseINS_9allocatorIiEEPiEEED2B7v160006Ev, symObjAddr: 0x49C0, symBinAddr: 0x100009980, symSize: 0x40 }
  - { offsetInCU: 0x11DA2, offset: 0x23C0B, size: 0x8, addend: 0x0, symName: __ZNKSt3__129_AllocatorDestroyRangeReverseINS_9allocatorIiEEPiEclB7v160006Ev, symObjAddr: 0x4A00, symBinAddr: 0x1000099C0, symSize: 0x60 }
  - { offsetInCU: 0x11DC6, offset: 0x23C2F, size: 0x8, addend: 0x0, symName: __ZNSt3__116reverse_iteratorIPiEC1B7v160006ES1_, symObjAddr: 0x4AD0, symBinAddr: 0x100009A90, symSize: 0x30 }
  - { offsetInCU: 0x11DFD, offset: 0x23C66, size: 0x8, addend: 0x0, symName: __ZNSt3__116reverse_iteratorIPiEppB7v160006Ev, symObjAddr: 0x4B60, symBinAddr: 0x100009B20, symSize: 0x20 }
  - { offsetInCU: 0x11E21, offset: 0x23C8A, size: 0x8, addend: 0x0, symName: __ZNKSt3__116reverse_iteratorIPiE4baseB7v160006Ev, symObjAddr: 0x4B80, symBinAddr: 0x100009B40, symSize: 0x20 }
  - { offsetInCU: 0x11E4A, offset: 0x23CB3, size: 0x8, addend: 0x0, symName: __ZNSt3__119__to_address_helperINS_16reverse_iteratorIPiEEvE6__callB7v160006ERKS3_, symObjAddr: 0x4BA0, symBinAddr: 0x100009B60, symSize: 0x40 }
  - { offsetInCU: 0x11E6D, offset: 0x23CD6, size: 0x8, addend: 0x0, symName: __ZNKSt3__116reverse_iteratorIPiEptB7v160006Ev, symObjAddr: 0x4BE0, symBinAddr: 0x100009BA0, symSize: 0x20 }
  - { offsetInCU: 0x11E91, offset: 0x23CFA, size: 0x8, addend: 0x0, symName: __ZNKSt3__116reverse_iteratorIPiEdeB7v160006Ev, symObjAddr: 0x4C00, symBinAddr: 0x100009BC0, symSize: 0x30 }
  - { offsetInCU: 0x11EC3, offset: 0x23D2C, size: 0x8, addend: 0x0, symName: __ZNSt3__116reverse_iteratorIPiEC2B7v160006ES1_, symObjAddr: 0x4C30, symBinAddr: 0x100009BF0, symSize: 0x30 }
  - { offsetInCU: 0x11EFA, offset: 0x23D63, size: 0x8, addend: 0x0, symName: __ZNSt3__16vectorIiNS_9allocatorIiEEE21_ConstructTransactionD2B7v160006Ev, symObjAddr: 0x4C60, symBinAddr: 0x100009C20, symSize: 0x20 }
  - { offsetInCU: 0x11F23, offset: 0x23D8C, size: 0x8, addend: 0x0, symName: __ZNSt3__128__exception_guard_exceptionsINS_6vectorIiNS_9allocatorIiEEE16__destroy_vectorEED2B7v160006Ev, symObjAddr: 0x4C80, symBinAddr: 0x100009C40, symSize: 0x40 }
  - { offsetInCU: 0x11F4C, offset: 0x23DB5, size: 0x8, addend: 0x0, symName: __ZNSt3__128__exception_guard_exceptionsINS_29_AllocatorDestroyRangeReverseINS_9allocatorINS_6vectorIiNS2_IiEEEEEEPS5_EEED2B7v160006Ev, symObjAddr: 0x4CC0, symBinAddr: 0x100009C80, symSize: 0x40 }
  - { offsetInCU: 0x11F75, offset: 0x23DDE, size: 0x8, addend: 0x0, symName: __ZNKSt3__129_AllocatorDestroyRangeReverseINS_9allocatorINS_6vectorIiNS1_IiEEEEEEPS4_EclB7v160006Ev, symObjAddr: 0x4D00, symBinAddr: 0x100009CC0, symSize: 0x60 }
  - { offsetInCU: 0x11F99, offset: 0x23E02, size: 0x8, addend: 0x0, symName: __ZNSt3__116reverse_iteratorIPNS_6vectorIiNS_9allocatorIiEEEEEC1B7v160006ES5_, symObjAddr: 0x4DD0, symBinAddr: 0x100009D90, symSize: 0x30 }
  - { offsetInCU: 0x11FD0, offset: 0x23E39, size: 0x8, addend: 0x0, symName: __ZNSt3__116reverse_iteratorIPNS_6vectorIiNS_9allocatorIiEEEEEppB7v160006Ev, symObjAddr: 0x4E60, symBinAddr: 0x100009E20, symSize: 0x20 }
  - { offsetInCU: 0x11FF4, offset: 0x23E5D, size: 0x8, addend: 0x0, symName: __ZNKSt3__116reverse_iteratorIPNS_6vectorIiNS_9allocatorIiEEEEE4baseB7v160006Ev, symObjAddr: 0x4E80, symBinAddr: 0x100009E40, symSize: 0x20 }
  - { offsetInCU: 0x1201D, offset: 0x23E86, size: 0x8, addend: 0x0, symName: __ZNSt3__119__to_address_helperINS_16reverse_iteratorIPNS_6vectorIiNS_9allocatorIiEEEEEEvE6__callB7v160006ERKS7_, symObjAddr: 0x4EA0, symBinAddr: 0x100009E60, symSize: 0x40 }
  - { offsetInCU: 0x12040, offset: 0x23EA9, size: 0x8, addend: 0x0, symName: __ZNKSt3__116reverse_iteratorIPNS_6vectorIiNS_9allocatorIiEEEEEptB7v160006Ev, symObjAddr: 0x4EE0, symBinAddr: 0x100009EA0, symSize: 0x20 }
  - { offsetInCU: 0x12064, offset: 0x23ECD, size: 0x8, addend: 0x0, symName: __ZNKSt3__116reverse_iteratorIPNS_6vectorIiNS_9allocatorIiEEEEEdeB7v160006Ev, symObjAddr: 0x4F00, symBinAddr: 0x100009EC0, symSize: 0x30 }
  - { offsetInCU: 0x12096, offset: 0x23EFF, size: 0x8, addend: 0x0, symName: __ZNSt3__116reverse_iteratorIPNS_6vectorIiNS_9allocatorIiEEEEEC2B7v160006ES5_, symObjAddr: 0x4F30, symBinAddr: 0x100009EF0, symSize: 0x30 }
  - { offsetInCU: 0x120CD, offset: 0x23F36, size: 0x8, addend: 0x0, symName: __ZNSt3__16vectorINS0_IiNS_9allocatorIiEEEENS1_IS3_EEE21_ConstructTransactionD2B7v160006Ev, symObjAddr: 0x4F60, symBinAddr: 0x100009F20, symSize: 0x20 }
  - { offsetInCU: 0x120F6, offset: 0x23F5F, size: 0x8, addend: 0x0, symName: __ZNSt3__128__exception_guard_exceptionsINS_6vectorINS1_IiNS_9allocatorIiEEEENS2_IS4_EEE16__destroy_vectorEED2B7v160006Ev, symObjAddr: 0x4F80, symBinAddr: 0x100009F40, symSize: 0x40 }
  - { offsetInCU: 0x1211F, offset: 0x23F88, size: 0x8, addend: 0x0, symName: __ZNSt3__16vectorINS0_INS0_IiNS_9allocatorIiEEEENS1_IS3_EEEENS1_IS5_EEE21_ConstructTransactionD2B7v160006Ev, symObjAddr: 0x4FC0, symBinAddr: 0x100009F80, symSize: 0x20 }
  - { offsetInCU: 0x12147, offset: 0x23FB0, size: 0x8, addend: 0x0, symName: __ZNKSt3__16vectorINS0_INS0_IiNS_9allocatorIiEEEENS1_IS3_EEEENS1_IS5_EEE8max_sizeEv, symObjAddr: 0x4FE0, symBinAddr: 0x100009FA0, symSize: 0x60 }
  - { offsetInCU: 0x1216F, offset: 0x23FD8, size: 0x8, addend: 0x0, symName: __ZNKSt3__16vectorINS0_INS0_IiNS_9allocatorIiEEEENS1_IS3_EEEENS1_IS5_EEE20__throw_length_errorB7v160006Ev, symObjAddr: 0x5040, symBinAddr: 0x10000A000, symSize: 0x20 }
  - { offsetInCU: 0x1219D, offset: 0x24006, size: 0x8, addend: 0x0, symName: __ZNSt3__116allocator_traitsINS_9allocatorINS_6vectorINS2_IiNS1_IiEEEENS1_IS4_EEEEEEE8max_sizeB7v160006IS7_vEEmRKS7_, symObjAddr: 0x5090, symBinAddr: 0x10000A050, symSize: 0x20 }
  - { offsetInCU: 0x121CB, offset: 0x24034, size: 0x8, addend: 0x0, symName: __ZNKSt3__16vectorINS0_INS0_IiNS_9allocatorIiEEEENS1_IS3_EEEENS1_IS5_EEE7__allocB7v160006Ev, symObjAddr: 0x50B0, symBinAddr: 0x10000A070, symSize: 0x20 }
  - { offsetInCU: 0x121EF, offset: 0x24058, size: 0x8, addend: 0x0, symName: __ZNKSt3__19allocatorINS_6vectorINS1_IiNS0_IiEEEENS0_IS3_EEEEE8max_sizeB7v160006Ev, symObjAddr: 0x50D0, symBinAddr: 0x10000A090, symSize: 0x20 }
  - { offsetInCU: 0x12213, offset: 0x2407C, size: 0x8, addend: 0x0, symName: __ZNKSt3__117__compressed_pairIPNS_6vectorINS1_IiNS_9allocatorIiEEEENS2_IS4_EEEENS2_IS6_EEE6secondB7v160006Ev, symObjAddr: 0x50F0, symBinAddr: 0x10000A0B0, symSize: 0x20 }
  - { offsetInCU: 0x12237, offset: 0x240A0, size: 0x8, addend: 0x0, symName: __ZNKSt3__122__compressed_pair_elemINS_9allocatorINS_6vectorINS2_IiNS1_IiEEEENS1_IS4_EEEEEELi1ELb1EE5__getB7v160006Ev, symObjAddr: 0x5110, symBinAddr: 0x10000A0D0, symSize: 0x10 }
  - { offsetInCU: 0x1225B, offset: 0x240C4, size: 0x8, addend: 0x0, symName: __ZNSt3__114__split_bufferINS_6vectorINS1_IiNS_9allocatorIiEEEENS2_IS4_EEEERNS2_IS6_EEEC2EmmS8_, symObjAddr: 0x5170, symBinAddr: 0x10000A130, symSize: 0xC0 }
  - { offsetInCU: 0x122CE, offset: 0x24137, size: 0x8, addend: 0x0, symName: __ZNSt3__117__compressed_pairIPNS_6vectorINS1_IiNS_9allocatorIiEEEENS2_IS4_EEEERNS2_IS6_EEEC1B7v160006IDnS9_EEOT_OT0_, symObjAddr: 0x5230, symBinAddr: 0x10000A1F0, symSize: 0x30 }
  - { offsetInCU: 0x12325, offset: 0x2418E, size: 0x8, addend: 0x0, symName: __ZNSt3__114__split_bufferINS_6vectorINS1_IiNS_9allocatorIiEEEENS2_IS4_EEEERNS2_IS6_EEE7__allocB7v160006Ev, symObjAddr: 0x52A0, symBinAddr: 0x10000A260, symSize: 0x20 }
  - { offsetInCU: 0x12349, offset: 0x241B2, size: 0x8, addend: 0x0, symName: __ZNSt3__114__split_bufferINS_6vectorINS1_IiNS_9allocatorIiEEEENS2_IS4_EEEERNS2_IS6_EEE9__end_capB7v160006Ev, symObjAddr: 0x52C0, symBinAddr: 0x10000A280, symSize: 0x20 }
  - { offsetInCU: 0x1236D, offset: 0x241D6, size: 0x8, addend: 0x0, symName: __ZNSt3__117__compressed_pairIPNS_6vectorINS1_IiNS_9allocatorIiEEEENS2_IS4_EEEERNS2_IS6_EEEC2B7v160006IDnS9_EEOT_OT0_, symObjAddr: 0x52E0, symBinAddr: 0x10000A2A0, symSize: 0x40 }
  - { offsetInCU: 0x123C4, offset: 0x2422D, size: 0x8, addend: 0x0, symName: __ZNSt3__122__compressed_pair_elemIRNS_9allocatorINS_6vectorINS2_IiNS1_IiEEEENS1_IS4_EEEEEELi1ELb0EEC2B7v160006IS8_vEEOT_, symObjAddr: 0x5320, symBinAddr: 0x10000A2E0, symSize: 0x20 }
  - { offsetInCU: 0x12405, offset: 0x2426E, size: 0x8, addend: 0x0, symName: __ZNSt3__19allocatorINS_6vectorINS1_IiNS0_IiEEEENS0_IS3_EEEEE8allocateB7v160006Em, symObjAddr: 0x5340, symBinAddr: 0x10000A300, symSize: 0x50 }
  - { offsetInCU: 0x12437, offset: 0x242A0, size: 0x8, addend: 0x0, symName: __ZNSt3__117__compressed_pairIPNS_6vectorINS1_IiNS_9allocatorIiEEEENS2_IS4_EEEERNS2_IS6_EEE6secondB7v160006Ev, symObjAddr: 0x5390, symBinAddr: 0x10000A350, symSize: 0x20 }
  - { offsetInCU: 0x1245B, offset: 0x242C4, size: 0x8, addend: 0x0, symName: __ZNSt3__122__compressed_pair_elemIRNS_9allocatorINS_6vectorINS2_IiNS1_IiEEEENS1_IS4_EEEEEELi1ELb0EE5__getB7v160006Ev, symObjAddr: 0x53B0, symBinAddr: 0x10000A370, symSize: 0x20 }
  - { offsetInCU: 0x1247F, offset: 0x242E8, size: 0x8, addend: 0x0, symName: __ZNSt3__117__compressed_pairIPNS_6vectorINS1_IiNS_9allocatorIiEEEENS2_IS4_EEEERNS2_IS6_EEE5firstB7v160006Ev, symObjAddr: 0x53D0, symBinAddr: 0x10000A390, symSize: 0x20 }
  - { offsetInCU: 0x124AD, offset: 0x24316, size: 0x8, addend: 0x0, symName: __ZNSt3__114__split_bufferINS_6vectorINS1_IiNS_9allocatorIiEEEENS2_IS4_EEEERNS2_IS6_EEE21_ConstructTransactionC1B7v160006EPPS6_m, symObjAddr: 0x53F0, symBinAddr: 0x10000A3B0, symSize: 0x30 }
  - { offsetInCU: 0x124F2, offset: 0x2435B, size: 0x8, addend: 0x0, symName: __ZNSt3__114__split_bufferINS_6vectorINS1_IiNS_9allocatorIiEEEENS2_IS4_EEEERNS2_IS6_EEE21_ConstructTransactionD1B7v160006Ev, symObjAddr: 0x5420, symBinAddr: 0x10000A3E0, symSize: 0x20 }
  - { offsetInCU: 0x1251B, offset: 0x24384, size: 0x8, addend: 0x0, symName: __ZNSt3__114__split_bufferINS_6vectorINS1_IiNS_9allocatorIiEEEENS2_IS4_EEEERNS2_IS6_EEE21_ConstructTransactionC2B7v160006EPPS6_m, symObjAddr: 0x5440, symBinAddr: 0x10000A400, symSize: 0x40 }
  - { offsetInCU: 0x12560, offset: 0x243C9, size: 0x8, addend: 0x0, symName: __ZNSt3__114__split_bufferINS_6vectorINS1_IiNS_9allocatorIiEEEENS2_IS4_EEEERNS2_IS6_EEE21_ConstructTransactionD2B7v160006Ev, symObjAddr: 0x5480, symBinAddr: 0x10000A440, symSize: 0x20 }
  - { offsetInCU: 0x12589, offset: 0x243F2, size: 0x8, addend: 0x0, symName: __ZNSt3__116reverse_iteratorIPNS_6vectorINS1_IiNS_9allocatorIiEEEENS2_IS4_EEEEEC1B7v160006ES7_, symObjAddr: 0x5620, symBinAddr: 0x10000A5E0, symSize: 0x30 }
  - { offsetInCU: 0x125C0, offset: 0x24429, size: 0x8, addend: 0x0, symName: __ZNKSt3__116reverse_iteratorIPNS_6vectorINS1_IiNS_9allocatorIiEEEENS2_IS4_EEEEE4baseB7v160006Ev, symObjAddr: 0x5650, symBinAddr: 0x10000A610, symSize: 0x20 }
  - { offsetInCU: 0x125E4, offset: 0x2444D, size: 0x8, addend: 0x0, symName: __ZNKSt3__16vectorINS0_INS0_IiNS_9allocatorIiEEEENS1_IS3_EEEENS1_IS5_EEE14__annotate_newB7v160006Em, symObjAddr: 0x56B0, symBinAddr: 0x10000A670, symSize: 0xA0 }
  - { offsetInCU: 0x12617, offset: 0x24480, size: 0x8, addend: 0x0, symName: __ZNSt3__129_AllocatorDestroyRangeReverseINS_9allocatorINS_6vectorINS2_IiNS1_IiEEEENS1_IS4_EEEEEENS_16reverse_iteratorIPS6_EEEC1B7v160006ERS7_RSA_SD_, symObjAddr: 0x57B0, symBinAddr: 0x10000A770, symSize: 0x40 }
  - { offsetInCU: 0x1266D, offset: 0x244D6, size: 0x8, addend: 0x0, symName: __ZNSt3__116allocator_traitsINS_9allocatorINS_6vectorINS2_IiNS1_IiEEEENS1_IS4_EEEEEEE9constructB7v160006IS6_JS6_EvEEvRS7_PT_DpOT0_, symObjAddr: 0x5830, symBinAddr: 0x10000A7F0, symSize: 0x30 }
  - { offsetInCU: 0x126C4, offset: 0x2452D, size: 0x8, addend: 0x0, symName: __ZNKSt3__116reverse_iteratorIPNS_6vectorINS1_IiNS_9allocatorIiEEEENS2_IS4_EEEEEdeB7v160006Ev, symObjAddr: 0x5880, symBinAddr: 0x10000A840, symSize: 0x30 }
  - { offsetInCU: 0x126F6, offset: 0x2455F, size: 0x8, addend: 0x0, symName: __ZNSt3__116reverse_iteratorIPNS_6vectorINS1_IiNS_9allocatorIiEEEENS2_IS4_EEEEEppB7v160006Ev, symObjAddr: 0x58B0, symBinAddr: 0x10000A870, symSize: 0x20 }
  - { offsetInCU: 0x1271A, offset: 0x24583, size: 0x8, addend: 0x0, symName: __ZNSt3__128__exception_guard_exceptionsINS_29_AllocatorDestroyRangeReverseINS_9allocatorINS_6vectorINS3_IiNS2_IiEEEENS2_IS5_EEEEEENS_16reverse_iteratorIPS7_EEEEE10__completeB7v160006Ev, symObjAddr: 0x58D0, symBinAddr: 0x10000A890, symSize: 0x20 }
  - { offsetInCU: 0x1273E, offset: 0x245A7, size: 0x8, addend: 0x0, symName: __ZNSt3__128__exception_guard_exceptionsINS_29_AllocatorDestroyRangeReverseINS_9allocatorINS_6vectorINS3_IiNS2_IiEEEENS2_IS5_EEEEEENS_16reverse_iteratorIPS7_EEEEED1B7v160006Ev, symObjAddr: 0x58F0, symBinAddr: 0x10000A8B0, symSize: 0x20 }
  - { offsetInCU: 0x12767, offset: 0x245D0, size: 0x8, addend: 0x0, symName: __ZNSt3__128__exception_guard_exceptionsINS_29_AllocatorDestroyRangeReverseINS_9allocatorINS_6vectorINS3_IiNS2_IiEEEENS2_IS5_EEEEEENS_16reverse_iteratorIPS7_EEEEEC1B7v160006ESC_, symObjAddr: 0x5910, symBinAddr: 0x10000A8D0, symSize: 0x40 }
  - { offsetInCU: 0x1279E, offset: 0x24607, size: 0x8, addend: 0x0, symName: __ZNSt3__128__exception_guard_exceptionsINS_29_AllocatorDestroyRangeReverseINS_9allocatorINS_6vectorINS3_IiNS2_IiEEEENS2_IS5_EEEEEENS_16reverse_iteratorIPS7_EEEEEC2B7v160006ESC_, symObjAddr: 0x5950, symBinAddr: 0x10000A910, symSize: 0x30 }
  - { offsetInCU: 0x127D5, offset: 0x2463E, size: 0x8, addend: 0x0, symName: __ZNSt3__129_AllocatorDestroyRangeReverseINS_9allocatorINS_6vectorINS2_IiNS1_IiEEEENS1_IS4_EEEEEENS_16reverse_iteratorIPS6_EEEC2B7v160006ERS7_RSA_SD_, symObjAddr: 0x5980, symBinAddr: 0x10000A940, symSize: 0x40 }
  - { offsetInCU: 0x1282B, offset: 0x24694, size: 0x8, addend: 0x0, symName: __ZNSt3__19allocatorINS_6vectorINS1_IiNS0_IiEEEENS0_IS3_EEEEE9constructB7v160006IS5_JS5_EEEvPT_DpOT0_, symObjAddr: 0x59C0, symBinAddr: 0x10000A980, symSize: 0x30 }
  - { offsetInCU: 0x1287F, offset: 0x246E8, size: 0x8, addend: 0x0, symName: __ZNSt3__16vectorINS0_IiNS_9allocatorIiEEEENS1_IS3_EEEC1B7v160006EOS5_, symObjAddr: 0x59F0, symBinAddr: 0x10000A9B0, symSize: 0x30 }
  - { offsetInCU: 0x128B9, offset: 0x24722, size: 0x8, addend: 0x0, symName: __ZNSt3__16vectorINS0_IiNS_9allocatorIiEEEENS1_IS3_EEEC2B7v160006EOS5_, symObjAddr: 0x5A20, symBinAddr: 0x10000A9E0, symSize: 0xE0 }
  - { offsetInCU: 0x128F8, offset: 0x24761, size: 0x8, addend: 0x0, symName: __ZNSt3__119__to_address_helperINS_16reverse_iteratorIPNS_6vectorINS2_IiNS_9allocatorIiEEEENS3_IS5_EEEEEEvE6__callB7v160006ERKS9_, symObjAddr: 0x5B10, symBinAddr: 0x10000AAD0, symSize: 0x40 }
  - { offsetInCU: 0x1291B, offset: 0x24784, size: 0x8, addend: 0x0, symName: __ZNKSt3__116reverse_iteratorIPNS_6vectorINS1_IiNS_9allocatorIiEEEENS2_IS4_EEEEEptB7v160006Ev, symObjAddr: 0x5B50, symBinAddr: 0x10000AB10, symSize: 0x20 }
  - { offsetInCU: 0x1293F, offset: 0x247A8, size: 0x8, addend: 0x0, symName: __ZNSt3__128__exception_guard_exceptionsINS_29_AllocatorDestroyRangeReverseINS_9allocatorINS_6vectorINS3_IiNS2_IiEEEENS2_IS5_EEEEEENS_16reverse_iteratorIPS7_EEEEED2B7v160006Ev, symObjAddr: 0x5B70, symBinAddr: 0x10000AB30, symSize: 0x40 }
  - { offsetInCU: 0x12968, offset: 0x247D1, size: 0x8, addend: 0x0, symName: __ZNKSt3__129_AllocatorDestroyRangeReverseINS_9allocatorINS_6vectorINS2_IiNS1_IiEEEENS1_IS4_EEEEEENS_16reverse_iteratorIPS6_EEEclB7v160006Ev, symObjAddr: 0x5BB0, symBinAddr: 0x10000AB70, symSize: 0xF0 }
  - { offsetInCU: 0x1298D, offset: 0x247F6, size: 0x8, addend: 0x0, symName: __ZNSt3__116reverse_iteratorINS0_IPNS_6vectorINS1_IiNS_9allocatorIiEEEENS2_IS4_EEEEEEEC1B7v160006ES8_, symObjAddr: 0x5D10, symBinAddr: 0x10000ACD0, symSize: 0x30 }
  - { offsetInCU: 0x129C4, offset: 0x2482D, size: 0x8, addend: 0x0, symName: __ZNSt3__116reverse_iteratorINS0_IPNS_6vectorINS1_IiNS_9allocatorIiEEEENS2_IS4_EEEEEEEppB7v160006Ev, symObjAddr: 0x5DB0, symBinAddr: 0x10000AD70, symSize: 0x30 }
  - { offsetInCU: 0x129E8, offset: 0x24851, size: 0x8, addend: 0x0, symName: __ZNKSt3__116reverse_iteratorINS0_IPNS_6vectorINS1_IiNS_9allocatorIiEEEENS2_IS4_EEEEEEE4baseB7v160006Ev, symObjAddr: 0x5DE0, symBinAddr: 0x10000ADA0, symSize: 0x20 }
  - { offsetInCU: 0x12A11, offset: 0x2487A, size: 0x8, addend: 0x0, symName: __ZNSt3__119__to_address_helperINS_16reverse_iteratorINS1_IPNS_6vectorINS2_IiNS_9allocatorIiEEEENS3_IS5_EEEEEEEEvE6__callB7v160006ERKSA_, symObjAddr: 0x5E00, symBinAddr: 0x10000ADC0, symSize: 0x40 }
  - { offsetInCU: 0x12A34, offset: 0x2489D, size: 0x8, addend: 0x0, symName: __ZNKSt3__116reverse_iteratorINS0_IPNS_6vectorINS1_IiNS_9allocatorIiEEEENS2_IS4_EEEEEEEptB7v160006Ev, symObjAddr: 0x5E40, symBinAddr: 0x10000AE00, symSize: 0x20 }
  - { offsetInCU: 0x12A58, offset: 0x248C1, size: 0x8, addend: 0x0, symName: __ZNKSt3__116reverse_iteratorINS0_IPNS_6vectorINS1_IiNS_9allocatorIiEEEENS2_IS4_EEEEEEEdeB7v160006Ev, symObjAddr: 0x5E60, symBinAddr: 0x10000AE20, symSize: 0x40 }
  - { offsetInCU: 0x12A8A, offset: 0x248F3, size: 0x8, addend: 0x0, symName: __ZNSt3__116reverse_iteratorIPNS_6vectorINS1_IiNS_9allocatorIiEEEENS2_IS4_EEEEEmmB7v160006Ev, symObjAddr: 0x5EA0, symBinAddr: 0x10000AE60, symSize: 0x20 }
  - { offsetInCU: 0x12AAE, offset: 0x24917, size: 0x8, addend: 0x0, symName: __ZNSt3__116reverse_iteratorINS0_IPNS_6vectorINS1_IiNS_9allocatorIiEEEENS2_IS4_EEEEEEEC2B7v160006ES8_, symObjAddr: 0x5EC0, symBinAddr: 0x10000AE80, symSize: 0x40 }
  - { offsetInCU: 0x12AE5, offset: 0x2494E, size: 0x8, addend: 0x0, symName: __ZNSt3__116reverse_iteratorIPNS_6vectorINS1_IiNS_9allocatorIiEEEENS2_IS4_EEEEEC2B7v160006ES7_, symObjAddr: 0x5F00, symBinAddr: 0x10000AEC0, symSize: 0x30 }
  - { offsetInCU: 0x12B1C, offset: 0x24985, size: 0x8, addend: 0x0, symName: __ZNSt3__114__split_bufferINS_6vectorINS1_IiNS_9allocatorIiEEEENS2_IS4_EEEERNS2_IS6_EEED2Ev, symObjAddr: 0x5F30, symBinAddr: 0x10000AEF0, symSize: 0x70 }
  - { offsetInCU: 0x12B47, offset: 0x249B0, size: 0x8, addend: 0x0, symName: __ZNSt3__114__split_bufferINS_6vectorINS1_IiNS_9allocatorIiEEEENS2_IS4_EEEERNS2_IS6_EEE5clearB7v160006Ev, symObjAddr: 0x5FA0, symBinAddr: 0x10000AF60, symSize: 0x20 }
  - { offsetInCU: 0x12B6B, offset: 0x249D4, size: 0x8, addend: 0x0, symName: __ZNKSt3__114__split_bufferINS_6vectorINS1_IiNS_9allocatorIiEEEENS2_IS4_EEEERNS2_IS6_EEE8capacityB7v160006Ev, symObjAddr: 0x5FC0, symBinAddr: 0x10000AF80, symSize: 0x40 }
  - { offsetInCU: 0x12B8F, offset: 0x249F8, size: 0x8, addend: 0x0, symName: __ZNSt3__114__split_bufferINS_6vectorINS1_IiNS_9allocatorIiEEEENS2_IS4_EEEERNS2_IS6_EEE17__destruct_at_endB7v160006EPS6_, symObjAddr: 0x6000, symBinAddr: 0x10000AFC0, symSize: 0x30 }
  - { offsetInCU: 0x12BC0, offset: 0x24A29, size: 0x8, addend: 0x0, symName: __ZNSt3__114__split_bufferINS_6vectorINS1_IiNS_9allocatorIiEEEENS2_IS4_EEEERNS2_IS6_EEE17__destruct_at_endB7v160006EPS6_NS_17integral_constantIbLb0EEE, symObjAddr: 0x6030, symBinAddr: 0x10000AFF0, symSize: 0x80 }
  - { offsetInCU: 0x12C01, offset: 0x24A6A, size: 0x8, addend: 0x0, symName: __ZNKSt3__114__split_bufferINS_6vectorINS1_IiNS_9allocatorIiEEEENS2_IS4_EEEERNS2_IS6_EEE9__end_capB7v160006Ev, symObjAddr: 0x60B0, symBinAddr: 0x10000B070, symSize: 0x20 }
  - { offsetInCU: 0x12C25, offset: 0x24A8E, size: 0x8, addend: 0x0, symName: __ZNKSt3__117__compressed_pairIPNS_6vectorINS1_IiNS_9allocatorIiEEEENS2_IS4_EEEERNS2_IS6_EEE5firstB7v160006Ev, symObjAddr: 0x60D0, symBinAddr: 0x10000B090, symSize: 0x20 }
  - { offsetInCU: 0x12C48, offset: 0x24AB1, size: 0x8, addend: 0x0, symName: __ZNSt3__16vectorINS0_INS0_IiNS_9allocatorIiEEEENS1_IS3_EEEENS1_IS5_EEE27__invalidate_iterators_pastB7v160006EPS5_, symObjAddr: 0x60F0, symBinAddr: 0x10000B0B0, symSize: 0x10 }
  - { offsetInCU: 0x12C7F, offset: 0x24AE8, size: 0x8, addend: 0x0, symName: __ZNSt3__16vectorINS0_IiNS_9allocatorIiEEEENS1_IS3_EEEC2Em, symObjAddr: 0x6100, symBinAddr: 0x10000B0C0, symSize: 0xE0 }
  - { offsetInCU: 0x12CCD, offset: 0x24B36, size: 0x8, addend: 0x0, symName: __ZNSt3__16vectorINS0_IiNS_9allocatorIiEEEENS1_IS3_EEE18__construct_at_endEm, symObjAddr: 0x61E0, symBinAddr: 0x10000B1A0, symSize: 0xC0 }
  - { offsetInCU: 0x12D40, offset: 0x24BA9, size: 0x8, addend: 0x0, symName: __ZNSt3__116allocator_traitsINS_9allocatorINS_6vectorIiNS1_IiEEEEEEE9constructB7v160006IS4_JEvEEvRS5_PT_DpOT0_, symObjAddr: 0x62A0, symBinAddr: 0x10000B260, symSize: 0x30 }
  - { offsetInCU: 0x12D82, offset: 0x24BEB, size: 0x8, addend: 0x0, symName: __ZNSt3__19allocatorINS_6vectorIiNS0_IiEEEEE9constructB7v160006IS3_JEEEvPT_DpOT0_, symObjAddr: 0x62D0, symBinAddr: 0x10000B290, symSize: 0x20 }
  - { offsetInCU: 0x12DC2, offset: 0x24C2B, size: 0x8, addend: 0x0, symName: __ZNSt3__16vectorIiNS_9allocatorIiEEEC1B7v160006Ev, symObjAddr: 0x62F0, symBinAddr: 0x10000B2B0, symSize: 0x20 }
  - { offsetInCU: 0x12DEB, offset: 0x24C54, size: 0x8, addend: 0x0, symName: __ZNSt3__16vectorIiNS_9allocatorIiEEEC2B7v160006Ev, symObjAddr: 0x6310, symBinAddr: 0x10000B2D0, symSize: 0x60 }
  - { offsetInCU: 0x12E14, offset: 0x24C7D, size: 0x8, addend: 0x0, symName: __ZNSt3__117__compressed_pairIPiNS_9allocatorIiEEEC1B7v160006IDnNS_18__default_init_tagEEEOT_OT0_, symObjAddr: 0x6370, symBinAddr: 0x10000B330, symSize: 0x30 }
  - { offsetInCU: 0x12E6B, offset: 0x24CD4, size: 0x8, addend: 0x0, symName: __ZNSt3__117__compressed_pairIPiNS_9allocatorIiEEEC2B7v160006IDnNS_18__default_init_tagEEEOT_OT0_, symObjAddr: 0x63A0, symBinAddr: 0x10000B360, symSize: 0x40 }
  - { offsetInCU: 0x12EC2, offset: 0x24D2B, size: 0x8, addend: 0x0, symName: __ZNSt3__122__compressed_pair_elemINS_9allocatorIiEELi1ELb1EEC2B7v160006ENS_18__default_init_tagE, symObjAddr: 0x63E0, symBinAddr: 0x10000B3A0, symSize: 0x20 }
  - { offsetInCU: 0x12EF6, offset: 0x24D5F, size: 0x8, addend: 0x0, symName: __ZNSt3__19allocatorIiEC2B7v160006Ev, symObjAddr: 0x6400, symBinAddr: 0x10000B3C0, symSize: 0x20 }
  - { offsetInCU: 0x12F1F, offset: 0x24D88, size: 0x8, addend: 0x0, symName: __ZNSt3__116__non_trivial_ifILb1ENS_9allocatorIiEEEC2B7v160006Ev, symObjAddr: 0x6420, symBinAddr: 0x10000B3E0, symSize: 0x10 }
  - { offsetInCU: 0x12F48, offset: 0x24DB1, size: 0x8, addend: 0x0, symName: __ZNSt3__16vectorI8PositionNS_9allocatorIS1_EEE19__copy_assign_allocB7v160006ERKS4_, symObjAddr: 0x6430, symBinAddr: 0x10000B3F0, symSize: 0x30 }
  - { offsetInCU: 0x12F7A, offset: 0x24DE3, size: 0x8, addend: 0x0, symName: __ZNSt3__16vectorI8PositionNS_9allocatorIS1_EEE6assignIPS1_Li0EEEvT_S7_, symObjAddr: 0x6460, symBinAddr: 0x10000B420, symSize: 0x160 }
  - { offsetInCU: 0x1301A, offset: 0x24E83, size: 0x8, addend: 0x0, symName: __ZNSt3__16vectorI8PositionNS_9allocatorIS1_EEE19__copy_assign_allocB7v160006ERKS4_NS_17integral_constantIbLb0EEE, symObjAddr: 0x65C0, symBinAddr: 0x10000B580, symSize: 0x10 }
  - { offsetInCU: 0x13055, offset: 0x24EBE, size: 0x8, addend: 0x0, symName: __ZNSt3__16vectorI8PositionNS_9allocatorIS1_EEE18__construct_at_endIPS1_Li0EEEvT_S7_m, symObjAddr: 0x6690, symBinAddr: 0x10000B650, symSize: 0x90 }
  - { offsetInCU: 0x130C8, offset: 0x24F31, size: 0x8, addend: 0x0, symName: __ZNSt3__16vectorI8PositionNS_9allocatorIS1_EEE17__destruct_at_endB7v160006EPS1_, symObjAddr: 0x6720, symBinAddr: 0x10000B6E0, symSize: 0x60 }
  - { offsetInCU: 0x13109, offset: 0x24F72, size: 0x8, addend: 0x0, symName: __ZNSt3__16vectorI8PositionNS_9allocatorIS1_EEE13__vdeallocateEv, symObjAddr: 0x6780, symBinAddr: 0x10000B740, symSize: 0x80 }
  - { offsetInCU: 0x13131, offset: 0x24F9A, size: 0x8, addend: 0x0, symName: __ZNSt3__16vectorI8PositionNS_9allocatorIS1_EEE11__vallocateB7v160006Em, symObjAddr: 0x6800, symBinAddr: 0x10000B7C0, symSize: 0xA0 }
  - { offsetInCU: 0x13172, offset: 0x24FDB, size: 0x8, addend: 0x0, symName: __ZNKSt3__16vectorI8PositionNS_9allocatorIS1_EEE11__recommendB7v160006Em, symObjAddr: 0x68A0, symBinAddr: 0x10000B860, symSize: 0xA0 }
  - { offsetInCU: 0x131EA, offset: 0x25053, size: 0x8, addend: 0x0, symName: __ZNKSt3__114__copy_trivialclB7v160006I8PositionS2_Li0EEENS_4pairIPT_PT0_EES5_S5_S7_, symObjAddr: 0x6B10, symBinAddr: 0x10000BAC0, symSize: 0x40 }
  - { offsetInCU: 0x13255, offset: 0x250BE, size: 0x8, addend: 0x0, symName: __ZNSt3__14pairIP8PositionS2_EC1B7v160006IRS2_S2_LPv0EEEOT_OT0_, symObjAddr: 0x6CB0, symBinAddr: 0x10000BC60, symSize: 0x30 }
  - { offsetInCU: 0x132B2, offset: 0x2511B, size: 0x8, addend: 0x0, symName: __ZNSt3__14pairIP8PositionS2_EC2B7v160006IRS2_S2_LPv0EEEOT_OT0_, symObjAddr: 0x6CE0, symBinAddr: 0x10000BC90, symSize: 0x30 }
  - { offsetInCU: 0x1330F, offset: 0x25178, size: 0x8, addend: 0x0, symName: __ZNSt3__118__unwrap_iter_implIP8PositionLb1EE8__unwrapB7v160006ES2_, symObjAddr: 0x6D10, symBinAddr: 0x10000BCC0, symSize: 0x20 }
  - { offsetInCU: 0x13332, offset: 0x2519B, size: 0x8, addend: 0x0, symName: __ZNSt3__14pairIP8PositionS2_EC1B7v160006IS2_S2_LPv0EEEOT_OT0_, symObjAddr: 0x6D30, symBinAddr: 0x10000BCE0, symSize: 0x30 }
  - { offsetInCU: 0x1338F, offset: 0x251F8, size: 0x8, addend: 0x0, symName: __ZNSt3__14pairIP8PositionS2_EC2B7v160006IS2_S2_LPv0EEEOT_OT0_, symObjAddr: 0x6D60, symBinAddr: 0x10000BD10, symSize: 0x30 }
  - { offsetInCU: 0x133EC, offset: 0x25255, size: 0x8, addend: 0x0, symName: __ZNSt3__118__unwrap_iter_implIP8PositionLb1EE8__rewrapB7v160006ES2_S2_, symObjAddr: 0x6D90, symBinAddr: 0x10000BD40, symSize: 0x50 }
  - { offsetInCU: 0x13436, offset: 0x2529F, size: 0x8, addend: 0x0, symName: __ZNSt3__16vectorI8PositionNS_9allocatorIS1_EEE21_ConstructTransactionC1B7v160006ERS4_m, symObjAddr: 0x6DE0, symBinAddr: 0x10000BD90, symSize: 0x30 }
  - { offsetInCU: 0x1347D, offset: 0x252E6, size: 0x8, addend: 0x0, symName: __ZNSt3__16vectorI8PositionNS_9allocatorIS1_EEE21_ConstructTransactionD1B7v160006Ev, symObjAddr: 0x6F10, symBinAddr: 0x10000BEC0, symSize: 0x20 }
  - { offsetInCU: 0x134A6, offset: 0x2530F, size: 0x8, addend: 0x0, symName: __ZNSt3__16vectorI8PositionNS_9allocatorIS1_EEE21_ConstructTransactionC2B7v160006ERS4_m, symObjAddr: 0x6F30, symBinAddr: 0x10000BEE0, symSize: 0x40 }
  - { offsetInCU: 0x134ED, offset: 0x25356, size: 0x8, addend: 0x0, symName: __ZNSt3__129_AllocatorDestroyRangeReverseINS_9allocatorI8PositionEEPS2_EC1B7v160006ERS3_RS4_S7_, symObjAddr: 0x6FD0, symBinAddr: 0x10000BF80, symSize: 0x40 }
  - { offsetInCU: 0x13543, offset: 0x253AC, size: 0x8, addend: 0x0, symName: __ZNSt3__116allocator_traitsINS_9allocatorI8PositionEEE9constructB7v160006IS2_JRS2_EvEEvRS3_PT_DpOT0_, symObjAddr: 0x7010, symBinAddr: 0x10000BFC0, symSize: 0x30 }
  - { offsetInCU: 0x1359A, offset: 0x25403, size: 0x8, addend: 0x0, symName: __ZNSt3__128__exception_guard_exceptionsINS_29_AllocatorDestroyRangeReverseINS_9allocatorI8PositionEEPS3_EEE10__completeB7v160006Ev, symObjAddr: 0x7040, symBinAddr: 0x10000BFF0, symSize: 0x20 }
  - { offsetInCU: 0x135BE, offset: 0x25427, size: 0x8, addend: 0x0, symName: __ZNSt3__128__exception_guard_exceptionsINS_29_AllocatorDestroyRangeReverseINS_9allocatorI8PositionEEPS3_EEED1B7v160006Ev, symObjAddr: 0x7060, symBinAddr: 0x10000C010, symSize: 0x20 }
  - { offsetInCU: 0x135E7, offset: 0x25450, size: 0x8, addend: 0x0, symName: __ZNSt3__128__exception_guard_exceptionsINS_29_AllocatorDestroyRangeReverseINS_9allocatorI8PositionEEPS3_EEEC1B7v160006ES6_, symObjAddr: 0x7080, symBinAddr: 0x10000C030, symSize: 0x40 }
  - { offsetInCU: 0x1361E, offset: 0x25487, size: 0x8, addend: 0x0, symName: __ZNSt3__128__exception_guard_exceptionsINS_29_AllocatorDestroyRangeReverseINS_9allocatorI8PositionEEPS3_EEEC2B7v160006ES6_, symObjAddr: 0x70C0, symBinAddr: 0x10000C070, symSize: 0x30 }
  - { offsetInCU: 0x13655, offset: 0x254BE, size: 0x8, addend: 0x0, symName: __ZNSt3__129_AllocatorDestroyRangeReverseINS_9allocatorI8PositionEEPS2_EC2B7v160006ERS3_RS4_S7_, symObjAddr: 0x70F0, symBinAddr: 0x10000C0A0, symSize: 0x40 }
  - { offsetInCU: 0x136AB, offset: 0x25514, size: 0x8, addend: 0x0, symName: __ZNSt3__19allocatorI8PositionE9constructB7v160006IS1_JRS1_EEEvPT_DpOT0_, symObjAddr: 0x7130, symBinAddr: 0x10000C0E0, symSize: 0x20 }
  - { offsetInCU: 0x136FF, offset: 0x25568, size: 0x8, addend: 0x0, symName: __ZNSt3__128__exception_guard_exceptionsINS_29_AllocatorDestroyRangeReverseINS_9allocatorI8PositionEEPS3_EEED2B7v160006Ev, symObjAddr: 0x7150, symBinAddr: 0x10000C100, symSize: 0x40 }
  - { offsetInCU: 0x13728, offset: 0x25591, size: 0x8, addend: 0x0, symName: __ZNKSt3__129_AllocatorDestroyRangeReverseINS_9allocatorI8PositionEEPS2_EclB7v160006Ev, symObjAddr: 0x7190, symBinAddr: 0x10000C140, symSize: 0x60 }
  - { offsetInCU: 0x1374C, offset: 0x255B5, size: 0x8, addend: 0x0, symName: __ZNSt3__116reverse_iteratorIP8PositionEC1B7v160006ES2_, symObjAddr: 0x7260, symBinAddr: 0x10000C210, symSize: 0x30 }
  - { offsetInCU: 0x13783, offset: 0x255EC, size: 0x8, addend: 0x0, symName: __ZNSt3__116reverse_iteratorIP8PositionEppB7v160006Ev, symObjAddr: 0x72F0, symBinAddr: 0x10000C2A0, symSize: 0x20 }
  - { offsetInCU: 0x137A7, offset: 0x25610, size: 0x8, addend: 0x0, symName: __ZNKSt3__116reverse_iteratorIP8PositionE4baseB7v160006Ev, symObjAddr: 0x7310, symBinAddr: 0x10000C2C0, symSize: 0x20 }
  - { offsetInCU: 0x137D0, offset: 0x25639, size: 0x8, addend: 0x0, symName: __ZNSt3__119__to_address_helperINS_16reverse_iteratorIP8PositionEEvE6__callB7v160006ERKS4_, symObjAddr: 0x7330, symBinAddr: 0x10000C2E0, symSize: 0x40 }
  - { offsetInCU: 0x137F3, offset: 0x2565C, size: 0x8, addend: 0x0, symName: __ZNKSt3__116reverse_iteratorIP8PositionEptB7v160006Ev, symObjAddr: 0x7370, symBinAddr: 0x10000C320, symSize: 0x20 }
  - { offsetInCU: 0x13817, offset: 0x25680, size: 0x8, addend: 0x0, symName: __ZNKSt3__116reverse_iteratorIP8PositionEdeB7v160006Ev, symObjAddr: 0x7390, symBinAddr: 0x10000C340, symSize: 0x30 }
  - { offsetInCU: 0x13849, offset: 0x256B2, size: 0x8, addend: 0x0, symName: __ZNSt3__116reverse_iteratorIP8PositionEC2B7v160006ES2_, symObjAddr: 0x73C0, symBinAddr: 0x10000C370, symSize: 0x30 }
  - { offsetInCU: 0x13880, offset: 0x256E9, size: 0x8, addend: 0x0, symName: __ZNSt3__16vectorI8PositionNS_9allocatorIS1_EEE21_ConstructTransactionD2B7v160006Ev, symObjAddr: 0x73F0, symBinAddr: 0x10000C3A0, symSize: 0x20 }
  - { offsetInCU: 0x138A8, offset: 0x25711, size: 0x8, addend: 0x0, symName: __ZNSt3__16vectorI8PositionNS_9allocatorIS1_EEE27__invalidate_iterators_pastB7v160006EPS1_, symObjAddr: 0x7410, symBinAddr: 0x10000C3C0, symSize: 0x10 }
  - { offsetInCU: 0x138DF, offset: 0x25748, size: 0x8, addend: 0x0, symName: __ZNSt3__16vectorI8PositionNS_9allocatorIS1_EEE9__end_capB7v160006Ev, symObjAddr: 0x7420, symBinAddr: 0x10000C3D0, symSize: 0x20 }
  - { offsetInCU: 0x13903, offset: 0x2576C, size: 0x8, addend: 0x0, symName: __ZNSt3__117__compressed_pairIP8PositionNS_9allocatorIS1_EEE5firstB7v160006Ev, symObjAddr: 0x7440, symBinAddr: 0x10000C3F0, symSize: 0x20 }
  - { offsetInCU: 0x13927, offset: 0x25790, size: 0x8, addend: 0x0, symName: __ZNSt3__122__compressed_pair_elemIP8PositionLi0ELb0EE5__getB7v160006Ev, symObjAddr: 0x7460, symBinAddr: 0x10000C410, symSize: 0x10 }
  - { offsetInCU: 0x1394A, offset: 0x257B3, size: 0x8, addend: 0x0, symName: __ZNKSt3__16vectorI8PositionNS_9allocatorIS1_EEE8max_sizeEv, symObjAddr: 0x7470, symBinAddr: 0x10000C420, symSize: 0x60 }
  - { offsetInCU: 0x13972, offset: 0x257DB, size: 0x8, addend: 0x0, symName: __ZNKSt3__16vectorI8PositionNS_9allocatorIS1_EEE20__throw_length_errorB7v160006Ev, symObjAddr: 0x74D0, symBinAddr: 0x10000C480, symSize: 0x20 }
  - { offsetInCU: 0x13996, offset: 0x257FF, size: 0x8, addend: 0x0, symName: __ZNKSt3__16vectorI8PositionNS_9allocatorIS1_EEE14__annotate_newB7v160006Em, symObjAddr: 0x7530, symBinAddr: 0x10000C4E0, symSize: 0xB0 }
  - { offsetInCU: 0x139D3, offset: 0x2583C, size: 0x8, addend: 0x0, symName: __ZNSt3__116allocator_traitsINS_9allocatorI8PositionEEE8max_sizeB7v160006IS3_vEEmRKS3_, symObjAddr: 0x75E0, symBinAddr: 0x10000C590, symSize: 0x20 }
  - { offsetInCU: 0x13A01, offset: 0x2586A, size: 0x8, addend: 0x0, symName: __ZNKSt3__16vectorI8PositionNS_9allocatorIS1_EEE7__allocB7v160006Ev, symObjAddr: 0x7600, symBinAddr: 0x10000C5B0, symSize: 0x20 }
  - { offsetInCU: 0x13A25, offset: 0x2588E, size: 0x8, addend: 0x0, symName: __ZNKSt3__19allocatorI8PositionE8max_sizeB7v160006Ev, symObjAddr: 0x7620, symBinAddr: 0x10000C5D0, symSize: 0x20 }
  - { offsetInCU: 0x13A49, offset: 0x258B2, size: 0x8, addend: 0x0, symName: __ZNKSt3__117__compressed_pairIP8PositionNS_9allocatorIS1_EEE6secondB7v160006Ev, symObjAddr: 0x7640, symBinAddr: 0x10000C5F0, symSize: 0x20 }
  - { offsetInCU: 0x13A6D, offset: 0x258D6, size: 0x8, addend: 0x0, symName: __ZNKSt3__122__compressed_pair_elemINS_9allocatorI8PositionEELi1ELb1EE5__getB7v160006Ev, symObjAddr: 0x7660, symBinAddr: 0x10000C610, symSize: 0x10 }
  - { offsetInCU: 0x13A91, offset: 0x258FA, size: 0x8, addend: 0x0, symName: __ZNSt3__19allocatorI8PositionE8allocateB7v160006Em, symObjAddr: 0x7670, symBinAddr: 0x10000C620, symSize: 0x50 }
  - { offsetInCU: 0x13AC2, offset: 0x2592B, size: 0x8, addend: 0x0, symName: __ZNKSt3__16vectorINS0_INS0_IiNS_9allocatorIiEEEENS1_IS3_EEEENS1_IS5_EEEixB7v160006Em, symObjAddr: 0x76C0, symBinAddr: 0x10000C670, symSize: 0x20 }
  - { offsetInCU: 0x13AF8, offset: 0x25961, size: 0x8, addend: 0x0, symName: __ZNKSt3__16vectorINS0_IiNS_9allocatorIiEEEENS1_IS3_EEEixB7v160006Em, symObjAddr: 0x76E0, symBinAddr: 0x10000C690, symSize: 0x20 }
  - { offsetInCU: 0x13B2F, offset: 0x25998, size: 0x8, addend: 0x0, symName: __ZNKSt3__111__wrap_iterIPNS_4pairI8PositioniEEE4baseB7v160006Ev, symObjAddr: 0x7740, symBinAddr: 0x10000C6F0, symSize: 0x20 }
  - { offsetInCU: 0x13B53, offset: 0x259BC, size: 0x8, addend: 0x0, symName: __ZN4GridC2ERKS_, symObjAddr: 0x7760, symBinAddr: 0x10000C710, symSize: 0x80 }
  - { offsetInCU: 0x13B87, offset: 0x259F0, size: 0x8, addend: 0x0, symName: __ZN4GridC2EOS_, symObjAddr: 0x77E0, symBinAddr: 0x10000C790, symSize: 0x50 }
  - { offsetInCU: 0x13BBB, offset: 0x25A24, size: 0x8, addend: 0x0, symName: __ZNSt3__112basic_stringIcNS_11char_traitsIcEENS_9allocatorIcEEEC1B7v160006EOS5_, symObjAddr: 0x7830, symBinAddr: 0x10000C7E0, symSize: 0x30 }
  - { offsetInCU: 0x13BF3, offset: 0x25A5C, size: 0x8, addend: 0x0, symName: __ZNSt3__112basic_stringIcNS_11char_traitsIcEENS_9allocatorIcEEEC2B7v160006EOS5_, symObjAddr: 0x7860, symBinAddr: 0x10000C810, symSize: 0x80 }
  - { offsetInCU: 0x13C2B, offset: 0x25A94, size: 0x8, addend: 0x0, symName: __ZNKSt3__111__wrap_iterIPKiE4baseB7v160006Ev, symObjAddr: 0x7990, symBinAddr: 0x10000C8E0, symSize: 0x20 }
  - { offsetInCU: 0x13C4E, offset: 0x25AB7, size: 0x8, addend: 0x0, symName: __ZNSt3__16vectorINS0_IiNS_9allocatorIiEEEENS1_IS3_EEEaSB7v160006EOS5_, symObjAddr: 0x79B0, symBinAddr: 0x10000C900, symSize: 0x30 }
  - { offsetInCU: 0x13C85, offset: 0x25AEE, size: 0x8, addend: 0x0, symName: __ZNSt3__112basic_stringIcNS_11char_traitsIcEENS_9allocatorIcEEEaSB7v160006EOS5_, symObjAddr: 0x79E0, symBinAddr: 0x10000C930, symSize: 0x30 }
  - { offsetInCU: 0x13CB7, offset: 0x25B20, size: 0x8, addend: 0x0, symName: __ZNSt3__16vectorINS0_IiNS_9allocatorIiEEEENS1_IS3_EEE13__move_assignERS5_NS_17integral_constantIbLb1EEE, symObjAddr: 0x7A10, symBinAddr: 0x10000C960, symSize: 0xA0 }
  - { offsetInCU: 0x13CF9, offset: 0x25B62, size: 0x8, addend: 0x0, symName: __ZNSt3__16vectorINS0_IiNS_9allocatorIiEEEENS1_IS3_EEE13__vdeallocateEv, symObjAddr: 0x7AB0, symBinAddr: 0x10000CA00, symSize: 0x80 }
  - { offsetInCU: 0x13D21, offset: 0x25B8A, size: 0x8, addend: 0x0, symName: __ZNSt3__16vectorINS0_IiNS_9allocatorIiEEEENS1_IS3_EEE19__move_assign_allocB7v160006ERS5_, symObjAddr: 0x7B30, symBinAddr: 0x10000CA80, symSize: 0x30 }
  - { offsetInCU: 0x13D54, offset: 0x25BBD, size: 0x8, addend: 0x0, symName: __ZNSt3__16vectorINS0_IiNS_9allocatorIiEEEENS1_IS3_EEE5clearB7v160006Ev, symObjAddr: 0x7B60, symBinAddr: 0x10000CAB0, symSize: 0x50 }
  - { offsetInCU: 0x13D87, offset: 0x25BF0, size: 0x8, addend: 0x0, symName: __ZNKSt3__16vectorINS0_IiNS_9allocatorIiEEEENS1_IS3_EEE17__annotate_shrinkB7v160006Em, symObjAddr: 0x7BB0, symBinAddr: 0x10000CB00, symSize: 0xA0 }
  - { offsetInCU: 0x13DBA, offset: 0x25C23, size: 0x8, addend: 0x0, symName: __ZNSt3__16vectorINS0_IiNS_9allocatorIiEEEENS1_IS3_EEE19__move_assign_allocB7v160006ERS5_NS_17integral_constantIbLb1EEE, symObjAddr: 0x7C60, symBinAddr: 0x10000CBB0, symSize: 0x30 }
  - { offsetInCU: 0x13DF8, offset: 0x25C61, size: 0x8, addend: 0x0, symName: __ZNSt3__112basic_stringIcNS_11char_traitsIcEENS_9allocatorIcEEE13__move_assignB7v160006ERS5_NS_17integral_constantIbLb1EEE, symObjAddr: 0x7C90, symBinAddr: 0x10000CBE0, symSize: 0xD0 }
  - { offsetInCU: 0x13E3B, offset: 0x25CA4, size: 0x8, addend: 0x0, symName: __ZNSt3__116allocator_traitsINS_9allocatorIcEEE10deallocateB7v160006ERS2_Pcm, symObjAddr: 0x7D60, symBinAddr: 0x10000CCB0, symSize: 0x30 }
  - { offsetInCU: 0x13E7D, offset: 0x25CE6, size: 0x8, addend: 0x0, symName: __ZNKSt3__112basic_stringIcNS_11char_traitsIcEENS_9allocatorIcEEE14__get_long_capB7v160006Ev, symObjAddr: 0x7DD0, symBinAddr: 0x10000CCE0, symSize: 0x30 }
  - { offsetInCU: 0x13EA1, offset: 0x25D0A, size: 0x8, addend: 0x0, symName: __ZNSt3__112basic_stringIcNS_11char_traitsIcEENS_9allocatorIcEEE19__move_assign_allocB7v160006ERS5_, symObjAddr: 0x7E00, symBinAddr: 0x10000CD10, symSize: 0x30 }
  - { offsetInCU: 0x13ED4, offset: 0x25D3D, size: 0x8, addend: 0x0, symName: __ZNSt3__19allocatorIcE10deallocateB7v160006EPcm, symObjAddr: 0x7ED0, symBinAddr: 0x10000CD40, symSize: 0x40 }
  - { offsetInCU: 0x13F14, offset: 0x25D7D, size: 0x8, addend: 0x0, symName: __ZNSt3__112basic_stringIcNS_11char_traitsIcEENS_9allocatorIcEEE19__move_assign_allocB7v160006ERS5_NS_17integral_constantIbLb1EEE, symObjAddr: 0x7F40, symBinAddr: 0x10000CD80, symSize: 0x30 }
  - { offsetInCU: 0x13F53, offset: 0x25DBC, size: 0x8, addend: 0x0, symName: __ZNSt3__16vectorINS_4pairI8PositioniEENS_9allocatorIS3_EEED2B7v160006Ev, symObjAddr: 0x88D0, symBinAddr: 0x10000CDB0, symSize: 0x40 }
  - { offsetInCU: 0x13F7C, offset: 0x25DE5, size: 0x8, addend: 0x0, symName: __ZNSt3__16vectorINS_4pairI8PositioniEENS_9allocatorIS3_EEE16__destroy_vectorC1ERS6_, symObjAddr: 0x8910, symBinAddr: 0x10000CDF0, symSize: 0x30 }
  - { offsetInCU: 0x13FB4, offset: 0x25E1D, size: 0x8, addend: 0x0, symName: __ZNSt3__16vectorINS_4pairI8PositioniEENS_9allocatorIS3_EEE16__destroy_vectorclB7v160006Ev, symObjAddr: 0x8940, symBinAddr: 0x10000CE20, symSize: 0x90 }
  - { offsetInCU: 0x13FD8, offset: 0x25E41, size: 0x8, addend: 0x0, symName: __ZNSt3__16vectorINS_4pairI8PositioniEENS_9allocatorIS3_EEE16__destroy_vectorC2ERS6_, symObjAddr: 0x89D0, symBinAddr: 0x10000CEB0, symSize: 0x20 }
  - { offsetInCU: 0x14010, offset: 0x25E79, size: 0x8, addend: 0x0, symName: __ZNKSt3__16vectorINS_4pairI8PositioniEENS_9allocatorIS3_EEE17__annotate_deleteB7v160006Ev, symObjAddr: 0x89F0, symBinAddr: 0x10000CED0, symSize: 0xB0 }
  - { offsetInCU: 0x14034, offset: 0x25E9D, size: 0x8, addend: 0x0, symName: __ZNSt3__16vectorINS_4pairI8PositioniEENS_9allocatorIS3_EEE7__clearB7v160006Ev, symObjAddr: 0x8AB0, symBinAddr: 0x10000CF90, symSize: 0x20 }
  - { offsetInCU: 0x14058, offset: 0x25EC1, size: 0x8, addend: 0x0, symName: __ZNSt3__116allocator_traitsINS_9allocatorINS_4pairI8PositioniEEEEE10deallocateB7v160006ERS5_PS4_m, symObjAddr: 0x8AD0, symBinAddr: 0x10000CFB0, symSize: 0x30 }
  - { offsetInCU: 0x1409A, offset: 0x25F03, size: 0x8, addend: 0x0, symName: __ZNSt3__16vectorINS_4pairI8PositioniEENS_9allocatorIS3_EEE7__allocB7v160006Ev, symObjAddr: 0x8B00, symBinAddr: 0x10000CFE0, symSize: 0x20 }
  - { offsetInCU: 0x140BE, offset: 0x25F27, size: 0x8, addend: 0x0, symName: __ZNKSt3__16vectorINS_4pairI8PositioniEENS_9allocatorIS3_EEE8capacityB7v160006Ev, symObjAddr: 0x8B20, symBinAddr: 0x10000D000, symSize: 0x40 }
  - { offsetInCU: 0x140E2, offset: 0x25F4B, size: 0x8, addend: 0x0, symName: __ZNKSt3__16vectorINS_4pairI8PositioniEENS_9allocatorIS3_EEE31__annotate_contiguous_containerB7v160006EPKvS8_S8_S8_, symObjAddr: 0x8B60, symBinAddr: 0x10000D040, symSize: 0x20 }
  - { offsetInCU: 0x14136, offset: 0x25F9F, size: 0x8, addend: 0x0, symName: __ZNKSt3__16vectorINS_4pairI8PositioniEENS_9allocatorIS3_EEE4dataB7v160006Ev, symObjAddr: 0x8B80, symBinAddr: 0x10000D060, symSize: 0x20 }
  - { offsetInCU: 0x1415A, offset: 0x25FC3, size: 0x8, addend: 0x0, symName: __ZNKSt3__16vectorINS_4pairI8PositioniEENS_9allocatorIS3_EEE4sizeB7v160006Ev, symObjAddr: 0x8BA0, symBinAddr: 0x10000D080, symSize: 0x30 }
  - { offsetInCU: 0x1417E, offset: 0x25FE7, size: 0x8, addend: 0x0, symName: __ZNSt3__16vectorINS_4pairI8PositioniEENS_9allocatorIS3_EEE22__base_destruct_at_endB7v160006EPS3_, symObjAddr: 0x8BE0, symBinAddr: 0x10000D0C0, symSize: 0x80 }
  - { offsetInCU: 0x141C0, offset: 0x26029, size: 0x8, addend: 0x0, symName: __ZNSt3__116allocator_traitsINS_9allocatorINS_4pairI8PositioniEEEEE7destroyB7v160006IS4_vEEvRS5_PT_, symObjAddr: 0x8C60, symBinAddr: 0x10000D140, symSize: 0x30 }
  - { offsetInCU: 0x141FD, offset: 0x26066, size: 0x8, addend: 0x0, symName: __ZNSt3__19allocatorINS_4pairI8PositioniEEE7destroyB7v160006EPS3_, symObjAddr: 0x8C90, symBinAddr: 0x10000D170, symSize: 0x10 }
  - { offsetInCU: 0x1422F, offset: 0x26098, size: 0x8, addend: 0x0, symName: __ZNSt3__19allocatorINS_4pairI8PositioniEEE10deallocateB7v160006EPS3_m, symObjAddr: 0x8CA0, symBinAddr: 0x10000D180, symSize: 0x50 }
  - { offsetInCU: 0x1426F, offset: 0x260D8, size: 0x8, addend: 0x0, symName: __ZNSt3__117__compressed_pairIPNS_4pairI8PositioniEENS_9allocatorIS3_EEE6secondB7v160006Ev, symObjAddr: 0x8CF0, symBinAddr: 0x10000D1D0, symSize: 0x20 }
  - { offsetInCU: 0x14293, offset: 0x260FC, size: 0x8, addend: 0x0, symName: __ZNSt3__122__compressed_pair_elemINS_9allocatorINS_4pairI8PositioniEEEELi1ELb1EE5__getB7v160006Ev, symObjAddr: 0x8D10, symBinAddr: 0x10000D1F0, symSize: 0x10 }
  - { offsetInCU: 0x142B7, offset: 0x26120, size: 0x8, addend: 0x0, symName: __ZNKSt3__16vectorINS_4pairI8PositioniEENS_9allocatorIS3_EEE9__end_capB7v160006Ev, symObjAddr: 0x8D20, symBinAddr: 0x10000D200, symSize: 0x20 }
  - { offsetInCU: 0x142DB, offset: 0x26144, size: 0x8, addend: 0x0, symName: __ZNKSt3__117__compressed_pairIPNS_4pairI8PositioniEENS_9allocatorIS3_EEE5firstB7v160006Ev, symObjAddr: 0x8D40, symBinAddr: 0x10000D220, symSize: 0x20 }
  - { offsetInCU: 0x142FF, offset: 0x26168, size: 0x8, addend: 0x0, symName: __ZNKSt3__122__compressed_pair_elemIPNS_4pairI8PositioniEELi0ELb0EE5__getB7v160006Ev, symObjAddr: 0x8D60, symBinAddr: 0x10000D240, symSize: 0x10 }
  - { offsetInCU: 0x14323, offset: 0x2618C, size: 0x8, addend: 0x0, symName: __ZNSt3__16vectorINS_4pairI8PositioniEENS_9allocatorIS3_EEE11__make_iterB7v160006EPS3_, symObjAddr: 0x8D70, symBinAddr: 0x10000D250, symSize: 0x30 }
  - { offsetInCU: 0x14356, offset: 0x261BF, size: 0x8, addend: 0x0, symName: __ZNSt3__111__wrap_iterIPNS_4pairI8PositioniEEEC1B7v160006EPKvS4_, symObjAddr: 0x8DA0, symBinAddr: 0x10000D280, symSize: 0x30 }
  - { offsetInCU: 0x1439B, offset: 0x26204, size: 0x8, addend: 0x0, symName: __ZNSt3__111__wrap_iterIPNS_4pairI8PositioniEEEC2B7v160006EPKvS4_, symObjAddr: 0x8DD0, symBinAddr: 0x10000D2B0, symSize: 0x20 }
  - { offsetInCU: 0x143E0, offset: 0x26249, size: 0x8, addend: 0x0, symName: __ZNSt3__16vectorI4GridNS_9allocatorIS1_EEEC2B7v160006ESt16initializer_listIS1_E, symObjAddr: 0x8DF0, symBinAddr: 0x10000D2D0, symSize: 0x120 }
  - { offsetInCU: 0x1442F, offset: 0x26298, size: 0x8, addend: 0x0, symName: __ZNSt3__117__compressed_pairIP4GridNS_9allocatorIS1_EEEC1B7v160006IDnNS_18__default_init_tagEEEOT_OT0_, symObjAddr: 0x8F10, symBinAddr: 0x10000D3F0, symSize: 0x30 }
  - { offsetInCU: 0x14486, offset: 0x262EF, size: 0x8, addend: 0x0, symName: __ZNSt3__16vectorI4GridNS_9allocatorIS1_EEE16__destroy_vectorC1ERS4_, symObjAddr: 0x8F80, symBinAddr: 0x10000D460, symSize: 0x30 }
  - { offsetInCU: 0x144BE, offset: 0x26327, size: 0x8, addend: 0x0, symName: __ZNKSt16initializer_listI4GridE4sizeB7v160006Ev, symObjAddr: 0x8FC0, symBinAddr: 0x10000D4A0, symSize: 0x20 }
  - { offsetInCU: 0x144E2, offset: 0x2634B, size: 0x8, addend: 0x0, symName: __ZNSt3__16vectorI4GridNS_9allocatorIS1_EEE11__vallocateB7v160006Em, symObjAddr: 0x8FE0, symBinAddr: 0x10000D4C0, symSize: 0xA0 }
  - { offsetInCU: 0x14523, offset: 0x2638C, size: 0x8, addend: 0x0, symName: __ZNSt3__16vectorI4GridNS_9allocatorIS1_EEE18__construct_at_endIPKS1_Li0EEEvT_S8_m, symObjAddr: 0x9080, symBinAddr: 0x10000D560, symSize: 0x90 }
  - { offsetInCU: 0x14596, offset: 0x263FF, size: 0x8, addend: 0x0, symName: __ZNKSt16initializer_listI4GridE5beginB7v160006Ev, symObjAddr: 0x9110, symBinAddr: 0x10000D5F0, symSize: 0x20 }
  - { offsetInCU: 0x145BA, offset: 0x26423, size: 0x8, addend: 0x0, symName: __ZNKSt16initializer_listI4GridE3endB7v160006Ev, symObjAddr: 0x9130, symBinAddr: 0x10000D610, symSize: 0x20 }
  - { offsetInCU: 0x145DE, offset: 0x26447, size: 0x8, addend: 0x0, symName: __ZNSt3__128__exception_guard_exceptionsINS_6vectorI4GridNS_9allocatorIS2_EEE16__destroy_vectorEE10__completeB7v160006Ev, symObjAddr: 0x9150, symBinAddr: 0x10000D630, symSize: 0x20 }
  - { offsetInCU: 0x14602, offset: 0x2646B, size: 0x8, addend: 0x0, symName: __ZNSt3__128__exception_guard_exceptionsINS_6vectorI4GridNS_9allocatorIS2_EEE16__destroy_vectorEED1B7v160006Ev, symObjAddr: 0x9170, symBinAddr: 0x10000D650, symSize: 0x20 }
  - { offsetInCU: 0x1462B, offset: 0x26494, size: 0x8, addend: 0x0, symName: __ZNSt3__117__compressed_pairIP4GridNS_9allocatorIS1_EEEC2B7v160006IDnNS_18__default_init_tagEEEOT_OT0_, symObjAddr: 0x9190, symBinAddr: 0x10000D670, symSize: 0x40 }
  - { offsetInCU: 0x14682, offset: 0x264EB, size: 0x8, addend: 0x0, symName: __ZNSt3__122__compressed_pair_elemIP4GridLi0ELb0EEC2B7v160006IDnvEEOT_, symObjAddr: 0x91D0, symBinAddr: 0x10000D6B0, symSize: 0x20 }
  - { offsetInCU: 0x146C3, offset: 0x2652C, size: 0x8, addend: 0x0, symName: __ZNSt3__122__compressed_pair_elemINS_9allocatorI4GridEELi1ELb1EEC2B7v160006ENS_18__default_init_tagE, symObjAddr: 0x91F0, symBinAddr: 0x10000D6D0, symSize: 0x20 }
  - { offsetInCU: 0x146F7, offset: 0x26560, size: 0x8, addend: 0x0, symName: __ZNSt3__19allocatorI4GridEC2B7v160006Ev, symObjAddr: 0x9210, symBinAddr: 0x10000D6F0, symSize: 0x20 }
  - { offsetInCU: 0x14720, offset: 0x26589, size: 0x8, addend: 0x0, symName: __ZNSt3__116__non_trivial_ifILb1ENS_9allocatorI4GridEEEC2B7v160006Ev, symObjAddr: 0x9230, symBinAddr: 0x10000D710, symSize: 0x10 }
  - { offsetInCU: 0x14749, offset: 0x265B2, size: 0x8, addend: 0x0, symName: __ZNSt3__128__exception_guard_exceptionsINS_6vectorI4GridNS_9allocatorIS2_EEE16__destroy_vectorEEC1B7v160006ES6_, symObjAddr: 0x9240, symBinAddr: 0x10000D720, symSize: 0x30 }
  - { offsetInCU: 0x14780, offset: 0x265E9, size: 0x8, addend: 0x0, symName: __ZNSt3__128__exception_guard_exceptionsINS_6vectorI4GridNS_9allocatorIS2_EEE16__destroy_vectorEEC2B7v160006ES6_, symObjAddr: 0x9270, symBinAddr: 0x10000D750, symSize: 0x20 }
  - { offsetInCU: 0x147B7, offset: 0x26620, size: 0x8, addend: 0x0, symName: __ZNSt3__16vectorI4GridNS_9allocatorIS1_EEE16__destroy_vectorC2ERS4_, symObjAddr: 0x9290, symBinAddr: 0x10000D770, symSize: 0x20 }
  - { offsetInCU: 0x147EE, offset: 0x26657, size: 0x8, addend: 0x0, symName: __ZNKSt3__16vectorI4GridNS_9allocatorIS1_EEE8max_sizeEv, symObjAddr: 0x92B0, symBinAddr: 0x10000D790, symSize: 0x60 }
  - { offsetInCU: 0x14816, offset: 0x2667F, size: 0x8, addend: 0x0, symName: __ZNKSt3__16vectorI4GridNS_9allocatorIS1_EEE20__throw_length_errorB7v160006Ev, symObjAddr: 0x9310, symBinAddr: 0x10000D7F0, symSize: 0x20 }
  - { offsetInCU: 0x1483A, offset: 0x266A3, size: 0x8, addend: 0x0, symName: __ZNSt3__16vectorI4GridNS_9allocatorIS1_EEE7__allocB7v160006Ev, symObjAddr: 0x9370, symBinAddr: 0x10000D850, symSize: 0x20 }
  - { offsetInCU: 0x1485E, offset: 0x266C7, size: 0x8, addend: 0x0, symName: __ZNSt3__16vectorI4GridNS_9allocatorIS1_EEE9__end_capB7v160006Ev, symObjAddr: 0x9390, symBinAddr: 0x10000D870, symSize: 0x20 }
  - { offsetInCU: 0x14882, offset: 0x266EB, size: 0x8, addend: 0x0, symName: __ZNKSt3__16vectorI4GridNS_9allocatorIS1_EEE14__annotate_newB7v160006Em, symObjAddr: 0x93B0, symBinAddr: 0x10000D890, symSize: 0xA0 }
  - { offsetInCU: 0x148BF, offset: 0x26728, size: 0x8, addend: 0x0, symName: __ZNSt3__116allocator_traitsINS_9allocatorI4GridEEE8max_sizeB7v160006IS3_vEEmRKS3_, symObjAddr: 0x9450, symBinAddr: 0x10000D930, symSize: 0x20 }
  - { offsetInCU: 0x148ED, offset: 0x26756, size: 0x8, addend: 0x0, symName: __ZNKSt3__16vectorI4GridNS_9allocatorIS1_EEE7__allocB7v160006Ev, symObjAddr: 0x9470, symBinAddr: 0x10000D950, symSize: 0x20 }
  - { offsetInCU: 0x14911, offset: 0x2677A, size: 0x8, addend: 0x0, symName: __ZNKSt3__19allocatorI4GridE8max_sizeB7v160006Ev, symObjAddr: 0x9490, symBinAddr: 0x10000D970, symSize: 0x20 }
  - { offsetInCU: 0x14935, offset: 0x2679E, size: 0x8, addend: 0x0, symName: __ZNKSt3__117__compressed_pairIP4GridNS_9allocatorIS1_EEE6secondB7v160006Ev, symObjAddr: 0x94B0, symBinAddr: 0x10000D990, symSize: 0x20 }
  - { offsetInCU: 0x14959, offset: 0x267C2, size: 0x8, addend: 0x0, symName: __ZNKSt3__122__compressed_pair_elemINS_9allocatorI4GridEELi1ELb1EE5__getB7v160006Ev, symObjAddr: 0x94D0, symBinAddr: 0x10000D9B0, symSize: 0x10 }
  - { offsetInCU: 0x1497D, offset: 0x267E6, size: 0x8, addend: 0x0, symName: __ZNSt3__19allocatorI4GridE8allocateB7v160006Em, symObjAddr: 0x94E0, symBinAddr: 0x10000D9C0, symSize: 0x50 }
  - { offsetInCU: 0x149AF, offset: 0x26818, size: 0x8, addend: 0x0, symName: __ZNSt3__117__compressed_pairIP4GridNS_9allocatorIS1_EEE6secondB7v160006Ev, symObjAddr: 0x9530, symBinAddr: 0x10000DA10, symSize: 0x20 }
  - { offsetInCU: 0x149D3, offset: 0x2683C, size: 0x8, addend: 0x0, symName: __ZNSt3__122__compressed_pair_elemINS_9allocatorI4GridEELi1ELb1EE5__getB7v160006Ev, symObjAddr: 0x9550, symBinAddr: 0x10000DA30, symSize: 0x10 }
  - { offsetInCU: 0x149F7, offset: 0x26860, size: 0x8, addend: 0x0, symName: __ZNSt3__117__compressed_pairIP4GridNS_9allocatorIS1_EEE5firstB7v160006Ev, symObjAddr: 0x9560, symBinAddr: 0x10000DA40, symSize: 0x20 }
  - { offsetInCU: 0x14A1B, offset: 0x26884, size: 0x8, addend: 0x0, symName: __ZNSt3__122__compressed_pair_elemIP4GridLi0ELb0EE5__getB7v160006Ev, symObjAddr: 0x9580, symBinAddr: 0x10000DA60, symSize: 0x10 }
  - { offsetInCU: 0x14A3F, offset: 0x268A8, size: 0x8, addend: 0x0, symName: __ZNKSt3__16vectorI4GridNS_9allocatorIS1_EEE31__annotate_contiguous_containerB7v160006EPKvS6_S6_S6_, symObjAddr: 0x9590, symBinAddr: 0x10000DA70, symSize: 0x20 }
  - { offsetInCU: 0x14A93, offset: 0x268FC, size: 0x8, addend: 0x0, symName: __ZNKSt3__16vectorI4GridNS_9allocatorIS1_EEE4dataB7v160006Ev, symObjAddr: 0x95B0, symBinAddr: 0x10000DA90, symSize: 0x20 }
  - { offsetInCU: 0x14AB7, offset: 0x26920, size: 0x8, addend: 0x0, symName: __ZNKSt3__16vectorI4GridNS_9allocatorIS1_EEE8capacityB7v160006Ev, symObjAddr: 0x95D0, symBinAddr: 0x10000DAB0, symSize: 0x40 }
  - { offsetInCU: 0x14ADB, offset: 0x26944, size: 0x8, addend: 0x0, symName: __ZNKSt3__16vectorI4GridNS_9allocatorIS1_EEE9__end_capB7v160006Ev, symObjAddr: 0x9620, symBinAddr: 0x10000DB00, symSize: 0x20 }
  - { offsetInCU: 0x14AFF, offset: 0x26968, size: 0x8, addend: 0x0, symName: __ZNKSt3__117__compressed_pairIP4GridNS_9allocatorIS1_EEE5firstB7v160006Ev, symObjAddr: 0x9640, symBinAddr: 0x10000DB20, symSize: 0x20 }
  - { offsetInCU: 0x14B23, offset: 0x2698C, size: 0x8, addend: 0x0, symName: __ZNKSt3__122__compressed_pair_elemIP4GridLi0ELb0EE5__getB7v160006Ev, symObjAddr: 0x9660, symBinAddr: 0x10000DB40, symSize: 0x10 }
  - { offsetInCU: 0x14B60, offset: 0x269C9, size: 0x8, addend: 0x0, symName: __ZNSt3__16vectorI4GridNS_9allocatorIS1_EEE21_ConstructTransactionC1B7v160006ERS4_m, symObjAddr: 0x9670, symBinAddr: 0x10000DB50, symSize: 0x30 }
  - { offsetInCU: 0x14BA7, offset: 0x26A10, size: 0x8, addend: 0x0, symName: __ZNSt3__16vectorI4GridNS_9allocatorIS1_EEE21_ConstructTransactionD1B7v160006Ev, symObjAddr: 0x97A0, symBinAddr: 0x10000DC80, symSize: 0x20 }
  - { offsetInCU: 0x14BD0, offset: 0x26A39, size: 0x8, addend: 0x0, symName: __ZNSt3__16vectorI4GridNS_9allocatorIS1_EEE21_ConstructTransactionC2B7v160006ERS4_m, symObjAddr: 0x97C0, symBinAddr: 0x10000DCA0, symSize: 0x40 }
  - { offsetInCU: 0x14C17, offset: 0x26A80, size: 0x8, addend: 0x0, symName: __ZNSt3__129_AllocatorDestroyRangeReverseINS_9allocatorI4GridEEPS2_EC1B7v160006ERS3_RS4_S7_, symObjAddr: 0x9860, symBinAddr: 0x10000DD40, symSize: 0x40 }
  - { offsetInCU: 0x14C6D, offset: 0x26AD6, size: 0x8, addend: 0x0, symName: __ZNSt3__116allocator_traitsINS_9allocatorI4GridEEE9constructB7v160006IS2_JRKS2_EvEEvRS3_PT_DpOT0_, symObjAddr: 0x98A0, symBinAddr: 0x10000DD80, symSize: 0x30 }
  - { offsetInCU: 0x14CC4, offset: 0x26B2D, size: 0x8, addend: 0x0, symName: __ZNSt3__128__exception_guard_exceptionsINS_29_AllocatorDestroyRangeReverseINS_9allocatorI4GridEEPS3_EEE10__completeB7v160006Ev, symObjAddr: 0x98D0, symBinAddr: 0x10000DDB0, symSize: 0x20 }
  - { offsetInCU: 0x14CE8, offset: 0x26B51, size: 0x8, addend: 0x0, symName: __ZNSt3__128__exception_guard_exceptionsINS_29_AllocatorDestroyRangeReverseINS_9allocatorI4GridEEPS3_EEED1B7v160006Ev, symObjAddr: 0x98F0, symBinAddr: 0x10000DDD0, symSize: 0x20 }
  - { offsetInCU: 0x14D11, offset: 0x26B7A, size: 0x8, addend: 0x0, symName: __ZNSt3__128__exception_guard_exceptionsINS_29_AllocatorDestroyRangeReverseINS_9allocatorI4GridEEPS3_EEEC1B7v160006ES6_, symObjAddr: 0x9910, symBinAddr: 0x10000DDF0, symSize: 0x40 }
  - { offsetInCU: 0x14D48, offset: 0x26BB1, size: 0x8, addend: 0x0, symName: __ZNSt3__128__exception_guard_exceptionsINS_29_AllocatorDestroyRangeReverseINS_9allocatorI4GridEEPS3_EEEC2B7v160006ES6_, symObjAddr: 0x9950, symBinAddr: 0x10000DE30, symSize: 0x30 }
  - { offsetInCU: 0x14D7F, offset: 0x26BE8, size: 0x8, addend: 0x0, symName: __ZNSt3__129_AllocatorDestroyRangeReverseINS_9allocatorI4GridEEPS2_EC2B7v160006ERS3_RS4_S7_, symObjAddr: 0x9980, symBinAddr: 0x10000DE60, symSize: 0x40 }
  - { offsetInCU: 0x14DD5, offset: 0x26C3E, size: 0x8, addend: 0x0, symName: __ZNSt3__19allocatorI4GridE9constructB7v160006IS1_JRKS1_EEEvPT_DpOT0_, symObjAddr: 0x99C0, symBinAddr: 0x10000DEA0, symSize: 0x30 }
  - { offsetInCU: 0x14E29, offset: 0x26C92, size: 0x8, addend: 0x0, symName: __ZNSt3__128__exception_guard_exceptionsINS_29_AllocatorDestroyRangeReverseINS_9allocatorI4GridEEPS3_EEED2B7v160006Ev, symObjAddr: 0x99F0, symBinAddr: 0x10000DED0, symSize: 0x40 }
  - { offsetInCU: 0x14E52, offset: 0x26CBB, size: 0x8, addend: 0x0, symName: __ZNKSt3__129_AllocatorDestroyRangeReverseINS_9allocatorI4GridEEPS2_EclB7v160006Ev, symObjAddr: 0x9A30, symBinAddr: 0x10000DF10, symSize: 0x60 }
  - { offsetInCU: 0x14E76, offset: 0x26CDF, size: 0x8, addend: 0x0, symName: __ZNSt3__116reverse_iteratorIP4GridEC1B7v160006ES2_, symObjAddr: 0x9B00, symBinAddr: 0x10000DFE0, symSize: 0x30 }
  - { offsetInCU: 0x14EAD, offset: 0x26D16, size: 0x8, addend: 0x0, symName: __ZNSt3__116allocator_traitsINS_9allocatorI4GridEEE7destroyB7v160006IS2_vEEvRS3_PT_, symObjAddr: 0x9B70, symBinAddr: 0x10000E050, symSize: 0x30 }
  - { offsetInCU: 0x14EEA, offset: 0x26D53, size: 0x8, addend: 0x0, symName: __ZNSt3__116reverse_iteratorIP4GridEppB7v160006Ev, symObjAddr: 0x9BC0, symBinAddr: 0x10000E0A0, symSize: 0x20 }
  - { offsetInCU: 0x14F0E, offset: 0x26D77, size: 0x8, addend: 0x0, symName: __ZNKSt3__116reverse_iteratorIP4GridE4baseB7v160006Ev, symObjAddr: 0x9BE0, symBinAddr: 0x10000E0C0, symSize: 0x20 }
  - { offsetInCU: 0x14F32, offset: 0x26D9B, size: 0x8, addend: 0x0, symName: __ZNSt3__19allocatorI4GridE7destroyB7v160006EPS1_, symObjAddr: 0x9C00, symBinAddr: 0x10000E0E0, symSize: 0x20 }
  - { offsetInCU: 0x14F69, offset: 0x26DD2, size: 0x8, addend: 0x0, symName: __ZNSt3__119__to_address_helperINS_16reverse_iteratorIP4GridEEvE6__callB7v160006ERKS4_, symObjAddr: 0x9C20, symBinAddr: 0x10000E100, symSize: 0x40 }
  - { offsetInCU: 0x14F8C, offset: 0x26DF5, size: 0x8, addend: 0x0, symName: __ZNKSt3__116reverse_iteratorIP4GridEptB7v160006Ev, symObjAddr: 0x9C60, symBinAddr: 0x10000E140, symSize: 0x20 }
  - { offsetInCU: 0x14FB0, offset: 0x26E19, size: 0x8, addend: 0x0, symName: __ZNKSt3__116reverse_iteratorIP4GridEdeB7v160006Ev, symObjAddr: 0x9C80, symBinAddr: 0x10000E160, symSize: 0x30 }
  - { offsetInCU: 0x14FE2, offset: 0x26E4B, size: 0x8, addend: 0x0, symName: __ZNSt3__116reverse_iteratorIP4GridEC2B7v160006ES2_, symObjAddr: 0x9CB0, symBinAddr: 0x10000E190, symSize: 0x30 }
  - { offsetInCU: 0x15019, offset: 0x26E82, size: 0x8, addend: 0x0, symName: __ZNSt3__16vectorI4GridNS_9allocatorIS1_EEE21_ConstructTransactionD2B7v160006Ev, symObjAddr: 0x9CE0, symBinAddr: 0x10000E1C0, symSize: 0x20 }
  - { offsetInCU: 0x15042, offset: 0x26EAB, size: 0x8, addend: 0x0, symName: __ZNSt3__128__exception_guard_exceptionsINS_6vectorI4GridNS_9allocatorIS2_EEE16__destroy_vectorEED2B7v160006Ev, symObjAddr: 0x9D00, symBinAddr: 0x10000E1E0, symSize: 0x40 }
  - { offsetInCU: 0x1506B, offset: 0x26ED4, size: 0x8, addend: 0x0, symName: __ZNSt3__16vectorI4GridNS_9allocatorIS1_EEE16__destroy_vectorclB7v160006Ev, symObjAddr: 0x9D40, symBinAddr: 0x10000E220, symSize: 0x90 }
  - { offsetInCU: 0x1508F, offset: 0x26EF8, size: 0x8, addend: 0x0, symName: __ZNKSt3__16vectorI4GridNS_9allocatorIS1_EEE17__annotate_deleteB7v160006Ev, symObjAddr: 0x9DD0, symBinAddr: 0x10000E2B0, symSize: 0xB0 }
  - { offsetInCU: 0x150B3, offset: 0x26F1C, size: 0x8, addend: 0x0, symName: __ZNSt3__16vectorI4GridNS_9allocatorIS1_EEE7__clearB7v160006Ev, symObjAddr: 0x9E90, symBinAddr: 0x10000E370, symSize: 0x20 }
  - { offsetInCU: 0x150D7, offset: 0x26F40, size: 0x8, addend: 0x0, symName: __ZNSt3__116allocator_traitsINS_9allocatorI4GridEEE10deallocateB7v160006ERS3_PS2_m, symObjAddr: 0x9EB0, symBinAddr: 0x10000E390, symSize: 0x30 }
  - { offsetInCU: 0x15119, offset: 0x26F82, size: 0x8, addend: 0x0, symName: __ZNKSt3__16vectorI4GridNS_9allocatorIS1_EEE4sizeB7v160006Ev, symObjAddr: 0x9EE0, symBinAddr: 0x10000E3C0, symSize: 0x30 }
  - { offsetInCU: 0x1513D, offset: 0x26FA6, size: 0x8, addend: 0x0, symName: __ZNSt3__16vectorI4GridNS_9allocatorIS1_EEE22__base_destruct_at_endB7v160006EPS1_, symObjAddr: 0x9F10, symBinAddr: 0x10000E3F0, symSize: 0x80 }
  - { offsetInCU: 0x1517F, offset: 0x26FE8, size: 0x8, addend: 0x0, symName: __ZNSt3__19allocatorI4GridE10deallocateB7v160006EPS1_m, symObjAddr: 0x9F90, symBinAddr: 0x10000E470, symSize: 0x40 }
  - { offsetInCU: 0x151BF, offset: 0x27028, size: 0x8, addend: 0x0, symName: __ZNSt3__16vectorI4GridNS_9allocatorIS1_EEED2B7v160006Ev, symObjAddr: 0x9FD0, symBinAddr: 0x10000E4B0, symSize: 0x40 }
  - { offsetInCU: 0x151E8, offset: 0x27051, size: 0x8, addend: 0x0, symName: __ZNSt3__16vectorI4GridNS_9allocatorIS1_EEE17__destruct_at_endB7v160006EPS1_, symObjAddr: 0xA010, symBinAddr: 0x10000E4F0, symSize: 0x60 }
  - { offsetInCU: 0x15229, offset: 0x27092, size: 0x8, addend: 0x0, symName: __ZNSt3__16vectorI4GridNS_9allocatorIS1_EEE27__invalidate_iterators_pastB7v160006EPS1_, symObjAddr: 0xA070, symBinAddr: 0x10000E550, symSize: 0x10 }
  - { offsetInCU: 0x15260, offset: 0x270C9, size: 0x8, addend: 0x0, symName: __ZNKSt3__16vectorI4GridNS_9allocatorIS1_EEE17__annotate_shrinkB7v160006Em, symObjAddr: 0xA080, symBinAddr: 0x10000E560, symSize: 0xA0 }
  - { offsetInCU: 0x15293, offset: 0x270FC, size: 0x8, addend: 0x0, symName: __ZNKSt3__16vectorIiNS_9allocatorIiEEE11__make_iterB7v160006EPKi, symObjAddr: 0xA120, symBinAddr: 0x10000E600, symSize: 0x30 }
  - { offsetInCU: 0x152C6, offset: 0x2712F, size: 0x8, addend: 0x0, symName: __ZNSt3__111__wrap_iterIPKiEC1B7v160006EPKvS2_, symObjAddr: 0xA150, symBinAddr: 0x10000E630, symSize: 0x30 }
  - { offsetInCU: 0x1530B, offset: 0x27174, size: 0x8, addend: 0x0, symName: __ZNSt3__111__wrap_iterIPKiEC2B7v160006EPKvS2_, symObjAddr: 0xA180, symBinAddr: 0x10000E660, symSize: 0x20 }
  - { offsetInCU: 0x15350, offset: 0x271B9, size: 0x8, addend: 0x0, symName: __ZNSt3__16vectorI4GridNS_9allocatorIS1_EEE22__construct_one_at_endB7v160006IJS1_EEEvDpOT_, symObjAddr: 0xA1A0, symBinAddr: 0x10000E680, symSize: 0x90 }
  - { offsetInCU: 0x1539C, offset: 0x27205, size: 0x8, addend: 0x0, symName: __ZNSt3__16vectorI4GridNS_9allocatorIS1_EEE21__push_back_slow_pathIS1_EEvOT_, symObjAddr: 0xA230, symBinAddr: 0x10000E710, symSize: 0xD0 }
  - { offsetInCU: 0x153FA, offset: 0x27263, size: 0x8, addend: 0x0, symName: __ZNSt3__116allocator_traitsINS_9allocatorI4GridEEE9constructB7v160006IS2_JS2_EvEEvRS3_PT_DpOT0_, symObjAddr: 0xA300, symBinAddr: 0x10000E7E0, symSize: 0x30 }
  - { offsetInCU: 0x15451, offset: 0x272BA, size: 0x8, addend: 0x0, symName: __ZNSt3__19allocatorI4GridE9constructB7v160006IS1_JS1_EEEvPT_DpOT0_, symObjAddr: 0xA330, symBinAddr: 0x10000E810, symSize: 0x30 }
  - { offsetInCU: 0x154A4, offset: 0x2730D, size: 0x8, addend: 0x0, symName: __ZNKSt3__16vectorI4GridNS_9allocatorIS1_EEE11__recommendB7v160006Em, symObjAddr: 0xA360, symBinAddr: 0x10000E840, symSize: 0xA0 }
  - { offsetInCU: 0x154F9, offset: 0x27362, size: 0x8, addend: 0x0, symName: __ZNSt3__114__split_bufferI4GridRNS_9allocatorIS1_EEEC1EmmS4_, symObjAddr: 0xA400, symBinAddr: 0x10000E8E0, symSize: 0x40 }
  - { offsetInCU: 0x1554E, offset: 0x273B7, size: 0x8, addend: 0x0, symName: __ZNSt3__114__split_bufferI4GridRNS_9allocatorIS1_EEED1Ev, symObjAddr: 0xA570, symBinAddr: 0x10000EA50, symSize: 0x20 }
  - { offsetInCU: 0x15579, offset: 0x273E2, size: 0x8, addend: 0x0, symName: __ZNSt3__114__split_bufferI4GridRNS_9allocatorIS1_EEEC2EmmS4_, symObjAddr: 0xA590, symBinAddr: 0x10000EA70, symSize: 0xC0 }
  - { offsetInCU: 0x155EC, offset: 0x27455, size: 0x8, addend: 0x0, symName: __ZNSt3__117__compressed_pairIP4GridRNS_9allocatorIS1_EEEC1B7v160006IDnS5_EEOT_OT0_, symObjAddr: 0xA650, symBinAddr: 0x10000EB30, symSize: 0x30 }
  - { offsetInCU: 0x15643, offset: 0x274AC, size: 0x8, addend: 0x0, symName: __ZNSt3__114__split_bufferI4GridRNS_9allocatorIS1_EEE7__allocB7v160006Ev, symObjAddr: 0xA680, symBinAddr: 0x10000EB60, symSize: 0x20 }
  - { offsetInCU: 0x15667, offset: 0x274D0, size: 0x8, addend: 0x0, symName: __ZNSt3__114__split_bufferI4GridRNS_9allocatorIS1_EEE9__end_capB7v160006Ev, symObjAddr: 0xA6A0, symBinAddr: 0x10000EB80, symSize: 0x20 }
  - { offsetInCU: 0x1568B, offset: 0x274F4, size: 0x8, addend: 0x0, symName: __ZNSt3__117__compressed_pairIP4GridRNS_9allocatorIS1_EEEC2B7v160006IDnS5_EEOT_OT0_, symObjAddr: 0xA6C0, symBinAddr: 0x10000EBA0, symSize: 0x40 }
  - { offsetInCU: 0x156E2, offset: 0x2754B, size: 0x8, addend: 0x0, symName: __ZNSt3__122__compressed_pair_elemIRNS_9allocatorI4GridEELi1ELb0EEC2B7v160006IS4_vEEOT_, symObjAddr: 0xA700, symBinAddr: 0x10000EBE0, symSize: 0x20 }
  - { offsetInCU: 0x15723, offset: 0x2758C, size: 0x8, addend: 0x0, symName: __ZNSt3__117__compressed_pairIP4GridRNS_9allocatorIS1_EEE6secondB7v160006Ev, symObjAddr: 0xA720, symBinAddr: 0x10000EC00, symSize: 0x20 }
  - { offsetInCU: 0x15747, offset: 0x275B0, size: 0x8, addend: 0x0, symName: __ZNSt3__122__compressed_pair_elemIRNS_9allocatorI4GridEELi1ELb0EE5__getB7v160006Ev, symObjAddr: 0xA740, symBinAddr: 0x10000EC20, symSize: 0x20 }
  - { offsetInCU: 0x1576B, offset: 0x275D4, size: 0x8, addend: 0x0, symName: __ZNSt3__117__compressed_pairIP4GridRNS_9allocatorIS1_EEE5firstB7v160006Ev, symObjAddr: 0xA760, symBinAddr: 0x10000EC40, symSize: 0x20 }
  - { offsetInCU: 0x1578F, offset: 0x275F8, size: 0x8, addend: 0x0, symName: __ZNSt3__129_AllocatorDestroyRangeReverseINS_9allocatorI4GridEENS_16reverse_iteratorIPS2_EEEC1B7v160006ERS3_RS6_S9_, symObjAddr: 0xA9A0, symBinAddr: 0x10000EE80, symSize: 0x40 }
  - { offsetInCU: 0x157E5, offset: 0x2764E, size: 0x8, addend: 0x0, symName: __ZNSt3__128__exception_guard_exceptionsINS_29_AllocatorDestroyRangeReverseINS_9allocatorI4GridEENS_16reverse_iteratorIPS3_EEEEE10__completeB7v160006Ev, symObjAddr: 0xA9E0, symBinAddr: 0x10000EEC0, symSize: 0x20 }
  - { offsetInCU: 0x15809, offset: 0x27672, size: 0x8, addend: 0x0, symName: __ZNSt3__128__exception_guard_exceptionsINS_29_AllocatorDestroyRangeReverseINS_9allocatorI4GridEENS_16reverse_iteratorIPS3_EEEEED1B7v160006Ev, symObjAddr: 0xAA00, symBinAddr: 0x10000EEE0, symSize: 0x20 }
  - { offsetInCU: 0x15832, offset: 0x2769B, size: 0x8, addend: 0x0, symName: __ZNSt3__128__exception_guard_exceptionsINS_29_AllocatorDestroyRangeReverseINS_9allocatorI4GridEENS_16reverse_iteratorIPS3_EEEEEC1B7v160006ES8_, symObjAddr: 0xAA20, symBinAddr: 0x10000EF00, symSize: 0x40 }
  - { offsetInCU: 0x15869, offset: 0x276D2, size: 0x8, addend: 0x0, symName: __ZNSt3__128__exception_guard_exceptionsINS_29_AllocatorDestroyRangeReverseINS_9allocatorI4GridEENS_16reverse_iteratorIPS3_EEEEEC2B7v160006ES8_, symObjAddr: 0xAA60, symBinAddr: 0x10000EF40, symSize: 0x30 }
  - { offsetInCU: 0x158A0, offset: 0x27709, size: 0x8, addend: 0x0, symName: __ZNSt3__129_AllocatorDestroyRangeReverseINS_9allocatorI4GridEENS_16reverse_iteratorIPS2_EEEC2B7v160006ERS3_RS6_S9_, symObjAddr: 0xAA90, symBinAddr: 0x10000EF70, symSize: 0x40 }
  - { offsetInCU: 0x158F6, offset: 0x2775F, size: 0x8, addend: 0x0, symName: __ZNSt3__128__exception_guard_exceptionsINS_29_AllocatorDestroyRangeReverseINS_9allocatorI4GridEENS_16reverse_iteratorIPS3_EEEEED2B7v160006Ev, symObjAddr: 0xAAD0, symBinAddr: 0x10000EFB0, symSize: 0x40 }
  - { offsetInCU: 0x1591F, offset: 0x27788, size: 0x8, addend: 0x0, symName: __ZNKSt3__129_AllocatorDestroyRangeReverseINS_9allocatorI4GridEENS_16reverse_iteratorIPS2_EEEclB7v160006Ev, symObjAddr: 0xAB10, symBinAddr: 0x10000EFF0, symSize: 0xF0 }
  - { offsetInCU: 0x15944, offset: 0x277AD, size: 0x8, addend: 0x0, symName: __ZNSt3__116reverse_iteratorINS0_IP4GridEEEC1B7v160006ES3_, symObjAddr: 0xAC70, symBinAddr: 0x10000F150, symSize: 0x30 }
  - { offsetInCU: 0x1597B, offset: 0x277E4, size: 0x8, addend: 0x0, symName: __ZNSt3__116reverse_iteratorINS0_IP4GridEEEppB7v160006Ev, symObjAddr: 0xAD10, symBinAddr: 0x10000F1F0, symSize: 0x30 }
  - { offsetInCU: 0x1599F, offset: 0x27808, size: 0x8, addend: 0x0, symName: __ZNKSt3__116reverse_iteratorINS0_IP4GridEEE4baseB7v160006Ev, symObjAddr: 0xAD40, symBinAddr: 0x10000F220, symSize: 0x20 }
  - { offsetInCU: 0x159C8, offset: 0x27831, size: 0x8, addend: 0x0, symName: __ZNSt3__119__to_address_helperINS_16reverse_iteratorINS1_IP4GridEEEEvE6__callB7v160006ERKS5_, symObjAddr: 0xAD60, symBinAddr: 0x10000F240, symSize: 0x40 }
  - { offsetInCU: 0x159EB, offset: 0x27854, size: 0x8, addend: 0x0, symName: __ZNKSt3__116reverse_iteratorINS0_IP4GridEEEptB7v160006Ev, symObjAddr: 0xADA0, symBinAddr: 0x10000F280, symSize: 0x20 }
  - { offsetInCU: 0x15A0F, offset: 0x27878, size: 0x8, addend: 0x0, symName: __ZNKSt3__116reverse_iteratorINS0_IP4GridEEEdeB7v160006Ev, symObjAddr: 0xADC0, symBinAddr: 0x10000F2A0, symSize: 0x40 }
  - { offsetInCU: 0x15A41, offset: 0x278AA, size: 0x8, addend: 0x0, symName: __ZNSt3__116reverse_iteratorIP4GridEmmB7v160006Ev, symObjAddr: 0xAE00, symBinAddr: 0x10000F2E0, symSize: 0x20 }
  - { offsetInCU: 0x15A65, offset: 0x278CE, size: 0x8, addend: 0x0, symName: __ZNSt3__116reverse_iteratorINS0_IP4GridEEEC2B7v160006ES3_, symObjAddr: 0xAE20, symBinAddr: 0x10000F300, symSize: 0x40 }
  - { offsetInCU: 0x15A9C, offset: 0x27905, size: 0x8, addend: 0x0, symName: __ZNSt3__114__split_bufferI4GridRNS_9allocatorIS1_EEED2Ev, symObjAddr: 0xAE60, symBinAddr: 0x10000F340, symSize: 0x70 }
  - { offsetInCU: 0x15AC7, offset: 0x27930, size: 0x8, addend: 0x0, symName: __ZNSt3__114__split_bufferI4GridRNS_9allocatorIS1_EEE5clearB7v160006Ev, symObjAddr: 0xAED0, symBinAddr: 0x10000F3B0, symSize: 0x20 }
  - { offsetInCU: 0x15AEB, offset: 0x27954, size: 0x8, addend: 0x0, symName: __ZNKSt3__114__split_bufferI4GridRNS_9allocatorIS1_EEE8capacityB7v160006Ev, symObjAddr: 0xAEF0, symBinAddr: 0x10000F3D0, symSize: 0x40 }
  - { offsetInCU: 0x15B0F, offset: 0x27978, size: 0x8, addend: 0x0, symName: __ZNSt3__114__split_bufferI4GridRNS_9allocatorIS1_EEE17__destruct_at_endB7v160006EPS1_, symObjAddr: 0xAF30, symBinAddr: 0x10000F410, symSize: 0x30 }
  - { offsetInCU: 0x15B40, offset: 0x279A9, size: 0x8, addend: 0x0, symName: __ZNSt3__114__split_bufferI4GridRNS_9allocatorIS1_EEE17__destruct_at_endB7v160006EPS1_NS_17integral_constantIbLb0EEE, symObjAddr: 0xAF60, symBinAddr: 0x10000F440, symSize: 0x80 }
  - { offsetInCU: 0x15B81, offset: 0x279EA, size: 0x8, addend: 0x0, symName: __ZNKSt3__114__split_bufferI4GridRNS_9allocatorIS1_EEE9__end_capB7v160006Ev, symObjAddr: 0xAFE0, symBinAddr: 0x10000F4C0, symSize: 0x20 }
  - { offsetInCU: 0x15BA5, offset: 0x27A0E, size: 0x8, addend: 0x0, symName: __ZNKSt3__117__compressed_pairIP4GridRNS_9allocatorIS1_EEE5firstB7v160006Ev, symObjAddr: 0xB000, symBinAddr: 0x10000F4E0, symSize: 0x1B }
  - { offsetInCU: 0x8599, offset: 0x301DC, size: 0x8, addend: 0x0, symName: '__ZNSt3__17none_ofB7v160006INS_11__wrap_iterIPKNS_6vectorIiNS_9allocatorIiEEEEEEZNK4Grid10isCompleteEvE3$_1EEbT_SB_T0_', symObjAddr: 0x7A0, symBinAddr: 0x10000FC80, symSize: 0x80 }
  - { offsetInCU: 0x9013, offset: 0x30C56, size: 0x8, addend: 0x0, symName: __ZNSt3__1neB7v160006IPNS_6vectorIiNS_9allocatorIiEEEEEEbRKNS_11__wrap_iterIT_EESA_, symObjAddr: 0xE50, symBinAddr: 0x100010330, symSize: 0x30 }
  - { offsetInCU: 0x9056, offset: 0x30C99, size: 0x8, addend: 0x0, symName: __ZNSt3__1neB7v160006IPiEEbRKNS_11__wrap_iterIT_EES6_, symObjAddr: 0xF00, symBinAddr: 0x1000103E0, symSize: 0x30 }
  - { offsetInCU: 0x920F, offset: 0x30E52, size: 0x8, addend: 0x0, symName: __ZNSt3__1neB7v160006IPKNS_6vectorIiNS_9allocatorIiEEEEEEbRKNS_11__wrap_iterIT_EESB_, symObjAddr: 0x1470, symBinAddr: 0x1000108C0, symSize: 0x30 }
  - { offsetInCU: 0x925D, offset: 0x30EA0, size: 0x8, addend: 0x0, symName: __ZNSt3__1plB7v160006IcNS_11char_traitsIcEENS_9allocatorIcEEEENS_12basic_stringIT_T0_T1_EEPKS6_OS9_, symObjAddr: 0x1890, symBinAddr: 0x100010BD0, symSize: 0x50 }
  - { offsetInCU: 0x92B5, offset: 0x30EF8, size: 0x8, addend: 0x0, symName: __ZNSt3__1lsB7v160006IcNS_11char_traitsIcEENS_9allocatorIcEEEERNS_13basic_ostreamIT_T0_EES9_RKNS_12basic_stringIS6_S7_T1_EE, symObjAddr: 0x19D0, symBinAddr: 0x100010C90, symSize: 0x50 }
  - { offsetInCU: 0x930D, offset: 0x30F50, size: 0x8, addend: 0x0, symName: __ZNSt3__1lsB7v160006INS_11char_traitsIcEEEERNS_13basic_ostreamIcT_EES6_c, symObjAddr: 0x1BF0, symBinAddr: 0x100010EB0, symSize: 0x30 }
  - { offsetInCU: 0x9353, offset: 0x30F96, size: 0x8, addend: 0x0, symName: __ZNSt3__1lsB7v160006IcNS_11char_traitsIcEEEERNS_13basic_ostreamIT_T0_EES7_RKNS_8__iom_t6E, symObjAddr: 0x1C20, symBinAddr: 0x100010EE0, symSize: 0x40 }
  - { offsetInCU: 0x93A2, offset: 0x30FE5, size: 0x8, addend: 0x0, symName: __ZNSt3__14setwB7v160006Ei, symObjAddr: 0x1C60, symBinAddr: 0x100010F20, symSize: 0x20 }
  - { offsetInCU: 0x93D0, offset: 0x31013, size: 0x8, addend: 0x0, symName: '__ZNSt3__17copy_ifB7v160006INS_11__wrap_iterIPKiEENS_20back_insert_iteratorINS_6vectorIiNS_9allocatorIiEEEEEEZZNK4Grid7isLegalEvENK3$_0clERKS9_EUliE_EET0_T_SH_SG_T1_', symObjAddr: 0x1F30, symBinAddr: 0x100011140, symSize: 0xA0 }
  - { offsetInCU: 0x9442, offset: 0x31085, size: 0x8, addend: 0x0, symName: __ZNSt3__113back_inserterB7v160006INS_6vectorIiNS_9allocatorIiEEEEEENS_20back_insert_iteratorIT_EERS6_, symObjAddr: 0x1FD0, symBinAddr: 0x1000111E0, symSize: 0x30 }
  - { offsetInCU: 0x9477, offset: 0x310BA, size: 0x8, addend: 0x0, symName: __ZNSt3__14sortB7v160006INS_11__wrap_iterIPiEEEEvT_S4_, symObjAddr: 0x2000, symBinAddr: 0x100011210, symSize: 0x40 }
  - { offsetInCU: 0x94B9, offset: 0x310FC, size: 0x8, addend: 0x0, symName: __ZNSt3__16uniqueB7v160006INS_11__wrap_iterIPiEEEET_S4_S4_, symObjAddr: 0x2040, symBinAddr: 0x100011250, symSize: 0x40 }
  - { offsetInCU: 0x94FC, offset: 0x3113F, size: 0x8, addend: 0x0, symName: __ZNSt3__1eqB7v160006IPiEEbRKNS_11__wrap_iterIT_EES6_, symObjAddr: 0x2080, symBinAddr: 0x100011290, symSize: 0x40 }
  - { offsetInCU: 0x953F, offset: 0x31182, size: 0x8, addend: 0x0, symName: __ZNSt3__14sortB7v160006INS_11__wrap_iterIPiEENS_6__lessIiiEEEEvT_S6_T0_, symObjAddr: 0x2180, symBinAddr: 0x100011390, symSize: 0x40 }
  - { offsetInCU: 0x9599, offset: 0x311DC, size: 0x8, addend: 0x0, symName: __ZNSt3__111__sort_implB7v160006INS_17_ClassicAlgPolicyENS_11__wrap_iterIPiEENS_6__lessIiiEEEEvT0_S7_RT1_, symObjAddr: 0x21C0, symBinAddr: 0x1000113D0, symSize: 0x80 }
  - { offsetInCU: 0x9641, offset: 0x31284, size: 0x8, addend: 0x0, symName: __ZNSt3__123__debug_randomize_rangeB7v160006INS_17_ClassicAlgPolicyENS_11__wrap_iterIPiEES4_EEvT0_T1_, symObjAddr: 0x2240, symBinAddr: 0x100011450, symSize: 0x10 }
  - { offsetInCU: 0x9692, offset: 0x312D5, size: 0x8, addend: 0x0, symName: __ZNSt3__113__unwrap_iterB7v160006INS_11__wrap_iterIPiEENS_18__unwrap_iter_implIS3_Lb1EEELi0EEEDTclsrT0_8__unwrapclsr3stdE7declvalIT_EEEES7_, symObjAddr: 0x2250, symBinAddr: 0x100011460, symSize: 0x30 }
  - { offsetInCU: 0x9729, offset: 0x3136C, size: 0x8, addend: 0x0, symName: __ZNSt3__112__to_addressB7v160006INS_11__wrap_iterIPiEEvEENS_5decayIDTclsr19__to_address_helperIT_EE6__callclsr3stdE7declvalIRKS5_EEEEE4typeES7_, symObjAddr: 0x22A0, symBinAddr: 0x1000114B0, symSize: 0x20 }
  - { offsetInCU: 0x9808, offset: 0x3144B, size: 0x8, addend: 0x0, symName: __ZNSt3__16uniqueB7v160006INS_11__wrap_iterIPiEENS_10__equal_toEEET_S5_S5_T0_, symObjAddr: 0x2350, symBinAddr: 0x100011550, symSize: 0x50 }
  - { offsetInCU: 0x9862, offset: 0x314A5, size: 0x8, addend: 0x0, symName: __ZNSt3__18__uniqueB7v160006INS_17_ClassicAlgPolicyENS_11__wrap_iterIPiEES4_RNS_10__equal_toEEENS_4pairIT0_S8_EES8_T1_OT2_, symObjAddr: 0x23A0, symBinAddr: 0x1000115A0, symSize: 0x130 }
  - { offsetInCU: 0x98EC, offset: 0x3152F, size: 0x8, addend: 0x0, symName: __ZNSt3__115__adjacent_findB7v160006INS_11__wrap_iterIPiEES3_RNS_10__equal_toEEET_S6_T0_OT1_, symObjAddr: 0x24D0, symBinAddr: 0x1000116D0, symSize: 0xD0 }
  - { offsetInCU: 0x9B6B, offset: 0x317AE, size: 0x8, addend: 0x0, symName: __ZNSt3__1eqB7v160006IPNS_6vectorIiNS_9allocatorIiEEEEEEbRKNS_11__wrap_iterIT_EESA_, symObjAddr: 0x26C0, symBinAddr: 0x1000118C0, symSize: 0x40 }
  - { offsetInCU: 0x9BAE, offset: 0x317F1, size: 0x8, addend: 0x0, symName: __ZNSt3__1eqB7v160006IPKNS_6vectorIiNS_9allocatorIiEEEEEEbRKNS_11__wrap_iterIT_EESB_, symObjAddr: 0x27A0, symBinAddr: 0x100011920, symSize: 0x40 }
  - { offsetInCU: 0x9BF1, offset: 0x31834, size: 0x8, addend: 0x0, symName: '__ZNSt3__16any_ofB7v160006INS_11__wrap_iterIPKiEEZZNK4Grid10isCompleteEvENK3$_1clERKNS_6vectorIiNS_9allocatorIiEEEEEUliE_EEbT_SE_T0_', symObjAddr: 0x3A60, symBinAddr: 0x100011BA0, symSize: 0x80 }
  - { offsetInCU: 0x9C4C, offset: 0x3188F, size: 0x8, addend: 0x0, symName: __ZNSt3__142__uninitialized_allocator_move_if_noexceptB7v160006INS_9allocatorINS_6vectorIiNS1_IiEEEEEENS_16reverse_iteratorIPS4_EES8_S8_EET2_RT_T0_T1_S9_, symObjAddr: 0x52C0, symBinAddr: 0x1000126C0, symSize: 0x180 }
  - { offsetInCU: 0x9CEB, offset: 0x3192E, size: 0x8, addend: 0x0, symName: __ZNSt3__14swapB7v160006IPNS_6vectorIiNS_9allocatorIiEEEEEENS_9enable_ifIXaasr21is_move_constructibleIT_EE5valuesr18is_move_assignableIS7_EE5valueEvE4typeERS7_SA_, symObjAddr: 0x5490, symBinAddr: 0x100012840, symSize: 0x40 }
  - { offsetInCU: 0x9D3C, offset: 0x3197F, size: 0x8, addend: 0x0, symName: __ZNSt3__122__make_exception_guardB7v160006INS_29_AllocatorDestroyRangeReverseINS_9allocatorINS_6vectorIiNS2_IiEEEEEENS_16reverse_iteratorIPS5_EEEEEENS_28__exception_guard_exceptionsIT_EESC_, symObjAddr: 0x55C0, symBinAddr: 0x100012880, symSize: 0x60 }
  - { offsetInCU: 0x9D71, offset: 0x319B4, size: 0x8, addend: 0x0, symName: __ZNSt3__115__debug_db_swapB7v160006INS_6vectorIiNS_9allocatorIiEEEEEEvPT_S6_, symObjAddr: 0x59A0, symBinAddr: 0x100012B80, symSize: 0x10 }
  - { offsetInCU: 0x9DB0, offset: 0x319F3, size: 0x8, addend: 0x0, symName: __ZNSt3__119__allocator_destroyB7v160006INS_9allocatorINS_6vectorIiNS1_IiEEEEEENS_16reverse_iteratorINS6_IPS4_EEEES9_EEvRT_T0_T1_, symObjAddr: 0x5B90, symBinAddr: 0x100012CC0, symSize: 0x70 }
  - { offsetInCU: 0x9E13, offset: 0x31A56, size: 0x8, addend: 0x0, symName: __ZNSt3__1neB7v160006INS_16reverse_iteratorIPNS_6vectorIiNS_9allocatorIiEEEEEES7_EEbRKNS1_IT_EERKNS1_IT0_EE, symObjAddr: 0x5C30, symBinAddr: 0x100012D60, symSize: 0x50 }
  - { offsetInCU: 0x9E5F, offset: 0x31AA2, size: 0x8, addend: 0x0, symName: __ZNSt3__112__to_addressB7v160006INS_16reverse_iteratorINS1_IPNS_6vectorIiNS_9allocatorIiEEEEEEEEvEENS_5decayIDTclsr19__to_address_helperIT_EE6__callclsr3stdE7declvalIRKSA_EEEEE4typeESC_, symObjAddr: 0x5CB0, symBinAddr: 0x100012DB0, symSize: 0x20 }
  - { offsetInCU: 0x9EBE, offset: 0x31B01, size: 0x8, addend: 0x0, symName: __ZNSt3__142__uninitialized_allocator_move_if_noexceptB7v160006INS_9allocatorIiEENS_16reverse_iteratorIPiEES5_ivEET1_RT_T0_S9_S6_, symObjAddr: 0x7270, symBinAddr: 0x1000137A0, symSize: 0x70 }
  - { offsetInCU: 0x9F3B, offset: 0x31B7E, size: 0x8, addend: 0x0, symName: __ZNSt3__14swapB7v160006IPiEENS_9enable_ifIXaasr21is_move_constructibleIT_EE5valuesr18is_move_assignableIS3_EE5valueEvE4typeERS3_S6_, symObjAddr: 0x72E0, symBinAddr: 0x100013810, symSize: 0x40 }
  - { offsetInCU: 0x9F8C, offset: 0x31BCF, size: 0x8, addend: 0x0, symName: __ZNSt3__125__debug_db_invalidate_allB7v160006INS_6vectorIiNS_9allocatorIiEEEEEEvPT_, symObjAddr: 0x7320, symBinAddr: 0x100013850, symSize: 0x10 }
  - { offsetInCU: 0x9FBD, offset: 0x31C00, size: 0x8, addend: 0x0, symName: __ZNSt3__14moveB7v160006INS_16reverse_iteratorIPiEES3_EET0_T_S5_S4_, symObjAddr: 0x7330, symBinAddr: 0x100013860, symSize: 0x80 }
  - { offsetInCU: 0xA017, offset: 0x31C5A, size: 0x8, addend: 0x0, symName: __ZNSt3__16__moveB7v160006INS_17_ClassicAlgPolicyENS_16reverse_iteratorIPiEES4_S4_EENS_4pairIT0_T2_EES6_T1_S7_, symObjAddr: 0x73B0, symBinAddr: 0x1000138E0, symSize: 0x90 }
  - { offsetInCU: 0xA083, offset: 0x31CC6, size: 0x8, addend: 0x0, symName: __ZNSt3__123__dispatch_copy_or_moveB7v160006INS_17_ClassicAlgPolicyENS_11__move_loopIS1_EENS_14__move_trivialENS_16reverse_iteratorIPiEES7_S7_EENS_4pairIT2_T4_EES9_T3_SA_, symObjAddr: 0x7440, symBinAddr: 0x100013970, symSize: 0x90 }
  - { offsetInCU: 0xA101, offset: 0x31D44, size: 0x8, addend: 0x0, symName: __ZNSt3__121__unwrap_and_dispatchB7v160006INS_10__overloadINS_11__move_loopINS_17_ClassicAlgPolicyEEENS_14__move_trivialEEENS_16reverse_iteratorIPiEES9_S9_Li0EEENS_4pairIT0_T2_EESB_T1_SC_, symObjAddr: 0x74D0, symBinAddr: 0x100013A00, symSize: 0x210 }
  - { offsetInCU: 0xA190, offset: 0x31DD3, size: 0x8, addend: 0x0, symName: __ZNSt3__114__unwrap_rangeB7v160006INS_16reverse_iteratorIPiEES3_EENS_4pairIT0_S5_EET_S7_, symObjAddr: 0x76E0, symBinAddr: 0x100013C10, symSize: 0x90 }
  - { offsetInCU: 0xA341, offset: 0x31F84, size: 0x8, addend: 0x0, symName: __ZNSt3__113__unwrap_iterB7v160006INS_16reverse_iteratorIPiEENS_18__unwrap_iter_implIS3_Lb0EEELi0EEEDTclsrT0_8__unwrapclsr3stdE7declvalIT_EEEES7_, symObjAddr: 0x7810, symBinAddr: 0x100013D40, symSize: 0x40 }
  - { offsetInCU: 0xA385, offset: 0x31FC8, size: 0x8, addend: 0x0, symName: __ZNSt3__19make_pairB7v160006INS_16reverse_iteratorIPiEES3_EENS_4pairINS_18__unwrap_ref_decayIT_E4typeENS5_IT0_E4typeEEEOS6_OS9_, symObjAddr: 0x7850, symBinAddr: 0x100013D80, symSize: 0x30 }
  - { offsetInCU: 0xA3D4, offset: 0x32017, size: 0x8, addend: 0x0, symName: __ZNSt3__114__rewrap_rangeB7v160006INS_16reverse_iteratorIPiEES3_EET_S4_T0_, symObjAddr: 0x7880, symBinAddr: 0x100013DB0, symSize: 0x60 }
  - { offsetInCU: 0xA420, offset: 0x32063, size: 0x8, addend: 0x0, symName: __ZNSt3__113__rewrap_iterB7v160006INS_16reverse_iteratorIPiEES3_NS_18__unwrap_iter_implIS3_Lb0EEEEET_S6_T0_, symObjAddr: 0x78E0, symBinAddr: 0x100013E10, symSize: 0x70 }
  - { offsetInCU: 0xA4BD, offset: 0x32100, size: 0x8, addend: 0x0, symName: __ZNSt3__142__uninitialized_allocator_move_if_noexceptB7v160006INS_9allocatorI8PositionEENS_16reverse_iteratorIPS2_EES6_S2_vEET1_RT_T0_SA_S7_, symObjAddr: 0x8AD0, symBinAddr: 0x100014700, symSize: 0x70 }
  - { offsetInCU: 0xA53A, offset: 0x3217D, size: 0x8, addend: 0x0, symName: __ZNSt3__14swapB7v160006IP8PositionEENS_9enable_ifIXaasr21is_move_constructibleIT_EE5valuesr18is_move_assignableIS4_EE5valueEvE4typeERS4_S7_, symObjAddr: 0x8B90, symBinAddr: 0x100014770, symSize: 0x40 }
  - { offsetInCU: 0xA58B, offset: 0x321CE, size: 0x8, addend: 0x0, symName: __ZNSt3__14moveB7v160006INS_16reverse_iteratorIP8PositionEES4_EET0_T_S6_S5_, symObjAddr: 0x8C90, symBinAddr: 0x1000147B0, symSize: 0x80 }
  - { offsetInCU: 0xA5E5, offset: 0x32228, size: 0x8, addend: 0x0, symName: __ZNSt3__16__moveB7v160006INS_17_ClassicAlgPolicyENS_16reverse_iteratorIP8PositionEES5_S5_EENS_4pairIT0_T2_EES7_T1_S8_, symObjAddr: 0x8D10, symBinAddr: 0x100014830, symSize: 0x90 }
  - { offsetInCU: 0xA651, offset: 0x32294, size: 0x8, addend: 0x0, symName: __ZNSt3__123__dispatch_copy_or_moveB7v160006INS_17_ClassicAlgPolicyENS_11__move_loopIS1_EENS_14__move_trivialENS_16reverse_iteratorIP8PositionEES8_S8_EENS_4pairIT2_T4_EESA_T3_SB_, symObjAddr: 0x8DA0, symBinAddr: 0x1000148C0, symSize: 0x90 }
  - { offsetInCU: 0xA6CF, offset: 0x32312, size: 0x8, addend: 0x0, symName: __ZNSt3__121__unwrap_and_dispatchB7v160006INS_10__overloadINS_11__move_loopINS_17_ClassicAlgPolicyEEENS_14__move_trivialEEENS_16reverse_iteratorIP8PositionEESA_SA_Li0EEENS_4pairIT0_T2_EESC_T1_SD_, symObjAddr: 0x8E30, symBinAddr: 0x100014950, symSize: 0x210 }
  - { offsetInCU: 0xA75E, offset: 0x323A1, size: 0x8, addend: 0x0, symName: __ZNSt3__114__unwrap_rangeB7v160006INS_16reverse_iteratorIP8PositionEES4_EENS_4pairIT0_S6_EET_S8_, symObjAddr: 0x9040, symBinAddr: 0x100014B60, symSize: 0x90 }
  - { offsetInCU: 0xA87E, offset: 0x324C1, size: 0x8, addend: 0x0, symName: __ZNSt3__113__unwrap_iterB7v160006INS_16reverse_iteratorIP8PositionEENS_18__unwrap_iter_implIS4_Lb0EEELi0EEEDTclsrT0_8__unwrapclsr3stdE7declvalIT_EEEES8_, symObjAddr: 0x9170, symBinAddr: 0x100014C90, symSize: 0x40 }
  - { offsetInCU: 0xA8C2, offset: 0x32505, size: 0x8, addend: 0x0, symName: __ZNSt3__19make_pairB7v160006INS_16reverse_iteratorIP8PositionEES4_EENS_4pairINS_18__unwrap_ref_decayIT_E4typeENS6_IT0_E4typeEEEOS7_OSA_, symObjAddr: 0x91B0, symBinAddr: 0x100014CD0, symSize: 0x30 }
  - { offsetInCU: 0xA911, offset: 0x32554, size: 0x8, addend: 0x0, symName: __ZNSt3__114__rewrap_rangeB7v160006INS_16reverse_iteratorIP8PositionEES4_EET_S5_T0_, symObjAddr: 0x91E0, symBinAddr: 0x100014D00, symSize: 0x60 }
  - { offsetInCU: 0xA95D, offset: 0x325A0, size: 0x8, addend: 0x0, symName: __ZNSt3__113__rewrap_iterB7v160006INS_16reverse_iteratorIP8PositionEES4_NS_18__unwrap_iter_implIS4_Lb0EEEEET_S7_T0_, symObjAddr: 0x9240, symBinAddr: 0x100014D60, symSize: 0x70 }
  - { offsetInCU: 0xB061, offset: 0x32CA4, size: 0x8, addend: 0x0, symName: __ZNSt3__16vectorINS0_IiNS_9allocatorIiEEEENS1_IS3_EEE26__swap_out_circular_bufferERNS_14__split_bufferIS3_RS4_EE, symObjAddr: 0x49D0, symBinAddr: 0x100012270, symSize: 0x130 }
  - { offsetInCU: 0xB0F8, offset: 0x32D3B, size: 0x8, addend: 0x0, symName: __ZNSt3__16vectorIiNS_9allocatorIiEEE26__swap_out_circular_bufferERNS_14__split_bufferIiRS2_EE, symObjAddr: 0x6F20, symBinAddr: 0x100013450, symSize: 0x130 }
  - { offsetInCU: 0xB25C, offset: 0x32E9F, size: 0x8, addend: 0x0, symName: __ZNSt3__16vectorI8PositionNS_9allocatorIS1_EEE26__swap_out_circular_bufferERNS_14__split_bufferIS1_RS3_EE, symObjAddr: 0x85E0, symBinAddr: 0x1000143B0, symSize: 0x130 }
  - { offsetInCU: 0xD289, offset: 0x34ECC, size: 0x8, addend: 0x0, symName: __ZN4Grid4fillERK8Positioni, symObjAddr: 0x0, symBinAddr: 0x10000F500, symSize: 0x90 }
  - { offsetInCU: 0xD2CB, offset: 0x34F0E, size: 0x8, addend: 0x0, symName: __ZNSt3__16vectorINS0_IiNS_9allocatorIiEEEENS1_IS3_EEEixB7v160006Em, symObjAddr: 0x90, symBinAddr: 0x10000F590, symSize: 0x20 }
  - { offsetInCU: 0xD301, offset: 0x34F44, size: 0x8, addend: 0x0, symName: __ZNSt3__16vectorIiNS_9allocatorIiEEEixB7v160006Em, symObjAddr: 0xB0, symBinAddr: 0x10000F5B0, symSize: 0x20 }
  - { offsetInCU: 0xD338, offset: 0x34F7B, size: 0x8, addend: 0x0, symName: __ZNK4Grid7isLegalEv, symObjAddr: 0xD0, symBinAddr: 0x10000F5D0, symSize: 0x250 }
  - { offsetInCU: 0xD3AA, offset: 0x34FED, size: 0x8, addend: 0x0, symName: '__ZZNK4Grid7isLegalEvENK3$_0clERKNSt3__16vectorIiNS1_9allocatorIiEEEE', symObjAddr: 0x320, symBinAddr: 0x10000F820, symSize: 0x170 }
  - { offsetInCU: 0xD41D, offset: 0x35060, size: 0x8, addend: 0x0, symName: __ZNK4Grid6getRowEi, symObjAddr: 0x490, symBinAddr: 0x10000F990, symSize: 0x80 }
  - { offsetInCU: 0xD452, offset: 0x35095, size: 0x8, addend: 0x0, symName: __ZNK4Grid6getColEi, symObjAddr: 0x510, symBinAddr: 0x10000FA10, symSize: 0xE0 }
  - { offsetInCU: 0xD4B3, offset: 0x350F6, size: 0x8, addend: 0x0, symName: __ZNK4Grid10getSectionEii, symObjAddr: 0x5F0, symBinAddr: 0x10000FAF0, symSize: 0x120 }
  - { offsetInCU: 0xD552, offset: 0x35195, size: 0x8, addend: 0x0, symName: __ZNK4Grid10isCompleteEv, symObjAddr: 0x730, symBinAddr: 0x10000FC10, symSize: 0x70 }
  - { offsetInCU: 0xD597, offset: 0x351DA, size: 0x8, addend: 0x0, symName: __ZNKSt3__16vectorINS0_IiNS_9allocatorIiEEEENS1_IS3_EEE5beginB7v160006Ev, symObjAddr: 0x820, symBinAddr: 0x10000FD00, symSize: 0x30 }
  - { offsetInCU: 0xD5BE, offset: 0x35201, size: 0x8, addend: 0x0, symName: __ZNKSt3__16vectorINS0_IiNS_9allocatorIiEEEENS1_IS3_EEE3endB7v160006Ev, symObjAddr: 0x850, symBinAddr: 0x10000FD30, symSize: 0x30 }
  - { offsetInCU: 0xD5E6, offset: 0x35229, size: 0x8, addend: 0x0, symName: __ZN4Grid4readERKNSt3__112basic_stringIcNS0_11char_traitsIcEENS0_9allocatorIcEEEE, symObjAddr: 0x880, symBinAddr: 0x10000FD60, symSize: 0x310 }
  - { offsetInCU: 0xD7AC, offset: 0x353EF, size: 0x8, addend: 0x0, symName: __ZNSt3__114basic_ifstreamIcNS_11char_traitsIcEEEC1ERKNS_12basic_stringIcS2_NS_9allocatorIcEEEEj, symObjAddr: 0xB90, symBinAddr: 0x100010070, symSize: 0x160 }
  - { offsetInCU: 0xD7F4, offset: 0x35437, size: 0x8, addend: 0x0, symName: __ZNKSt3__114basic_ifstreamIcNS_11char_traitsIcEEE7is_openEv, symObjAddr: 0xCF0, symBinAddr: 0x1000101D0, symSize: 0x30 }
  - { offsetInCU: 0xD81B, offset: 0x3545E, size: 0x8, addend: 0x0, symName: __Z4sqrtB7v160006IiENSt3__19enable_ifIXsr3std11is_integralIT_EE5valueEdE4typeES2_, symObjAddr: 0xD20, symBinAddr: 0x100010200, symSize: 0x20 }
  - { offsetInCU: 0xD852, offset: 0x35495, size: 0x8, addend: 0x0, symName: __ZNSt3__16vectorINS0_IiNS_9allocatorIiEEEENS1_IS3_EEE6resizeEmRKS3_, symObjAddr: 0xD40, symBinAddr: 0x100010220, symSize: 0x80 }
  - { offsetInCU: 0xD8A7, offset: 0x354EA, size: 0x8, addend: 0x0, symName: __ZNSt3__16vectorIiNS_9allocatorIiEEEC1Em, symObjAddr: 0xDC0, symBinAddr: 0x1000102A0, symSize: 0x30 }
  - { offsetInCU: 0xD8E0, offset: 0x35523, size: 0x8, addend: 0x0, symName: __ZNSt3__16vectorINS0_IiNS_9allocatorIiEEEENS1_IS3_EEE5beginB7v160006Ev, symObjAddr: 0xDF0, symBinAddr: 0x1000102D0, symSize: 0x30 }
  - { offsetInCU: 0xD907, offset: 0x3554A, size: 0x8, addend: 0x0, symName: __ZNSt3__16vectorINS0_IiNS_9allocatorIiEEEENS1_IS3_EEE3endB7v160006Ev, symObjAddr: 0xE20, symBinAddr: 0x100010300, symSize: 0x30 }
  - { offsetInCU: 0xD92F, offset: 0x35572, size: 0x8, addend: 0x0, symName: __ZNKSt3__111__wrap_iterIPNS_6vectorIiNS_9allocatorIiEEEEEdeB7v160006Ev, symObjAddr: 0xE80, symBinAddr: 0x100010360, symSize: 0x20 }
  - { offsetInCU: 0xD952, offset: 0x35595, size: 0x8, addend: 0x0, symName: __ZNSt3__16vectorIiNS_9allocatorIiEEE5beginB7v160006Ev, symObjAddr: 0xEA0, symBinAddr: 0x100010380, symSize: 0x30 }
  - { offsetInCU: 0xD979, offset: 0x355BC, size: 0x8, addend: 0x0, symName: __ZNSt3__16vectorIiNS_9allocatorIiEEE3endB7v160006Ev, symObjAddr: 0xED0, symBinAddr: 0x1000103B0, symSize: 0x30 }
  - { offsetInCU: 0xD9A1, offset: 0x355E4, size: 0x8, addend: 0x0, symName: __ZNKSt3__111__wrap_iterIPiEdeB7v160006Ev, symObjAddr: 0xF30, symBinAddr: 0x100010410, symSize: 0x20 }
  - { offsetInCU: 0xD9C5, offset: 0x35608, size: 0x8, addend: 0x0, symName: __ZNSt3__111__wrap_iterIPiEppB7v160006Ev, symObjAddr: 0xF50, symBinAddr: 0x100010430, symSize: 0x20 }
  - { offsetInCU: 0xD9E9, offset: 0x3562C, size: 0x8, addend: 0x0, symName: __ZNSt3__111__wrap_iterIPNS_6vectorIiNS_9allocatorIiEEEEEppB7v160006Ev, symObjAddr: 0xF70, symBinAddr: 0x100010450, symSize: 0x20 }
  - { offsetInCU: 0xDA12, offset: 0x35655, size: 0x8, addend: 0x0, symName: __ZNK4Grid5writeEv, symObjAddr: 0x1020, symBinAddr: 0x100010470, symSize: 0x2C0 }
  - { offsetInCU: 0xDB1F, offset: 0x35762, size: 0x8, addend: 0x0, symName: __ZNSt3__114basic_ofstreamIcNS_11char_traitsIcEEEC1ERKNS_12basic_stringIcS2_NS_9allocatorIcEEEEj, symObjAddr: 0x12E0, symBinAddr: 0x100010730, symSize: 0x160 }
  - { offsetInCU: 0xDB67, offset: 0x357AA, size: 0x8, addend: 0x0, symName: __ZNKSt3__114basic_ofstreamIcNS_11char_traitsIcEEE7is_openEv, symObjAddr: 0x1440, symBinAddr: 0x100010890, symSize: 0x30 }
  - { offsetInCU: 0xDB8F, offset: 0x357D2, size: 0x8, addend: 0x0, symName: __ZNKSt3__111__wrap_iterIPKNS_6vectorIiNS_9allocatorIiEEEEEdeB7v160006Ev, symObjAddr: 0x14A0, symBinAddr: 0x1000108F0, symSize: 0x20 }
  - { offsetInCU: 0xDBB3, offset: 0x357F6, size: 0x8, addend: 0x0, symName: __ZNSt3__111__wrap_iterIPKNS_6vectorIiNS_9allocatorIiEEEEEppB7v160006Ev, symObjAddr: 0x15D0, symBinAddr: 0x100010910, symSize: 0x20 }
  - { offsetInCU: 0xDBD6, offset: 0x35819, size: 0x8, addend: 0x0, symName: __ZNSt3__114basic_ofstreamIcNS_11char_traitsIcEEE5closeEv, symObjAddr: 0x15F0, symBinAddr: 0x100010930, symSize: 0x50 }
  - { offsetInCU: 0xDC03, offset: 0x35846, size: 0x8, addend: 0x0, symName: __ZNSt3__114basic_ofstreamIcNS_11char_traitsIcEEED1Ev, symObjAddr: 0x1640, symBinAddr: 0x100010980, symSize: 0x40 }
  - { offsetInCU: 0xDC2F, offset: 0x35872, size: 0x8, addend: 0x0, symName: __ZNK4Grid19printHorizontalLineEv, symObjAddr: 0x1680, symBinAddr: 0x1000109C0, symSize: 0x210 }
  - { offsetInCU: 0xDC96, offset: 0x358D9, size: 0x8, addend: 0x0, symName: __ZNSt3__112basic_stringIcNS_11char_traitsIcEENS_9allocatorIcEEE7replaceB7v160006EmmRKS5_, symObjAddr: 0x1910, symBinAddr: 0x100010C20, symSize: 0x70 }
  - { offsetInCU: 0xDCE7, offset: 0x3592A, size: 0x8, addend: 0x0, symName: __ZNK4Grid5printEv, symObjAddr: 0x1A20, symBinAddr: 0x100010CE0, symSize: 0x1D0 }
  - { offsetInCU: 0xDD47, offset: 0x3598A, size: 0x8, addend: 0x0, symName: __ZNKSt3__16vectorIiNS_9allocatorIiEEEixB7v160006Em, symObjAddr: 0x1CA0, symBinAddr: 0x100010F40, symSize: 0x20 }
  - { offsetInCU: 0xDD7D, offset: 0x359C0, size: 0x8, addend: 0x0, symName: __ZNSt3__16vectorIiNS_9allocatorIiEEE9push_backB7v160006ERKi, symObjAddr: 0x1D10, symBinAddr: 0x100010F60, symSize: 0x60 }
  - { offsetInCU: 0xDDB4, offset: 0x359F7, size: 0x8, addend: 0x0, symName: __ZNK4Grid20getUnsolvedPositionsEv, symObjAddr: 0x1D70, symBinAddr: 0x100010FC0, symSize: 0x110 }
  - { offsetInCU: 0xDE11, offset: 0x35A54, size: 0x8, addend: 0x0, symName: __ZNSt3__16vectorI8PositionNS_9allocatorIS1_EEE12emplace_backIJRiS6_EEEvDpOT_, symObjAddr: 0x1EA0, symBinAddr: 0x1000110D0, symSize: 0x70 }
  - { offsetInCU: 0xDE71, offset: 0x35AB4, size: 0x8, addend: 0x0, symName: '__ZZZNK4Grid7isLegalEvENK3$_0clERKNSt3__16vectorIiNS1_9allocatorIiEEEEENKUliE_clEi', symObjAddr: 0x20C0, symBinAddr: 0x1000112D0, symSize: 0x20 }
  - { offsetInCU: 0xDEA8, offset: 0x35AEB, size: 0x8, addend: 0x0, symName: __ZNSt3__120back_insert_iteratorINS_6vectorIiNS_9allocatorIiEEEEEdeB7v160006Ev, symObjAddr: 0x20E0, symBinAddr: 0x1000112F0, symSize: 0x10 }
  - { offsetInCU: 0xDECC, offset: 0x35B0F, size: 0x8, addend: 0x0, symName: __ZNSt3__120back_insert_iteratorINS_6vectorIiNS_9allocatorIiEEEEEaSB7v160006ERKi, symObjAddr: 0x20F0, symBinAddr: 0x100011300, symSize: 0x30 }
  - { offsetInCU: 0xDEFE, offset: 0x35B41, size: 0x8, addend: 0x0, symName: __ZNSt3__120back_insert_iteratorINS_6vectorIiNS_9allocatorIiEEEEEppB7v160006Ev, symObjAddr: 0x2120, symBinAddr: 0x100011330, symSize: 0x10 }
  - { offsetInCU: 0xDF22, offset: 0x35B65, size: 0x8, addend: 0x0, symName: __ZNSt3__120back_insert_iteratorINS_6vectorIiNS_9allocatorIiEEEEEC1B7v160006ERS4_, symObjAddr: 0x2130, symBinAddr: 0x100011340, symSize: 0x30 }
  - { offsetInCU: 0xDF59, offset: 0x35B9C, size: 0x8, addend: 0x0, symName: __ZNSt3__120back_insert_iteratorINS_6vectorIiNS_9allocatorIiEEEEEC2B7v160006ERS4_, symObjAddr: 0x2160, symBinAddr: 0x100011370, symSize: 0x20 }
  - { offsetInCU: 0xDF90, offset: 0x35BD3, size: 0x8, addend: 0x0, symName: __ZNSt3__118__unwrap_iter_implINS_11__wrap_iterIPiEELb1EE8__unwrapB7v160006ES3_, symObjAddr: 0x2280, symBinAddr: 0x100011490, symSize: 0x20 }
  - { offsetInCU: 0xDFBD, offset: 0x35C00, size: 0x8, addend: 0x0, symName: __ZNSt3__119__to_address_helperINS_11__wrap_iterIPiEEvE6__callB7v160006ERKS3_, symObjAddr: 0x22C0, symBinAddr: 0x1000114D0, symSize: 0x30 }
  - { offsetInCU: 0xDFE0, offset: 0x35C23, size: 0x8, addend: 0x0, symName: __ZNSt3__114pointer_traitsINS_11__wrap_iterIPiEEE10to_addressB7v160006ES3_, symObjAddr: 0x22F0, symBinAddr: 0x100011500, symSize: 0x30 }
  - { offsetInCU: 0xE004, offset: 0x35C47, size: 0x8, addend: 0x0, symName: __ZNKSt3__111__wrap_iterIPiE4baseB7v160006Ev, symObjAddr: 0x2330, symBinAddr: 0x100011530, symSize: 0x20 }
  - { offsetInCU: 0xE032, offset: 0x35C75, size: 0x8, addend: 0x0, symName: __ZNKSt3__110__equal_toclB7v160006IiiEEbRKT_RKT0_, symObjAddr: 0x25A0, symBinAddr: 0x1000117A0, symSize: 0x30 }
  - { offsetInCU: 0xE089, offset: 0x35CCC, size: 0x8, addend: 0x0, symName: __ZNSt3__18_IterOpsINS_17_ClassicAlgPolicyEE11__iter_moveB7v160006IRNS_11__wrap_iterIPiEEEENS_9enable_ifIXsr12is_referenceIDTdeclsr3stdE7declvalIRT_EEEEE5valueEDTclsr3stdE4movedeclsr3stdE7declvalISA_EEEEE4typeEOS9_, symObjAddr: 0x25D0, symBinAddr: 0x1000117D0, symSize: 0x20 }
  - { offsetInCU: 0xE0D3, offset: 0x35D16, size: 0x8, addend: 0x0, symName: __ZNSt3__14pairINS_11__wrap_iterIPiEES3_EC1B7v160006IS3_S3_LPv0EEEOT_OT0_, symObjAddr: 0x25F0, symBinAddr: 0x1000117F0, symSize: 0x30 }
  - { offsetInCU: 0xE130, offset: 0x35D73, size: 0x8, addend: 0x0, symName: __ZNSt3__14pairINS_11__wrap_iterIPiEES3_EC1B7v160006IRS3_S6_LPv0EEEOT_OT0_, symObjAddr: 0x2620, symBinAddr: 0x100011820, symSize: 0x30 }
  - { offsetInCU: 0xE18D, offset: 0x35DD0, size: 0x8, addend: 0x0, symName: __ZNSt3__18_IterOpsINS_17_ClassicAlgPolicyEE25__validate_iter_referenceB7v160006IRNS_11__wrap_iterIPiEEEEvv, symObjAddr: 0x2650, symBinAddr: 0x100011850, symSize: 0x10 }
  - { offsetInCU: 0xE1AB, offset: 0x35DEE, size: 0x8, addend: 0x0, symName: __ZNSt3__14pairINS_11__wrap_iterIPiEES3_EC2B7v160006IS3_S3_LPv0EEEOT_OT0_, symObjAddr: 0x2660, symBinAddr: 0x100011860, symSize: 0x30 }
  - { offsetInCU: 0xE208, offset: 0x35E4B, size: 0x8, addend: 0x0, symName: __ZNSt3__14pairINS_11__wrap_iterIPiEES3_EC2B7v160006IRS3_S6_LPv0EEEOT_OT0_, symObjAddr: 0x2690, symBinAddr: 0x100011890, symSize: 0x30 }
  - { offsetInCU: 0xE265, offset: 0x35EA8, size: 0x8, addend: 0x0, symName: __ZNKSt3__111__wrap_iterIPNS_6vectorIiNS_9allocatorIiEEEEE4baseB7v160006Ev, symObjAddr: 0x2700, symBinAddr: 0x100011900, symSize: 0x20 }
  - { offsetInCU: 0xE289, offset: 0x35ECC, size: 0x8, addend: 0x0, symName: __ZNKSt3__111__wrap_iterIPKNS_6vectorIiNS_9allocatorIiEEEEE4baseB7v160006Ev, symObjAddr: 0x27E0, symBinAddr: 0x100011960, symSize: 0x20 }
  - { offsetInCU: 0xE2AD, offset: 0x35EF0, size: 0x8, addend: 0x0, symName: __ZNSt3__114basic_ofstreamIcNS_11char_traitsIcEEED2Ev, symObjAddr: 0x2860, symBinAddr: 0x100011980, symSize: 0x60 }
  - { offsetInCU: 0xE2E5, offset: 0x35F28, size: 0x8, addend: 0x0, symName: __ZTv0_n24_NSt3__114basic_ofstreamIcNS_11char_traitsIcEEED1Ev, symObjAddr: 0x28C0, symBinAddr: 0x1000119E0, symSize: 0x20 }
  - { offsetInCU: 0xE2FC, offset: 0x35F3F, size: 0x8, addend: 0x0, symName: __ZNSt3__18__iom_t6C1B7v160006Ei, symObjAddr: 0x28E0, symBinAddr: 0x100011A00, symSize: 0x30 }
  - { offsetInCU: 0xE333, offset: 0x35F76, size: 0x8, addend: 0x0, symName: __ZNSt3__18__iom_t6C2B7v160006Ei, symObjAddr: 0x2910, symBinAddr: 0x100011A30, symSize: 0x20 }
  - { offsetInCU: 0xE38D, offset: 0x35FD0, size: 0x8, addend: 0x0, symName: __ZNSt3__16vectorIiNS_9allocatorIiEEE11__make_iterB7v160006EPi, symObjAddr: 0x3910, symBinAddr: 0x100011A50, symSize: 0x30 }
  - { offsetInCU: 0xE3C0, offset: 0x36003, size: 0x8, addend: 0x0, symName: __ZNSt3__111__wrap_iterIPiEC1B7v160006EPKvS1_, symObjAddr: 0x3940, symBinAddr: 0x100011A80, symSize: 0x30 }
  - { offsetInCU: 0xE405, offset: 0x36048, size: 0x8, addend: 0x0, symName: __ZNSt3__111__wrap_iterIPiEC2B7v160006EPKvS1_, symObjAddr: 0x3970, symBinAddr: 0x100011AB0, symSize: 0x20 }
  - { offsetInCU: 0xE44A, offset: 0x3608D, size: 0x8, addend: 0x0, symName: __ZNKSt3__16vectorINS0_IiNS_9allocatorIiEEEENS1_IS3_EEE11__make_iterB7v160006EPKS3_, symObjAddr: 0x3990, symBinAddr: 0x100011AD0, symSize: 0x30 }
  - { offsetInCU: 0xE47D, offset: 0x360C0, size: 0x8, addend: 0x0, symName: __ZNSt3__111__wrap_iterIPKNS_6vectorIiNS_9allocatorIiEEEEEC1B7v160006EPKvS6_, symObjAddr: 0x39C0, symBinAddr: 0x100011B00, symSize: 0x30 }
  - { offsetInCU: 0xE4C2, offset: 0x36105, size: 0x8, addend: 0x0, symName: __ZNSt3__111__wrap_iterIPKNS_6vectorIiNS_9allocatorIiEEEEEC2B7v160006EPKvS6_, symObjAddr: 0x39F0, symBinAddr: 0x100011B30, symSize: 0x20 }
  - { offsetInCU: 0xE511, offset: 0x36154, size: 0x8, addend: 0x0, symName: '__ZZNK4Grid10isCompleteEvENK3$_1clERKNSt3__16vectorIiNS1_9allocatorIiEEEE', symObjAddr: 0x3A10, symBinAddr: 0x100011B50, symSize: 0x50 }
  - { offsetInCU: 0xE571, offset: 0x361B4, size: 0x8, addend: 0x0, symName: '__ZZZNK4Grid10isCompleteEvENK3$_1clERKNSt3__16vectorIiNS1_9allocatorIiEEEEENKUliE_clEi', symObjAddr: 0x3AE0, symBinAddr: 0x100011C20, symSize: 0x20 }
  - { offsetInCU: 0xE5A7, offset: 0x361EA, size: 0x8, addend: 0x0, symName: __ZNSt3__113basic_filebufIcNS_11char_traitsIcEEE4openERKNS_12basic_stringIcS2_NS_9allocatorIcEEEEj, symObjAddr: 0x3B90, symBinAddr: 0x100011C40, symSize: 0x40 }
  - { offsetInCU: 0xE5EB, offset: 0x3622E, size: 0x8, addend: 0x0, symName: __ZNKSt3__112basic_stringIcNS_11char_traitsIcEENS_9allocatorIcEEE5c_strB7v160006Ev, symObjAddr: 0x3C40, symBinAddr: 0x100011C80, symSize: 0x20 }
  - { offsetInCU: 0xE60E, offset: 0x36251, size: 0x8, addend: 0x0, symName: __ZNKSt3__113basic_filebufIcNS_11char_traitsIcEEE7is_openEv, symObjAddr: 0x3C60, symBinAddr: 0x100011CA0, symSize: 0x20 }
  - { offsetInCU: 0xE636, offset: 0x36279, size: 0x8, addend: 0x0, symName: __ZNSt3__16vectorIiNS_9allocatorIiEEEC2Em, symObjAddr: 0x3C80, symBinAddr: 0x100011CC0, symSize: 0xE0 }
  - { offsetInCU: 0xE684, offset: 0x362C7, size: 0x8, addend: 0x0, symName: __ZNSt3__16vectorIiNS_9allocatorIiEEE18__construct_at_endEm, symObjAddr: 0x3E40, symBinAddr: 0x100011DA0, symSize: 0xC0 }
  - { offsetInCU: 0xE71A, offset: 0x3635D, size: 0x8, addend: 0x0, symName: __ZNSt3__116allocator_traitsINS_9allocatorIiEEE9constructB7v160006IiJEvEEvRS2_PT_DpOT0_, symObjAddr: 0x4490, symBinAddr: 0x100011E60, symSize: 0x30 }
  - { offsetInCU: 0xE75C, offset: 0x3639F, size: 0x8, addend: 0x0, symName: __ZNSt3__19allocatorIiE9constructB7v160006IiJEEEvPT_DpOT0_, symObjAddr: 0x4520, symBinAddr: 0x100011E90, symSize: 0x20 }
  - { offsetInCU: 0xE79B, offset: 0x363DE, size: 0x8, addend: 0x0, symName: __ZNSt3__16vectorINS0_IiNS_9allocatorIiEEEENS1_IS3_EEE8__appendEmRKS3_, symObjAddr: 0x45D0, symBinAddr: 0x100011EB0, symSize: 0x110 }
  - { offsetInCU: 0xE806, offset: 0x36449, size: 0x8, addend: 0x0, symName: __ZNSt3__16vectorINS0_IiNS_9allocatorIiEEEENS1_IS3_EEE17__destruct_at_endB7v160006EPS3_, symObjAddr: 0x46E0, symBinAddr: 0x100011FC0, symSize: 0x60 }
  - { offsetInCU: 0xE847, offset: 0x3648A, size: 0x8, addend: 0x0, symName: __ZNSt3__16vectorINS0_IiNS_9allocatorIiEEEENS1_IS3_EEE18__construct_at_endEmRKS3_, symObjAddr: 0x4760, symBinAddr: 0x100012020, symSize: 0xC0 }
  - { offsetInCU: 0xE8C8, offset: 0x3650B, size: 0x8, addend: 0x0, symName: __ZNKSt3__16vectorINS0_IiNS_9allocatorIiEEEENS1_IS3_EEE11__recommendB7v160006Em, symObjAddr: 0x4840, symBinAddr: 0x1000120E0, symSize: 0xA0 }
  - { offsetInCU: 0xE91D, offset: 0x36560, size: 0x8, addend: 0x0, symName: __ZNSt3__114__split_bufferINS_6vectorIiNS_9allocatorIiEEEERNS2_IS4_EEEC1EmmS6_, symObjAddr: 0x48E0, symBinAddr: 0x100012180, symSize: 0x40 }
  - { offsetInCU: 0xE972, offset: 0x365B5, size: 0x8, addend: 0x0, symName: __ZNSt3__114__split_bufferINS_6vectorIiNS_9allocatorIiEEEERNS2_IS4_EEE18__construct_at_endEmRKS4_, symObjAddr: 0x4920, symBinAddr: 0x1000121C0, symSize: 0xB0 }
  - { offsetInCU: 0xE9C2, offset: 0x36605, size: 0x8, addend: 0x0, symName: __ZNSt3__114__split_bufferINS_6vectorIiNS_9allocatorIiEEEERNS2_IS4_EEED1Ev, symObjAddr: 0x4B00, symBinAddr: 0x1000123A0, symSize: 0x20 }
  - { offsetInCU: 0xEA06, offset: 0x36649, size: 0x8, addend: 0x0, symName: __ZNSt3__116allocator_traitsINS_9allocatorINS_6vectorIiNS1_IiEEEEEEE9constructB7v160006IS4_JRKS4_EvEEvRS5_PT_DpOT0_, symObjAddr: 0x4B80, symBinAddr: 0x1000123C0, symSize: 0x30 }
  - { offsetInCU: 0xEA5D, offset: 0x366A0, size: 0x8, addend: 0x0, symName: __ZNSt3__19allocatorINS_6vectorIiNS0_IiEEEEE9constructB7v160006IS3_JRKS3_EEEvPT_DpOT0_, symObjAddr: 0x4C20, symBinAddr: 0x1000123F0, symSize: 0x30 }
  - { offsetInCU: 0xEABB, offset: 0x366FE, size: 0x8, addend: 0x0, symName: __ZNSt3__114__split_bufferINS_6vectorIiNS_9allocatorIiEEEERNS2_IS4_EEEC2EmmS6_, symObjAddr: 0x4EC0, symBinAddr: 0x100012420, symSize: 0xC0 }
  - { offsetInCU: 0xEB2E, offset: 0x36771, size: 0x8, addend: 0x0, symName: __ZNSt3__117__compressed_pairIPNS_6vectorIiNS_9allocatorIiEEEERNS2_IS4_EEEC1B7v160006IDnS7_EEOT_OT0_, symObjAddr: 0x4F80, symBinAddr: 0x1000124E0, symSize: 0x30 }
  - { offsetInCU: 0xEB85, offset: 0x367C8, size: 0x8, addend: 0x0, symName: __ZNSt3__114__split_bufferINS_6vectorIiNS_9allocatorIiEEEERNS2_IS4_EEE7__allocB7v160006Ev, symObjAddr: 0x4FF0, symBinAddr: 0x100012510, symSize: 0x20 }
  - { offsetInCU: 0xEBA9, offset: 0x367EC, size: 0x8, addend: 0x0, symName: __ZNSt3__114__split_bufferINS_6vectorIiNS_9allocatorIiEEEERNS2_IS4_EEE9__end_capB7v160006Ev, symObjAddr: 0x5010, symBinAddr: 0x100012530, symSize: 0x20 }
  - { offsetInCU: 0xEBCD, offset: 0x36810, size: 0x8, addend: 0x0, symName: __ZNSt3__117__compressed_pairIPNS_6vectorIiNS_9allocatorIiEEEERNS2_IS4_EEEC2B7v160006IDnS7_EEOT_OT0_, symObjAddr: 0x5030, symBinAddr: 0x100012550, symSize: 0x40 }
  - { offsetInCU: 0xEC24, offset: 0x36867, size: 0x8, addend: 0x0, symName: __ZNSt3__122__compressed_pair_elemIRNS_9allocatorINS_6vectorIiNS1_IiEEEEEELi1ELb0EEC2B7v160006IS6_vEEOT_, symObjAddr: 0x5090, symBinAddr: 0x100012590, symSize: 0x20 }
  - { offsetInCU: 0xEC65, offset: 0x368A8, size: 0x8, addend: 0x0, symName: __ZNSt3__117__compressed_pairIPNS_6vectorIiNS_9allocatorIiEEEERNS2_IS4_EEE6secondB7v160006Ev, symObjAddr: 0x5100, symBinAddr: 0x1000125B0, symSize: 0x20 }
  - { offsetInCU: 0xEC89, offset: 0x368CC, size: 0x8, addend: 0x0, symName: __ZNSt3__122__compressed_pair_elemIRNS_9allocatorINS_6vectorIiNS1_IiEEEEEELi1ELb0EE5__getB7v160006Ev, symObjAddr: 0x5120, symBinAddr: 0x1000125D0, symSize: 0x20 }
  - { offsetInCU: 0xECAD, offset: 0x368F0, size: 0x8, addend: 0x0, symName: __ZNSt3__117__compressed_pairIPNS_6vectorIiNS_9allocatorIiEEEERNS2_IS4_EEE5firstB7v160006Ev, symObjAddr: 0x5140, symBinAddr: 0x1000125F0, symSize: 0x20 }
  - { offsetInCU: 0xECDB, offset: 0x3691E, size: 0x8, addend: 0x0, symName: __ZNSt3__114__split_bufferINS_6vectorIiNS_9allocatorIiEEEERNS2_IS4_EEE21_ConstructTransactionC1B7v160006EPPS4_m, symObjAddr: 0x5160, symBinAddr: 0x100012610, symSize: 0x30 }
  - { offsetInCU: 0xED20, offset: 0x36963, size: 0x8, addend: 0x0, symName: __ZNSt3__114__split_bufferINS_6vectorIiNS_9allocatorIiEEEERNS2_IS4_EEE21_ConstructTransactionD1B7v160006Ev, symObjAddr: 0x5190, symBinAddr: 0x100012640, symSize: 0x20 }
  - { offsetInCU: 0xED49, offset: 0x3698C, size: 0x8, addend: 0x0, symName: __ZNSt3__114__split_bufferINS_6vectorIiNS_9allocatorIiEEEERNS2_IS4_EEE21_ConstructTransactionC2B7v160006EPPS4_m, symObjAddr: 0x51B0, symBinAddr: 0x100012660, symSize: 0x40 }
  - { offsetInCU: 0xED8E, offset: 0x369D1, size: 0x8, addend: 0x0, symName: __ZNSt3__114__split_bufferINS_6vectorIiNS_9allocatorIiEEEERNS2_IS4_EEE21_ConstructTransactionD2B7v160006Ev, symObjAddr: 0x51F0, symBinAddr: 0x1000126A0, symSize: 0x20 }
  - { offsetInCU: 0xEDB7, offset: 0x369FA, size: 0x8, addend: 0x0, symName: __ZNSt3__129_AllocatorDestroyRangeReverseINS_9allocatorINS_6vectorIiNS1_IiEEEEEENS_16reverse_iteratorIPS4_EEEC1B7v160006ERS5_RS8_SB_, symObjAddr: 0x5620, symBinAddr: 0x1000128E0, symSize: 0x40 }
  - { offsetInCU: 0xEE0D, offset: 0x36A50, size: 0x8, addend: 0x0, symName: __ZNSt3__116allocator_traitsINS_9allocatorINS_6vectorIiNS1_IiEEEEEEE9constructB7v160006IS4_JS4_EvEEvRS5_PT_DpOT0_, symObjAddr: 0x56A0, symBinAddr: 0x100012920, symSize: 0x30 }
  - { offsetInCU: 0xEE64, offset: 0x36AA7, size: 0x8, addend: 0x0, symName: __ZNSt3__128__exception_guard_exceptionsINS_29_AllocatorDestroyRangeReverseINS_9allocatorINS_6vectorIiNS2_IiEEEEEENS_16reverse_iteratorIPS5_EEEEE10__completeB7v160006Ev, symObjAddr: 0x5740, symBinAddr: 0x100012950, symSize: 0x20 }
  - { offsetInCU: 0xEE88, offset: 0x36ACB, size: 0x8, addend: 0x0, symName: __ZNSt3__128__exception_guard_exceptionsINS_29_AllocatorDestroyRangeReverseINS_9allocatorINS_6vectorIiNS2_IiEEEEEENS_16reverse_iteratorIPS5_EEEEED1B7v160006Ev, symObjAddr: 0x5760, symBinAddr: 0x100012970, symSize: 0x20 }
  - { offsetInCU: 0xEEB1, offset: 0x36AF4, size: 0x8, addend: 0x0, symName: __ZNSt3__128__exception_guard_exceptionsINS_29_AllocatorDestroyRangeReverseINS_9allocatorINS_6vectorIiNS2_IiEEEEEENS_16reverse_iteratorIPS5_EEEEEC1B7v160006ESA_, symObjAddr: 0x5780, symBinAddr: 0x100012990, symSize: 0x40 }
  - { offsetInCU: 0xEEE8, offset: 0x36B2B, size: 0x8, addend: 0x0, symName: __ZNSt3__128__exception_guard_exceptionsINS_29_AllocatorDestroyRangeReverseINS_9allocatorINS_6vectorIiNS2_IiEEEEEENS_16reverse_iteratorIPS5_EEEEEC2B7v160006ESA_, symObjAddr: 0x57C0, symBinAddr: 0x1000129D0, symSize: 0x30 }
  - { offsetInCU: 0xEF1F, offset: 0x36B62, size: 0x8, addend: 0x0, symName: __ZNSt3__129_AllocatorDestroyRangeReverseINS_9allocatorINS_6vectorIiNS1_IiEEEEEENS_16reverse_iteratorIPS4_EEEC2B7v160006ERS5_RS8_SB_, symObjAddr: 0x57F0, symBinAddr: 0x100012A00, symSize: 0x40 }
  - { offsetInCU: 0xEF75, offset: 0x36BB8, size: 0x8, addend: 0x0, symName: __ZNSt3__19allocatorINS_6vectorIiNS0_IiEEEEE9constructB7v160006IS3_JS3_EEEvPT_DpOT0_, symObjAddr: 0x5830, symBinAddr: 0x100012A40, symSize: 0x30 }
  - { offsetInCU: 0xEFC9, offset: 0x36C0C, size: 0x8, addend: 0x0, symName: __ZNSt3__16vectorIiNS_9allocatorIiEEEC1B7v160006EOS3_, symObjAddr: 0x5860, symBinAddr: 0x100012A70, symSize: 0x30 }
  - { offsetInCU: 0xF003, offset: 0x36C46, size: 0x8, addend: 0x0, symName: __ZNSt3__16vectorIiNS_9allocatorIiEEEC2B7v160006EOS3_, symObjAddr: 0x5890, symBinAddr: 0x100012AA0, symSize: 0xE0 }
  - { offsetInCU: 0xF03D, offset: 0x36C80, size: 0x8, addend: 0x0, symName: __ZNSt3__128__exception_guard_exceptionsINS_29_AllocatorDestroyRangeReverseINS_9allocatorINS_6vectorIiNS2_IiEEEEEENS_16reverse_iteratorIPS5_EEEEED2B7v160006Ev, symObjAddr: 0x5A60, symBinAddr: 0x100012B90, symSize: 0x40 }
  - { offsetInCU: 0xF066, offset: 0x36CA9, size: 0x8, addend: 0x0, symName: __ZNKSt3__129_AllocatorDestroyRangeReverseINS_9allocatorINS_6vectorIiNS1_IiEEEEEENS_16reverse_iteratorIPS4_EEEclB7v160006Ev, symObjAddr: 0x5AA0, symBinAddr: 0x100012BD0, symSize: 0xF0 }
  - { offsetInCU: 0xF08B, offset: 0x36CCE, size: 0x8, addend: 0x0, symName: __ZNSt3__116reverse_iteratorINS0_IPNS_6vectorIiNS_9allocatorIiEEEEEEEC1B7v160006ES6_, symObjAddr: 0x5C00, symBinAddr: 0x100012D30, symSize: 0x30 }
  - { offsetInCU: 0xF0C2, offset: 0x36D05, size: 0x8, addend: 0x0, symName: __ZNSt3__116reverse_iteratorINS0_IPNS_6vectorIiNS_9allocatorIiEEEEEEEppB7v160006Ev, symObjAddr: 0x5CD0, symBinAddr: 0x100012DD0, symSize: 0x30 }
  - { offsetInCU: 0xF0E6, offset: 0x36D29, size: 0x8, addend: 0x0, symName: __ZNKSt3__116reverse_iteratorINS0_IPNS_6vectorIiNS_9allocatorIiEEEEEEE4baseB7v160006Ev, symObjAddr: 0x5D00, symBinAddr: 0x100012E00, symSize: 0x20 }
  - { offsetInCU: 0xF10F, offset: 0x36D52, size: 0x8, addend: 0x0, symName: __ZNSt3__119__to_address_helperINS_16reverse_iteratorINS1_IPNS_6vectorIiNS_9allocatorIiEEEEEEEEvE6__callB7v160006ERKS8_, symObjAddr: 0x5D40, symBinAddr: 0x100012E20, symSize: 0x40 }
  - { offsetInCU: 0xF132, offset: 0x36D75, size: 0x8, addend: 0x0, symName: __ZNKSt3__116reverse_iteratorINS0_IPNS_6vectorIiNS_9allocatorIiEEEEEEEptB7v160006Ev, symObjAddr: 0x5D80, symBinAddr: 0x100012E60, symSize: 0x20 }
  - { offsetInCU: 0xF156, offset: 0x36D99, size: 0x8, addend: 0x0, symName: __ZNKSt3__116reverse_iteratorINS0_IPNS_6vectorIiNS_9allocatorIiEEEEEEEdeB7v160006Ev, symObjAddr: 0x5DA0, symBinAddr: 0x100012E80, symSize: 0x40 }
  - { offsetInCU: 0xF188, offset: 0x36DCB, size: 0x8, addend: 0x0, symName: __ZNSt3__116reverse_iteratorIPNS_6vectorIiNS_9allocatorIiEEEEEmmB7v160006Ev, symObjAddr: 0x5DE0, symBinAddr: 0x100012EC0, symSize: 0x20 }
  - { offsetInCU: 0xF1AC, offset: 0x36DEF, size: 0x8, addend: 0x0, symName: __ZNSt3__116reverse_iteratorINS0_IPNS_6vectorIiNS_9allocatorIiEEEEEEEC2B7v160006ES6_, symObjAddr: 0x5E00, symBinAddr: 0x100012EE0, symSize: 0x40 }
  - { offsetInCU: 0xF1E3, offset: 0x36E26, size: 0x8, addend: 0x0, symName: __ZNSt3__114__split_bufferINS_6vectorIiNS_9allocatorIiEEEERNS2_IS4_EEED2Ev, symObjAddr: 0x5E70, symBinAddr: 0x100012F20, symSize: 0x70 }
  - { offsetInCU: 0xF20E, offset: 0x36E51, size: 0x8, addend: 0x0, symName: __ZNSt3__114__split_bufferINS_6vectorIiNS_9allocatorIiEEEERNS2_IS4_EEE5clearB7v160006Ev, symObjAddr: 0x5EE0, symBinAddr: 0x100012F90, symSize: 0x20 }
  - { offsetInCU: 0xF232, offset: 0x36E75, size: 0x8, addend: 0x0, symName: __ZNKSt3__114__split_bufferINS_6vectorIiNS_9allocatorIiEEEERNS2_IS4_EEE8capacityB7v160006Ev, symObjAddr: 0x5F30, symBinAddr: 0x100012FB0, symSize: 0x40 }
  - { offsetInCU: 0xF256, offset: 0x36E99, size: 0x8, addend: 0x0, symName: __ZNSt3__114__split_bufferINS_6vectorIiNS_9allocatorIiEEEERNS2_IS4_EEE17__destruct_at_endB7v160006EPS4_, symObjAddr: 0x5F70, symBinAddr: 0x100012FF0, symSize: 0x30 }
  - { offsetInCU: 0xF287, offset: 0x36ECA, size: 0x8, addend: 0x0, symName: __ZNSt3__114__split_bufferINS_6vectorIiNS_9allocatorIiEEEERNS2_IS4_EEE17__destruct_at_endB7v160006EPS4_NS_17integral_constantIbLb0EEE, symObjAddr: 0x5FA0, symBinAddr: 0x100013020, symSize: 0x80 }
  - { offsetInCU: 0xF2C8, offset: 0x36F0B, size: 0x8, addend: 0x0, symName: __ZNKSt3__114__split_bufferINS_6vectorIiNS_9allocatorIiEEEERNS2_IS4_EEE9__end_capB7v160006Ev, symObjAddr: 0x6070, symBinAddr: 0x1000130A0, symSize: 0x20 }
  - { offsetInCU: 0xF2EC, offset: 0x36F2F, size: 0x8, addend: 0x0, symName: __ZNKSt3__117__compressed_pairIPNS_6vectorIiNS_9allocatorIiEEEERNS2_IS4_EEE5firstB7v160006Ev, symObjAddr: 0x6090, symBinAddr: 0x1000130C0, symSize: 0x20 }
  - { offsetInCU: 0xF30F, offset: 0x36F52, size: 0x8, addend: 0x0, symName: __ZNSt3__16vectorINS0_IiNS_9allocatorIiEEEENS1_IS3_EEE27__invalidate_iterators_pastB7v160006EPS3_, symObjAddr: 0x60B0, symBinAddr: 0x1000130E0, symSize: 0x10 }
  - { offsetInCU: 0xF346, offset: 0x36F89, size: 0x8, addend: 0x0, symName: __ZNSt3__16vectorINS0_IiNS_9allocatorIiEEEENS1_IS3_EEE11__make_iterB7v160006EPS3_, symObjAddr: 0x61E0, symBinAddr: 0x1000130F0, symSize: 0x30 }
  - { offsetInCU: 0xF379, offset: 0x36FBC, size: 0x8, addend: 0x0, symName: __ZNSt3__111__wrap_iterIPNS_6vectorIiNS_9allocatorIiEEEEEC1B7v160006EPKvS5_, symObjAddr: 0x6210, symBinAddr: 0x100013120, symSize: 0x30 }
  - { offsetInCU: 0xF3BE, offset: 0x37001, size: 0x8, addend: 0x0, symName: __ZNSt3__111__wrap_iterIPNS_6vectorIiNS_9allocatorIiEEEEEC2B7v160006EPKvS5_, symObjAddr: 0x6240, symBinAddr: 0x100013150, symSize: 0x20 }
  - { offsetInCU: 0xF403, offset: 0x37046, size: 0x8, addend: 0x0, symName: __ZNSt3__113basic_ostreamIcNS_11char_traitsIcEEEC2B7v160006EPNS_15basic_streambufIcS2_EE, symObjAddr: 0x6260, symBinAddr: 0x100013170, symSize: 0x50 }
  - { offsetInCU: 0xF446, offset: 0x37089, size: 0x8, addend: 0x0, symName: __ZNSt3__16vectorIiNS_9allocatorIiEEE22__construct_one_at_endB7v160006IJRKiEEEvDpOT_, symObjAddr: 0x6C90, symBinAddr: 0x1000131C0, symSize: 0x90 }
  - { offsetInCU: 0xF492, offset: 0x370D5, size: 0x8, addend: 0x0, symName: __ZNSt3__16vectorIiNS_9allocatorIiEEE21__push_back_slow_pathIRKiEEvOT_, symObjAddr: 0x6D20, symBinAddr: 0x100013250, symSize: 0xD0 }
  - { offsetInCU: 0xF4F0, offset: 0x37133, size: 0x8, addend: 0x0, symName: __ZNSt3__116allocator_traitsINS_9allocatorIiEEE9constructB7v160006IiJRKiEvEEvRS2_PT_DpOT0_, symObjAddr: 0x6DF0, symBinAddr: 0x100013320, symSize: 0x30 }
  - { offsetInCU: 0xF547, offset: 0x3718A, size: 0x8, addend: 0x0, symName: __ZNSt3__19allocatorIiE9constructB7v160006IiJRKiEEEvPT_DpOT0_, symObjAddr: 0x6E20, symBinAddr: 0x100013350, symSize: 0x20 }
  - { offsetInCU: 0xF59A, offset: 0x371DD, size: 0x8, addend: 0x0, symName: __ZNKSt3__16vectorIiNS_9allocatorIiEEE11__recommendB7v160006Em, symObjAddr: 0x6E40, symBinAddr: 0x100013370, symSize: 0xA0 }
  - { offsetInCU: 0xF5EF, offset: 0x37232, size: 0x8, addend: 0x0, symName: __ZNSt3__114__split_bufferIiRNS_9allocatorIiEEEC1EmmS3_, symObjAddr: 0x6EE0, symBinAddr: 0x100013410, symSize: 0x40 }
  - { offsetInCU: 0xF644, offset: 0x37287, size: 0x8, addend: 0x0, symName: __ZNSt3__114__split_bufferIiRNS_9allocatorIiEEED1Ev, symObjAddr: 0x7050, symBinAddr: 0x100013580, symSize: 0x20 }
  - { offsetInCU: 0xF66F, offset: 0x372B2, size: 0x8, addend: 0x0, symName: __ZNSt3__114__split_bufferIiRNS_9allocatorIiEEEC2EmmS3_, symObjAddr: 0x7070, symBinAddr: 0x1000135A0, symSize: 0xD0 }
  - { offsetInCU: 0xF6E2, offset: 0x37325, size: 0x8, addend: 0x0, symName: __ZNSt3__117__compressed_pairIPiRNS_9allocatorIiEEEC1B7v160006IDnS4_EEOT_OT0_, symObjAddr: 0x7140, symBinAddr: 0x100013670, symSize: 0x30 }
  - { offsetInCU: 0xF739, offset: 0x3737C, size: 0x8, addend: 0x0, symName: __ZNSt3__114__split_bufferIiRNS_9allocatorIiEEE7__allocB7v160006Ev, symObjAddr: 0x7170, symBinAddr: 0x1000136A0, symSize: 0x20 }
  - { offsetInCU: 0xF75D, offset: 0x373A0, size: 0x8, addend: 0x0, symName: __ZNSt3__114__split_bufferIiRNS_9allocatorIiEEE9__end_capB7v160006Ev, symObjAddr: 0x7190, symBinAddr: 0x1000136C0, symSize: 0x20 }
  - { offsetInCU: 0xF781, offset: 0x373C4, size: 0x8, addend: 0x0, symName: __ZNSt3__117__compressed_pairIPiRNS_9allocatorIiEEEC2B7v160006IDnS4_EEOT_OT0_, symObjAddr: 0x71B0, symBinAddr: 0x1000136E0, symSize: 0x40 }
  - { offsetInCU: 0xF7D8, offset: 0x3741B, size: 0x8, addend: 0x0, symName: __ZNSt3__122__compressed_pair_elemIRNS_9allocatorIiEELi1ELb0EEC2B7v160006IS3_vEEOT_, symObjAddr: 0x71F0, symBinAddr: 0x100013720, symSize: 0x20 }
  - { offsetInCU: 0xF819, offset: 0x3745C, size: 0x8, addend: 0x0, symName: __ZNSt3__117__compressed_pairIPiRNS_9allocatorIiEEE6secondB7v160006Ev, symObjAddr: 0x7210, symBinAddr: 0x100013740, symSize: 0x20 }
  - { offsetInCU: 0xF83D, offset: 0x37480, size: 0x8, addend: 0x0, symName: __ZNSt3__122__compressed_pair_elemIRNS_9allocatorIiEELi1ELb0EE5__getB7v160006Ev, symObjAddr: 0x7230, symBinAddr: 0x100013760, symSize: 0x20 }
  - { offsetInCU: 0xF861, offset: 0x374A4, size: 0x8, addend: 0x0, symName: __ZNSt3__117__compressed_pairIPiRNS_9allocatorIiEEE5firstB7v160006Ev, symObjAddr: 0x7250, symBinAddr: 0x100013780, symSize: 0x20 }
  - { offsetInCU: 0xF8A8, offset: 0x374EB, size: 0x8, addend: 0x0, symName: __ZNKSt3__111__move_loopINS_17_ClassicAlgPolicyEEclB7v160006INS_16reverse_iteratorIPiEES6_S6_EENS_4pairIT_T1_EES8_T0_S9_, symObjAddr: 0x7770, symBinAddr: 0x100013CA0, symSize: 0xA0 }
  - { offsetInCU: 0xF911, offset: 0x37554, size: 0x8, addend: 0x0, symName: __ZNSt3__18_IterOpsINS_17_ClassicAlgPolicyEE11__iter_moveB7v160006IRNS_16reverse_iteratorIPiEEEENS_9enable_ifIXsr12is_referenceIDTdeclsr3stdE7declvalIRT_EEEEE5valueEDTclsr3stdE4movedeclsr3stdE7declvalISA_EEEEE4typeEOS9_, symObjAddr: 0x7950, symBinAddr: 0x100013E80, symSize: 0x20 }
  - { offsetInCU: 0xF93D, offset: 0x37580, size: 0x8, addend: 0x0, symName: __ZNSt3__18_IterOpsINS_17_ClassicAlgPolicyEE25__validate_iter_referenceB7v160006IRNS_16reverse_iteratorIPiEEEEvv, symObjAddr: 0x7970, symBinAddr: 0x100013EA0, symSize: 0x10 }
  - { offsetInCU: 0xF95B, offset: 0x3759E, size: 0x8, addend: 0x0, symName: __ZNSt3__118__unwrap_iter_implINS_16reverse_iteratorIPiEELb0EE8__unwrapB7v160006ES3_, symObjAddr: 0x7980, symBinAddr: 0x100013EB0, symSize: 0x20 }
  - { offsetInCU: 0xF983, offset: 0x375C6, size: 0x8, addend: 0x0, symName: __ZNSt3__14pairINS_16reverse_iteratorIPiEES3_EC1B7v160006IS3_S3_LPv0EEEOT_OT0_, symObjAddr: 0x79A0, symBinAddr: 0x100013ED0, symSize: 0x30 }
  - { offsetInCU: 0xF9E0, offset: 0x37623, size: 0x8, addend: 0x0, symName: __ZNSt3__14pairINS_16reverse_iteratorIPiEES3_EC2B7v160006IS3_S3_LPv0EEEOT_OT0_, symObjAddr: 0x79D0, symBinAddr: 0x100013F00, symSize: 0x40 }
  - { offsetInCU: 0xFA3D, offset: 0x37680, size: 0x8, addend: 0x0, symName: __ZNSt3__118__unwrap_iter_implINS_16reverse_iteratorIPiEELb0EE8__rewrapB7v160006ES3_S3_, symObjAddr: 0x7A10, symBinAddr: 0x100013F40, symSize: 0x30 }
  - { offsetInCU: 0xFA6B, offset: 0x376AE, size: 0x8, addend: 0x0, symName: __ZNSt3__114__split_bufferIiRNS_9allocatorIiEEED2Ev, symObjAddr: 0x7A40, symBinAddr: 0x100013F70, symSize: 0x70 }
  - { offsetInCU: 0xFA96, offset: 0x376D9, size: 0x8, addend: 0x0, symName: __ZNSt3__114__split_bufferIiRNS_9allocatorIiEEE5clearB7v160006Ev, symObjAddr: 0x7AB0, symBinAddr: 0x100013FE0, symSize: 0x20 }
  - { offsetInCU: 0xFABA, offset: 0x376FD, size: 0x8, addend: 0x0, symName: __ZNKSt3__114__split_bufferIiRNS_9allocatorIiEEE8capacityB7v160006Ev, symObjAddr: 0x7AD0, symBinAddr: 0x100014000, symSize: 0x30 }
  - { offsetInCU: 0xFADE, offset: 0x37721, size: 0x8, addend: 0x0, symName: __ZNSt3__114__split_bufferIiRNS_9allocatorIiEEE17__destruct_at_endB7v160006EPi, symObjAddr: 0x7B00, symBinAddr: 0x100014030, symSize: 0x30 }
  - { offsetInCU: 0xFB0F, offset: 0x37752, size: 0x8, addend: 0x0, symName: __ZNSt3__114__split_bufferIiRNS_9allocatorIiEEE17__destruct_at_endB7v160006EPiNS_17integral_constantIbLb0EEE, symObjAddr: 0x7B30, symBinAddr: 0x100014060, symSize: 0x80 }
  - { offsetInCU: 0xFB50, offset: 0x37793, size: 0x8, addend: 0x0, symName: __ZNKSt3__114__split_bufferIiRNS_9allocatorIiEEE9__end_capB7v160006Ev, symObjAddr: 0x7BB0, symBinAddr: 0x1000140E0, symSize: 0x20 }
  - { offsetInCU: 0xFB74, offset: 0x377B7, size: 0x8, addend: 0x0, symName: __ZNKSt3__117__compressed_pairIPiRNS_9allocatorIiEEE5firstB7v160006Ev, symObjAddr: 0x7BD0, symBinAddr: 0x100014100, symSize: 0x20 }
  - { offsetInCU: 0xFB98, offset: 0x377DB, size: 0x8, addend: 0x0, symName: __ZNSt3__16vectorI8PositionNS_9allocatorIS1_EEE22__construct_one_at_endB7v160006IJRiS6_EEEvDpOT_, symObjAddr: 0x81D0, symBinAddr: 0x100014120, symSize: 0xA0 }
  - { offsetInCU: 0xFBF8, offset: 0x3783B, size: 0x8, addend: 0x0, symName: __ZNSt3__16vectorI8PositionNS_9allocatorIS1_EEE24__emplace_back_slow_pathIJRiS6_EEEvDpOT_, symObjAddr: 0x8270, symBinAddr: 0x1000141C0, symSize: 0xE0 }
  - { offsetInCU: 0xFC86, offset: 0x378C9, size: 0x8, addend: 0x0, symName: __ZNSt3__116allocator_traitsINS_9allocatorI8PositionEEE9constructB7v160006IS2_JRiS6_EvEEvRS3_PT_DpOT0_, symObjAddr: 0x83B0, symBinAddr: 0x1000142A0, symSize: 0x40 }
  - { offsetInCU: 0xFCF1, offset: 0x37934, size: 0x8, addend: 0x0, symName: __ZNSt3__19allocatorI8PositionE9constructB7v160006IS1_JRiS4_EEEvPT_DpOT0_, symObjAddr: 0x8450, symBinAddr: 0x1000142E0, symSize: 0x40 }
  - { offsetInCU: 0xFD58, offset: 0x3799B, size: 0x8, addend: 0x0, symName: __ZN8PositionC1Eii, symObjAddr: 0x8490, symBinAddr: 0x100014320, symSize: 0x30 }
  - { offsetInCU: 0xFD9D, offset: 0x379E0, size: 0x8, addend: 0x0, symName: __ZN8PositionC2Eii, symObjAddr: 0x84C0, symBinAddr: 0x100014350, symSize: 0x20 }
  - { offsetInCU: 0xFDE2, offset: 0x37A25, size: 0x8, addend: 0x0, symName: __ZNSt3__114__split_bufferI8PositionRNS_9allocatorIS1_EEEC1EmmS4_, symObjAddr: 0x85A0, symBinAddr: 0x100014370, symSize: 0x40 }
  - { offsetInCU: 0xFE37, offset: 0x37A7A, size: 0x8, addend: 0x0, symName: __ZNSt3__114__split_bufferI8PositionRNS_9allocatorIS1_EEED1Ev, symObjAddr: 0x8710, symBinAddr: 0x1000144E0, symSize: 0x20 }
  - { offsetInCU: 0xFE6C, offset: 0x37AAF, size: 0x8, addend: 0x0, symName: __ZNSt3__114__split_bufferI8PositionRNS_9allocatorIS1_EEEC2EmmS4_, symObjAddr: 0x8840, symBinAddr: 0x100014500, symSize: 0xD0 }
  - { offsetInCU: 0xFEDF, offset: 0x37B22, size: 0x8, addend: 0x0, symName: __ZNSt3__117__compressed_pairIP8PositionRNS_9allocatorIS1_EEEC1B7v160006IDnS5_EEOT_OT0_, symObjAddr: 0x8910, symBinAddr: 0x1000145D0, symSize: 0x30 }
  - { offsetInCU: 0xFF36, offset: 0x37B79, size: 0x8, addend: 0x0, symName: __ZNSt3__114__split_bufferI8PositionRNS_9allocatorIS1_EEE7__allocB7v160006Ev, symObjAddr: 0x8980, symBinAddr: 0x100014600, symSize: 0x20 }
  - { offsetInCU: 0xFF5A, offset: 0x37B9D, size: 0x8, addend: 0x0, symName: __ZNSt3__114__split_bufferI8PositionRNS_9allocatorIS1_EEE9__end_capB7v160006Ev, symObjAddr: 0x89A0, symBinAddr: 0x100014620, symSize: 0x20 }
  - { offsetInCU: 0xFF7E, offset: 0x37BC1, size: 0x8, addend: 0x0, symName: __ZNSt3__117__compressed_pairIP8PositionRNS_9allocatorIS1_EEEC2B7v160006IDnS5_EEOT_OT0_, symObjAddr: 0x89C0, symBinAddr: 0x100014640, symSize: 0x40 }
  - { offsetInCU: 0xFFD5, offset: 0x37C18, size: 0x8, addend: 0x0, symName: __ZNSt3__122__compressed_pair_elemIRNS_9allocatorI8PositionEELi1ELb0EEC2B7v160006IS4_vEEOT_, symObjAddr: 0x8A00, symBinAddr: 0x100014680, symSize: 0x20 }
  - { offsetInCU: 0x10016, offset: 0x37C59, size: 0x8, addend: 0x0, symName: __ZNSt3__117__compressed_pairIP8PositionRNS_9allocatorIS1_EEE6secondB7v160006Ev, symObjAddr: 0x8A70, symBinAddr: 0x1000146A0, symSize: 0x20 }
  - { offsetInCU: 0x1003A, offset: 0x37C7D, size: 0x8, addend: 0x0, symName: __ZNSt3__122__compressed_pair_elemIRNS_9allocatorI8PositionEELi1ELb0EE5__getB7v160006Ev, symObjAddr: 0x8A90, symBinAddr: 0x1000146C0, symSize: 0x20 }
  - { offsetInCU: 0x1005E, offset: 0x37CA1, size: 0x8, addend: 0x0, symName: __ZNSt3__117__compressed_pairIP8PositionRNS_9allocatorIS1_EEE5firstB7v160006Ev, symObjAddr: 0x8AB0, symBinAddr: 0x1000146E0, symSize: 0x20 }
  - { offsetInCU: 0x1009B, offset: 0x37CDE, size: 0x8, addend: 0x0, symName: __ZNKSt3__111__move_loopINS_17_ClassicAlgPolicyEEclB7v160006INS_16reverse_iteratorIP8PositionEES7_S7_EENS_4pairIT_T1_EES9_T0_SA_, symObjAddr: 0x90D0, symBinAddr: 0x100014BF0, symSize: 0xA0 }
  - { offsetInCU: 0x10109, offset: 0x37D4C, size: 0x8, addend: 0x0, symName: __ZNSt3__18_IterOpsINS_17_ClassicAlgPolicyEE11__iter_moveB7v160006IRNS_16reverse_iteratorIP8PositionEEEENS_9enable_ifIXsr12is_referenceIDTdeclsr3stdE7declvalIRT_EEEEE5valueEDTclsr3stdE4movedeclsr3stdE7declvalISB_EEEEE4typeEOSA_, symObjAddr: 0x92F0, symBinAddr: 0x100014DD0, symSize: 0x20 }
  - { offsetInCU: 0x10135, offset: 0x37D78, size: 0x8, addend: 0x0, symName: __ZNSt3__18_IterOpsINS_17_ClassicAlgPolicyEE25__validate_iter_referenceB7v160006IRNS_16reverse_iteratorIP8PositionEEEEvv, symObjAddr: 0x9360, symBinAddr: 0x100014DF0, symSize: 0x10 }
  - { offsetInCU: 0x10153, offset: 0x37D96, size: 0x8, addend: 0x0, symName: __ZNSt3__118__unwrap_iter_implINS_16reverse_iteratorIP8PositionEELb0EE8__unwrapB7v160006ES4_, symObjAddr: 0x9370, symBinAddr: 0x100014E00, symSize: 0x20 }
  - { offsetInCU: 0x1017B, offset: 0x37DBE, size: 0x8, addend: 0x0, symName: __ZNSt3__14pairINS_16reverse_iteratorIP8PositionEES4_EC1B7v160006IS4_S4_LPv0EEEOT_OT0_, symObjAddr: 0x9390, symBinAddr: 0x100014E20, symSize: 0x30 }
  - { offsetInCU: 0x101D8, offset: 0x37E1B, size: 0x8, addend: 0x0, symName: __ZNSt3__14pairINS_16reverse_iteratorIP8PositionEES4_EC2B7v160006IS4_S4_LPv0EEEOT_OT0_, symObjAddr: 0x93C0, symBinAddr: 0x100014E50, symSize: 0x40 }
  - { offsetInCU: 0x10235, offset: 0x37E78, size: 0x8, addend: 0x0, symName: __ZNSt3__118__unwrap_iter_implINS_16reverse_iteratorIP8PositionEELb0EE8__rewrapB7v160006ES4_S4_, symObjAddr: 0x9400, symBinAddr: 0x100014E90, symSize: 0x30 }
  - { offsetInCU: 0x10263, offset: 0x37EA6, size: 0x8, addend: 0x0, symName: __ZNSt3__114__split_bufferI8PositionRNS_9allocatorIS1_EEED2Ev, symObjAddr: 0x9460, symBinAddr: 0x100014EC0, symSize: 0x70 }
  - { offsetInCU: 0x1028E, offset: 0x37ED1, size: 0x8, addend: 0x0, symName: __ZNSt3__114__split_bufferI8PositionRNS_9allocatorIS1_EEE5clearB7v160006Ev, symObjAddr: 0x94D0, symBinAddr: 0x100014F30, symSize: 0x20 }
  - { offsetInCU: 0x102B2, offset: 0x37EF5, size: 0x8, addend: 0x0, symName: __ZNKSt3__114__split_bufferI8PositionRNS_9allocatorIS1_EEE8capacityB7v160006Ev, symObjAddr: 0x94F0, symBinAddr: 0x100014F50, symSize: 0x30 }
  - { offsetInCU: 0x102D6, offset: 0x37F19, size: 0x8, addend: 0x0, symName: __ZNSt3__114__split_bufferI8PositionRNS_9allocatorIS1_EEE17__destruct_at_endB7v160006EPS1_, symObjAddr: 0x9520, symBinAddr: 0x100014F80, symSize: 0x30 }
  - { offsetInCU: 0x10307, offset: 0x37F4A, size: 0x8, addend: 0x0, symName: __ZNSt3__114__split_bufferI8PositionRNS_9allocatorIS1_EEE17__destruct_at_endB7v160006EPS1_NS_17integral_constantIbLb0EEE, symObjAddr: 0x9550, symBinAddr: 0x100014FB0, symSize: 0x80 }
  - { offsetInCU: 0x10348, offset: 0x37F8B, size: 0x8, addend: 0x0, symName: __ZNKSt3__114__split_bufferI8PositionRNS_9allocatorIS1_EEE9__end_capB7v160006Ev, symObjAddr: 0x95D0, symBinAddr: 0x100015030, symSize: 0x20 }
  - { offsetInCU: 0x1036C, offset: 0x37FAF, size: 0x8, addend: 0x0, symName: __ZNKSt3__117__compressed_pairIP8PositionRNS_9allocatorIS1_EEE5firstB7v160006Ev, symObjAddr: 0x95F0, symBinAddr: 0x100015050, symSize: 0x1B }
  - { offsetInCU: 0x83AD, offset: 0x404A6, size: 0x8, addend: 0x0, symName: '__ZNSt3__15asyncB7v160006IZN12PossibleGrid12analyzeMovesERK4GridE3$_0JEEENS_6futureINS_11__invoke_ofINS_5decayIT_E4typeEJDpNS8_IT0_E4typeEEE4typeEEENS_6launchEOS9_DpOSC_', symObjAddr: 0x6A0, symBinAddr: 0x1000154E0, symSize: 0x190 }
  - { offsetInCU: 0xA1F6, offset: 0x422EF, size: 0x8, addend: 0x0, symName: __ZNSt3__17advanceB7v160006INS_11__wrap_iterIPKiEEllvEEvRT_T0_, symObjAddr: 0x91D0, symBinAddr: 0x100017D10, symSize: 0x50 }
  - { offsetInCU: 0xB354, offset: 0x4344D, size: 0x8, addend: 0x0, symName: __ZNSt3__17advanceB7v160006INS_11__wrap_iterIPNS_4pairI8PositioniEEEEllvEEvRT_T0_, symObjAddr: 0xF960, symBinAddr: 0x10001C8B0, symSize: 0x50 }
  - { offsetInCU: 0xD433, offset: 0x4552C, size: 0x8, addend: 0x0, symName: '__ZNSt3__15asyncB7v160006IZNK12PossibleGrid20identifyUniqueValuesEibE3$_1JEEENS_6futureINS_11__invoke_ofINS_5decayIT_E4typeEJDpNS5_IT0_E4typeEEE4typeEEENS_6launchEOS6_DpOS9_', symObjAddr: 0x12A0, symBinAddr: 0x100016040, symSize: 0x180 }
  - { offsetInCU: 0x117C3, offset: 0x498BC, size: 0x8, addend: 0x0, symName: __ZNSt3__14iotaB7v160006INS_11__wrap_iterIPiEEiEEvT_S4_T0_, symObjAddr: 0x500, symBinAddr: 0x1000153C0, symSize: 0x60 }
  - { offsetInCU: 0x11819, offset: 0x49912, size: 0x8, addend: 0x0, symName: __ZNSt3__1neB7v160006IPNS_6futureIvEEEEbRKNS_11__wrap_iterIT_EES8_, symObjAddr: 0x890, symBinAddr: 0x1000156D0, symSize: 0x30 }
  - { offsetInCU: 0x1185C, offset: 0x49955, size: 0x8, addend: 0x0, symName: __ZNSt3__1neB7v160006IPNS_6futureINS_6vectorINS_4pairI8PositioniEENS_9allocatorIS5_EEEEEEEEbRKNS_11__wrap_iterIT_EESF_, symObjAddr: 0x14A0, symBinAddr: 0x100016240, symSize: 0x30 }
  - { offsetInCU: 0x1189F, offset: 0x49998, size: 0x8, addend: 0x0, symName: __ZNSt3__1eqB7v160006IPNS_6futureIvEEEEbRKNS_11__wrap_iterIT_EES8_, symObjAddr: 0x1C20, symBinAddr: 0x100016360, symSize: 0x40 }
  - { offsetInCU: 0x118E2, offset: 0x499DB, size: 0x8, addend: 0x0, symName: __ZNSt3__1eqB7v160006IPNS_6futureINS_6vectorINS_4pairI8PositioniEENS_9allocatorIS5_EEEEEEEEbRKNS_11__wrap_iterIT_EESF_, symObjAddr: 0x1C80, symBinAddr: 0x1000163C0, symSize: 0x40 }
  - { offsetInCU: 0x119A7, offset: 0x49AA0, size: 0x8, addend: 0x0, symName: __ZNSt3__119__debug_db_insert_cB7v160006INS_6vectorINS_6futureIvEENS_9allocatorIS3_EEEEEEvPT_, symObjAddr: 0x7840, symBinAddr: 0x1000164B0, symSize: 0x10 }
  - { offsetInCU: 0x119D8, offset: 0x49AD1, size: 0x8, addend: 0x0, symName: __ZNSt3__118__debug_db_erase_cB7v160006INS_6vectorINS_6futureIvEENS_9allocatorIS3_EEEEEEvPT_, symObjAddr: 0x7AD0, symBinAddr: 0x100016740, symSize: 0x10 }
  - { offsetInCU: 0x11A09, offset: 0x49B02, size: 0x8, addend: 0x0, symName: __ZNSt3__112__to_addressB7v160006INS_6futureIvEEEEPT_S4_, symObjAddr: 0x7BE0, symBinAddr: 0x100016850, symSize: 0x10 }
  - { offsetInCU: 0x11A3E, offset: 0x49B37, size: 0x8, addend: 0x0, symName: __ZNSt3__121__does_policy_containB7v160006ENS_6launchES0_, symObjAddr: 0x7D80, symBinAddr: 0x1000169F0, symSize: 0x20 }
  - { offsetInCU: 0x11A7B, offset: 0x49B74, size: 0x8, addend: 0x0, symName: '__ZNSt3__124__make_async_assoc_stateB7v160006IvNS_12__async_funcIZN12PossibleGrid12analyzeMovesERK4GridE3$_0JEEEEENS_6futureIT_EEOT0_', symObjAddr: 0x7DA0, symBinAddr: 0x100016A10, symSize: 0x120 }
  - { offsetInCU: 0x11AC7, offset: 0x49BC0, size: 0x8, addend: 0x0, symName: '__ZNSt3__127__make_deferred_assoc_stateB7v160006IvNS_12__async_funcIZN12PossibleGrid12analyzeMovesERK4GridE3$_0JEEEEENS_6futureIT_EEOT0_', symObjAddr: 0x7EF0, symBinAddr: 0x100016B60, symSize: 0xC0 }
  - { offsetInCU: 0x12138, offset: 0x4A231, size: 0x8, addend: 0x0, symName: '__ZNSt3__18__invokeB7v160006IZN12PossibleGrid12analyzeMovesERK4GridE3$_0JEEEDTclclsr3stdE7declvalIT_EEspclsr3stdE7declvalIT0_EEEEOS6_DpOS7_', symObjAddr: 0x8520, symBinAddr: 0x100017190, symSize: 0x20 }
  - { offsetInCU: 0x12170, offset: 0x4A269, size: 0x8, addend: 0x0, symName: '__ZNSt3__13getB7v160006ILm0EJZN12PossibleGrid12analyzeMovesERK4GridE3$_0EEERNS_13tuple_elementIXT_ENS_5tupleIJDpT0_EEEE4typeERSA_', symObjAddr: 0x8540, symBinAddr: 0x1000171B0, symSize: 0x20 }
  - { offsetInCU: 0x121B4, offset: 0x4A2AD, size: 0x8, addend: 0x0, symName: __ZNSt3__114set_differenceB7v160006INS_11__wrap_iterIPiEES3_NS_20back_insert_iteratorINS_6vectorIiNS_9allocatorIiEEEEEEEET1_T_SB_T0_SC_SA_, symObjAddr: 0x9050, symBinAddr: 0x100017BE0, symSize: 0x60 }
  - { offsetInCU: 0x12233, offset: 0x4A32C, size: 0x8, addend: 0x0, symName: __ZNSt3__1miB7v160006IPKiPiEEDTmicldtfp_4baseEcldtfp0_4baseEERKNS_11__wrap_iterIT_EERKNS5_IT0_EE, symObjAddr: 0x9150, symBinAddr: 0x100017C90, symSize: 0x40 }
  - { offsetInCU: 0x1227F, offset: 0x4A378, size: 0x8, addend: 0x0, symName: __ZNSt3__18distanceB7v160006INS_11__wrap_iterIPKiEEEENS_15iterator_traitsIT_E15difference_typeES6_S6_, symObjAddr: 0x9190, symBinAddr: 0x100017CD0, symSize: 0x40 }
  - { offsetInCU: 0x122C2, offset: 0x4A3BB, size: 0x8, addend: 0x0, symName: __ZNSt3__14copyB7v160006INS_11__wrap_iterIPKiEEPiEET0_T_S7_S6_, symObjAddr: 0x93F0, symBinAddr: 0x100017F30, symSize: 0x50 }
  - { offsetInCU: 0x1231C, offset: 0x4A415, size: 0x8, addend: 0x0, symName: __ZNSt3__110__distanceB7v160006INS_11__wrap_iterIPKiEEEENS_15iterator_traitsIT_E15difference_typeES6_S6_NS_26random_access_iterator_tagE, symObjAddr: 0x97C0, symBinAddr: 0x1000181E0, symSize: 0x30 }
  - { offsetInCU: 0x1236A, offset: 0x4A463, size: 0x8, addend: 0x0, symName: __ZNSt3__1miB7v160006IPKiS2_EEDTmicldtfp_4baseEcldtfp0_4baseEERKNS_11__wrap_iterIT_EERKNS4_IT0_EE, symObjAddr: 0x97F0, symBinAddr: 0x100018210, symSize: 0x40 }
  - { offsetInCU: 0x123B6, offset: 0x4A4AF, size: 0x8, addend: 0x0, symName: __ZNSt3__121__convert_to_integralB7v160006El, symObjAddr: 0x9830, symBinAddr: 0x100018250, symSize: 0x10 }
  - { offsetInCU: 0x123E2, offset: 0x4A4DB, size: 0x8, addend: 0x0, symName: __ZNSt3__19__advanceB7v160006INS_11__wrap_iterIPKiEEEEvRT_NS_15iterator_traitsIS5_E15difference_typeENS_26random_access_iterator_tagE, symObjAddr: 0x9840, symBinAddr: 0x100018260, symSize: 0x30 }
  - { offsetInCU: 0x1242C, offset: 0x4A525, size: 0x8, addend: 0x0, symName: __ZNSt3__130__uninitialized_allocator_copyB7v160006INS_9allocatorIiEENS_11__wrap_iterIPKiEES6_PiEET2_RT_T0_T1_S8_, symObjAddr: 0x9890, symBinAddr: 0x1000182B0, symSize: 0x120 }
  - { offsetInCU: 0x124CA, offset: 0x4A5C3, size: 0x8, addend: 0x0, symName: __ZNSt3__113move_backwardB7v160006IPiS1_EET0_T_S3_S2_, symObjAddr: 0x9AE0, symBinAddr: 0x100018400, symSize: 0x40 }
  - { offsetInCU: 0x12524, offset: 0x4A61D, size: 0x8, addend: 0x0, symName: __ZNSt3__115__move_backwardB7v160006INS_17_ClassicAlgPolicyEPiS2_S2_EENS_4pairIT0_T2_EES4_T1_S5_, symObjAddr: 0x9B40, symBinAddr: 0x100018460, symSize: 0x40 }
  - { offsetInCU: 0x12590, offset: 0x4A689, size: 0x8, addend: 0x0, symName: __ZNSt3__123__dispatch_copy_or_moveB7v160006INS_17_ClassicAlgPolicyENS_20__move_backward_loopIS1_EENS_23__move_backward_trivialEPiS5_S5_EENS_4pairIT2_T4_EES7_T3_S8_, symObjAddr: 0x9B80, symBinAddr: 0x1000184A0, symSize: 0x40 }
  - { offsetInCU: 0x1260E, offset: 0x4A707, size: 0x8, addend: 0x0, symName: __ZNSt3__121__unwrap_and_dispatchB7v160006INS_10__overloadINS_20__move_backward_loopINS_17_ClassicAlgPolicyEEENS_23__move_backward_trivialEEEPiS7_S7_Li0EEENS_4pairIT0_T2_EES9_T1_SA_, symObjAddr: 0x9BC0, symBinAddr: 0x1000184E0, symSize: 0xB0 }
  - { offsetInCU: 0x1269D, offset: 0x4A796, size: 0x8, addend: 0x0, symName: __ZNSt3__114__unwrap_rangeB7v160006IPiS1_EENS_4pairIT0_S3_EET_S5_, symObjAddr: 0x9C70, symBinAddr: 0x100018590, symSize: 0x50 }
  - { offsetInCU: 0x12861, offset: 0x4A95A, size: 0x8, addend: 0x0, symName: __ZNSt3__113__unwrap_iterB7v160006IPiNS_18__unwrap_iter_implIS1_Lb1EEELi0EEEDTclsrT0_8__unwrapclsr3stdE7declvalIT_EEEES5_, symObjAddr: 0x9D00, symBinAddr: 0x100018620, symSize: 0x20 }
  - { offsetInCU: 0x128A5, offset: 0x4A99E, size: 0x8, addend: 0x0, symName: __ZNSt3__19make_pairB7v160006IPiS1_EENS_4pairINS_18__unwrap_ref_decayIT_E4typeENS3_IT0_E4typeEEEOS4_OS7_, symObjAddr: 0x9D20, symBinAddr: 0x100018640, symSize: 0x30 }
  - { offsetInCU: 0x128F4, offset: 0x4A9ED, size: 0x8, addend: 0x0, symName: __ZNSt3__114__rewrap_rangeB7v160006IPiS1_EET_S2_T0_, symObjAddr: 0x9D50, symBinAddr: 0x100018670, symSize: 0x30 }
  - { offsetInCU: 0x12940, offset: 0x4AA39, size: 0x8, addend: 0x0, symName: __ZNSt3__113__rewrap_iterB7v160006IPiS1_NS_18__unwrap_iter_implIS1_Lb1EEEEET_S4_T0_, symObjAddr: 0x9D80, symBinAddr: 0x1000186A0, symSize: 0x40 }
  - { offsetInCU: 0x12995, offset: 0x4AA8E, size: 0x8, addend: 0x0, symName: __ZNSt3__128__copy_backward_trivial_implB7v160006IiiEENS_4pairIPT_PT0_EES3_S3_S5_, symObjAddr: 0x9DC0, symBinAddr: 0x1000186E0, symSize: 0x80 }
  - { offsetInCU: 0x129FD, offset: 0x4AAF6, size: 0x8, addend: 0x0, symName: __ZNSt3__19make_pairB7v160006IRPiS2_EENS_4pairINS_18__unwrap_ref_decayIT_E4typeENS4_IT0_E4typeEEEOS5_OS8_, symObjAddr: 0x9E40, symBinAddr: 0x100018760, symSize: 0x30 }
  - { offsetInCU: 0x12A9F, offset: 0x4AB98, size: 0x8, addend: 0x0, symName: __ZNSt3__16__copyB7v160006INS_17_ClassicAlgPolicyENS_11__wrap_iterIPKiEES5_PiEENS_4pairIT0_T2_EES8_T1_S9_, symObjAddr: 0x9FA0, symBinAddr: 0x1000188C0, symSize: 0x50 }
  - { offsetInCU: 0x12B0B, offset: 0x4AC04, size: 0x8, addend: 0x0, symName: __ZNSt3__123__dispatch_copy_or_moveB7v160006INS_17_ClassicAlgPolicyENS_11__copy_loopIS1_EENS_14__copy_trivialENS_11__wrap_iterIPKiEES8_PiEENS_4pairIT2_T4_EESB_T3_SC_, symObjAddr: 0x9FF0, symBinAddr: 0x100018910, symSize: 0x50 }
  - { offsetInCU: 0x12B89, offset: 0x4AC82, size: 0x8, addend: 0x0, symName: __ZNSt3__121__unwrap_and_dispatchB7v160006INS_10__overloadINS_11__copy_loopINS_17_ClassicAlgPolicyEEENS_14__copy_trivialEEENS_11__wrap_iterIPKiEESA_PiLi0EEENS_4pairIT0_T2_EESD_T1_SE_, symObjAddr: 0xA040, symBinAddr: 0x100018960, symSize: 0xD0 }
  - { offsetInCU: 0x12C18, offset: 0x4AD11, size: 0x8, addend: 0x0, symName: __ZNSt3__114__unwrap_rangeB7v160006INS_11__wrap_iterIPKiEES3_EENS_4pairIT0_S6_EET_S8_, symObjAddr: 0xA110, symBinAddr: 0x100018A30, symSize: 0x60 }
  - { offsetInCU: 0x12D38, offset: 0x4AE31, size: 0x8, addend: 0x0, symName: __ZNSt3__19make_pairB7v160006INS_11__wrap_iterIPKiEEPiEENS_4pairINS_18__unwrap_ref_decayIT_E4typeENS7_IT0_E4typeEEEOS8_OSB_, symObjAddr: 0xA1B0, symBinAddr: 0x100018AD0, symSize: 0x30 }
  - { offsetInCU: 0x12D87, offset: 0x4AE80, size: 0x8, addend: 0x0, symName: __ZNSt3__114__rewrap_rangeB7v160006INS_11__wrap_iterIPKiEES3_EET_S5_T0_, symObjAddr: 0xA1E0, symBinAddr: 0x100018B00, symSize: 0x40 }
  - { offsetInCU: 0x12DD3, offset: 0x4AECC, size: 0x8, addend: 0x0, symName: __ZNSt3__19make_pairB7v160006IPKiS2_EENS_4pairINS_18__unwrap_ref_decayIT_E4typeENS4_IT0_E4typeEEEOS5_OS8_, symObjAddr: 0xA220, symBinAddr: 0x100018B40, symSize: 0x30 }
  - { offsetInCU: 0x12E22, offset: 0x4AF1B, size: 0x8, addend: 0x0, symName: __ZNSt3__113__unwrap_iterB7v160006INS_11__wrap_iterIPKiEENS_18__unwrap_iter_implIS4_Lb1EEELi0EEEDTclsrT0_8__unwrapclsr3stdE7declvalIT_EEEES8_, symObjAddr: 0xA250, symBinAddr: 0x100018B70, symSize: 0x30 }
  - { offsetInCU: 0x12F8D, offset: 0x4B086, size: 0x8, addend: 0x0, symName: __ZNSt3__112__to_addressB7v160006INS_11__wrap_iterIPKiEEvEENS_5decayIDTclsr19__to_address_helperIT_EE6__callclsr3stdE7declvalIRKS6_EEEEE4typeES8_, symObjAddr: 0xA300, symBinAddr: 0x100018C20, symSize: 0x20 }
  - { offsetInCU: 0x1306C, offset: 0x4B165, size: 0x8, addend: 0x0, symName: __ZNSt3__112__to_addressB7v160006IKiEEPT_S3_, symObjAddr: 0xA380, symBinAddr: 0x100018CA0, symSize: 0x10 }
  - { offsetInCU: 0x130A1, offset: 0x4B19A, size: 0x8, addend: 0x0, symName: __ZNSt3__119__copy_trivial_implB7v160006IKiiEENS_4pairIPT_PT0_EES4_S4_S6_, symObjAddr: 0xA390, symBinAddr: 0x100018CB0, symSize: 0x70 }
  - { offsetInCU: 0x13109, offset: 0x4B202, size: 0x8, addend: 0x0, symName: __ZNSt3__19make_pairB7v160006IRPKiPiEENS_4pairINS_18__unwrap_ref_decayIT_E4typeENS6_IT0_E4typeEEEOS7_OSA_, symObjAddr: 0xA400, symBinAddr: 0x100018D20, symSize: 0x30 }
  - { offsetInCU: 0x1322C, offset: 0x4B325, size: 0x8, addend: 0x0, symName: __ZNSt3__113__rewrap_iterB7v160006INS_11__wrap_iterIPKiEES3_NS_18__unwrap_iter_implIS4_Lb1EEEEET_S7_T0_, symObjAddr: 0xA4F0, symBinAddr: 0x100018E10, symSize: 0x50 }
  - { offsetInCU: 0x13281, offset: 0x4B37A, size: 0x8, addend: 0x0, symName: __ZNSt3__142__uninitialized_allocator_move_if_noexceptB7v160006INS_9allocatorIiEEPiS3_ivEET1_RT_T0_S7_S4_, symObjAddr: 0xA8F0, symBinAddr: 0x100018FA0, symSize: 0x30 }
  - { offsetInCU: 0x133CD, offset: 0x4B4C6, size: 0x8, addend: 0x0, symName: __ZNSt3__14moveB7v160006IPiS1_EET0_T_S3_S2_, symObjAddr: 0xB080, symBinAddr: 0x100018FD0, symSize: 0x40 }
  - { offsetInCU: 0x13427, offset: 0x4B520, size: 0x8, addend: 0x0, symName: __ZNSt3__16__moveB7v160006INS_17_ClassicAlgPolicyEPiS2_S2_EENS_4pairIT0_T2_EES4_T1_S5_, symObjAddr: 0xB0C0, symBinAddr: 0x100019010, symSize: 0x40 }
  - { offsetInCU: 0x13493, offset: 0x4B58C, size: 0x8, addend: 0x0, symName: __ZNSt3__123__dispatch_copy_or_moveB7v160006INS_17_ClassicAlgPolicyENS_11__move_loopIS1_EENS_14__move_trivialEPiS5_S5_EENS_4pairIT2_T4_EES7_T3_S8_, symObjAddr: 0xB100, symBinAddr: 0x100019050, symSize: 0x40 }
  - { offsetInCU: 0x13511, offset: 0x4B60A, size: 0x8, addend: 0x0, symName: __ZNSt3__121__unwrap_and_dispatchB7v160006INS_10__overloadINS_11__move_loopINS_17_ClassicAlgPolicyEEENS_14__move_trivialEEEPiS7_S7_Li0EEENS_4pairIT0_T2_EES9_T1_SA_, symObjAddr: 0xB140, symBinAddr: 0x100019090, symSize: 0xB0 }
  - { offsetInCU: 0x135E6, offset: 0x4B6DF, size: 0x8, addend: 0x0, symName: __ZNSt3__119__copy_trivial_implB7v160006IiiEENS_4pairIPT_PT0_EES3_S3_S5_, symObjAddr: 0xB230, symBinAddr: 0x100019180, symSize: 0x70 }
  - { offsetInCU: 0x1364E, offset: 0x4B747, size: 0x8, addend: 0x0, symName: __ZNSt3__19make_pairB7v160006IRPiS1_EENS_4pairINS_18__unwrap_ref_decayIT_E4typeENS4_IT0_E4typeEEEOS5_OS8_, symObjAddr: 0xB2A0, symBinAddr: 0x1000191F0, symSize: 0x30 }
  - { offsetInCU: 0x1369D, offset: 0x4B796, size: 0x8, addend: 0x0, symName: __ZNSt3__116__set_differenceB7v160006INS_17_ClassicAlgPolicyENS_6__lessIiiEERNS_11__wrap_iterIPiEES7_S7_S7_RNS_20back_insert_iteratorINS_6vectorIiNS_9allocatorIiEEEEEEEENS_4pairIu14__remove_cvrefIT1_Eu14__remove_cvrefIT5_EEEOSG_OT2_OT3_OT4_OSI_OT0_, symObjAddr: 0xBBC0, symBinAddr: 0x1000193D0, symSize: 0x190 }
  - { offsetInCU: 0x1374E, offset: 0x4B847, size: 0x8, addend: 0x0, symName: __ZNSt3__16__copyB7v160006INS_17_ClassicAlgPolicyENS_11__wrap_iterIPiEES4_NS_20back_insert_iteratorINS_6vectorIiNS_9allocatorIiEEEEEEEENS_4pairIT0_T2_EESC_T1_SD_, symObjAddr: 0xBDD0, symBinAddr: 0x100019590, symSize: 0x60 }
  - { offsetInCU: 0x137BA, offset: 0x4B8B3, size: 0x8, addend: 0x0, symName: __ZNSt3__123__dispatch_copy_or_moveB7v160006INS_17_ClassicAlgPolicyENS_11__copy_loopIS1_EENS_14__copy_trivialENS_11__wrap_iterIPiEES7_NS_20back_insert_iteratorINS_6vectorIiNS_9allocatorIiEEEEEEEENS_4pairIT2_T4_EESF_T3_SG_, symObjAddr: 0xC120, symBinAddr: 0x1000195F0, symSize: 0x60 }
  - { offsetInCU: 0x13838, offset: 0x4B931, size: 0x8, addend: 0x0, symName: __ZNSt3__121__unwrap_and_dispatchB7v160006INS_10__overloadINS_11__copy_loopINS_17_ClassicAlgPolicyEEENS_14__copy_trivialEEENS_11__wrap_iterIPiEES9_NS_20back_insert_iteratorINS_6vectorIiNS_9allocatorIiEEEEEELi0EEENS_4pairIT0_T2_EESH_T1_SI_, symObjAddr: 0xC180, symBinAddr: 0x100019650, symSize: 0x100 }
  - { offsetInCU: 0x138C7, offset: 0x4B9C0, size: 0x8, addend: 0x0, symName: __ZNSt3__114__unwrap_rangeB7v160006INS_11__wrap_iterIPiEES2_EENS_4pairIT0_S5_EET_S7_, symObjAddr: 0xC280, symBinAddr: 0x100019750, symSize: 0x60 }
  - { offsetInCU: 0x13A78, offset: 0x4BB71, size: 0x8, addend: 0x0, symName: __ZNSt3__113__unwrap_iterB7v160006INS_20back_insert_iteratorINS_6vectorIiNS_9allocatorIiEEEEEENS_18__unwrap_iter_implIS6_Lb0EEELi0EEEDTclsrT0_8__unwrapclsr3stdE7declvalIT_EEEESA_, symObjAddr: 0xC360, symBinAddr: 0x100019830, symSize: 0x30 }
  - { offsetInCU: 0x13ABC, offset: 0x4BBB5, size: 0x8, addend: 0x0, symName: __ZNSt3__19make_pairB7v160006INS_11__wrap_iterIPiEENS_20back_insert_iteratorINS_6vectorIiNS_9allocatorIiEEEEEEEENS_4pairINS_18__unwrap_ref_decayIT_E4typeENSB_IT0_E4typeEEEOSC_OSF_, symObjAddr: 0xC390, symBinAddr: 0x100019860, symSize: 0x30 }
  - { offsetInCU: 0x13B0B, offset: 0x4BC04, size: 0x8, addend: 0x0, symName: __ZNSt3__114__rewrap_rangeB7v160006INS_11__wrap_iterIPiEES2_EET_S4_T0_, symObjAddr: 0xC3C0, symBinAddr: 0x100019890, symSize: 0x40 }
  - { offsetInCU: 0x13B57, offset: 0x4BC50, size: 0x8, addend: 0x0, symName: __ZNSt3__113__rewrap_iterB7v160006INS_20back_insert_iteratorINS_6vectorIiNS_9allocatorIiEEEEEES6_NS_18__unwrap_iter_implIS6_Lb0EEEEET_S9_T0_, symObjAddr: 0xC400, symBinAddr: 0x1000198D0, symSize: 0x50 }
  - { offsetInCU: 0x13BAC, offset: 0x4BCA5, size: 0x8, addend: 0x0, symName: __ZNSt3__19make_pairB7v160006IPiNS_20back_insert_iteratorINS_6vectorIiNS_9allocatorIiEEEEEEEENS_4pairINS_18__unwrap_ref_decayIT_E4typeENS9_IT0_E4typeEEEOSA_OSD_, symObjAddr: 0xC450, symBinAddr: 0x100019920, symSize: 0x30 }
  - { offsetInCU: 0x13D17, offset: 0x4BE10, size: 0x8, addend: 0x0, symName: __ZNSt3__113__rewrap_iterB7v160006INS_11__wrap_iterIPiEES2_NS_18__unwrap_iter_implIS3_Lb1EEEEET_S6_T0_, symObjAddr: 0xC560, symBinAddr: 0x100019A30, symSize: 0x50 }
  - { offsetInCU: 0x1418B, offset: 0x4C284, size: 0x8, addend: 0x0, symName: __ZNSt3__122__libcpp_thread_createB7v160006EPP17_opaque_pthread_tPFPvS3_ES3_, symObjAddr: 0xCBD0, symBinAddr: 0x10001A040, symSize: 0x30 }
  - { offsetInCU: 0x141D7, offset: 0x4C2D0, size: 0x8, addend: 0x0, symName: '__ZNSt3__114__thread_proxyB7v160006INS_5tupleIJNS_10unique_ptrINS_15__thread_structENS_14default_deleteIS3_EEEEMNS_19__async_assoc_stateIvNS_12__async_funcIZN12PossibleGrid12analyzeMovesERK4GridE3$_0JEEEEEFvvEPSF_EEEEEPvSK_', symObjAddr: 0xCC00, symBinAddr: 0x10001A070, symSize: 0xA0 }
  - { offsetInCU: 0x14333, offset: 0x4C42C, size: 0x8, addend: 0x0, symName: '__ZNSt3__13getB7v160006ILm0EJNS_10unique_ptrINS_15__thread_structENS_14default_deleteIS2_EEEEMNS_19__async_assoc_stateIvNS_12__async_funcIZN12PossibleGrid12analyzeMovesERK4GridE3$_0JEEEEEFvvEPSE_EEERNS_13tuple_elementIXT_ENS_5tupleIJDpT0_EEEE4typeERSM_', symObjAddr: 0xD280, symBinAddr: 0x10001A6F0, symSize: 0x20 }
  - { offsetInCU: 0x14382, offset: 0x4C47B, size: 0x8, addend: 0x0, symName: '__ZNSt3__116__thread_executeB7v160006INS_10unique_ptrINS_15__thread_structENS_14default_deleteIS2_EEEEMNS_19__async_assoc_stateIvNS_12__async_funcIZN12PossibleGrid12analyzeMovesERK4GridE3$_0JEEEEEFvvEJPSE_EJLm2EEEEvRNS_5tupleIJT_T0_DpT1_EEENS_15__tuple_indicesIJXspT2_EEEE', symObjAddr: 0xD2A0, symBinAddr: 0x10001A710, symSize: 0x40 }
  - { offsetInCU: 0x143E1, offset: 0x4C4DA, size: 0x8, addend: 0x0, symName: __ZNSt3__116__libcpp_tls_setB7v160006EmPv, symObjAddr: 0xD2E0, symBinAddr: 0x10001A750, symSize: 0x30 }
  - { offsetInCU: 0x1441F, offset: 0x4C518, size: 0x8, addend: 0x0, symName: '__ZNSt3__18__invokeB7v160006IMNS_19__async_assoc_stateIvNS_12__async_funcIZN12PossibleGrid12analyzeMovesERK4GridE3$_0JEEEEEFvvEPS9_JEvEEDTcldsdeclsr3stdE7declvalIT0_EEclsr3stdE7declvalIT_EEspclsr3stdE7declvalIT1_EEEEOSE_OSD_DpOSF_', symObjAddr: 0xD320, symBinAddr: 0x10001A790, symSize: 0x70 }
  - { offsetInCU: 0x14470, offset: 0x4C569, size: 0x8, addend: 0x0, symName: '__ZNSt3__13getB7v160006ILm1EJNS_10unique_ptrINS_15__thread_structENS_14default_deleteIS2_EEEEMNS_19__async_assoc_stateIvNS_12__async_funcIZN12PossibleGrid12analyzeMovesERK4GridE3$_0JEEEEEFvvEPSE_EEERNS_13tuple_elementIXT_ENS_5tupleIJDpT0_EEEE4typeERSM_', symObjAddr: 0xD390, symBinAddr: 0x10001A800, symSize: 0x20 }
  - { offsetInCU: 0x144BE, offset: 0x4C5B7, size: 0x8, addend: 0x0, symName: '__ZNSt3__13getB7v160006ILm2EJNS_10unique_ptrINS_15__thread_structENS_14default_deleteIS2_EEEEMNS_19__async_assoc_stateIvNS_12__async_funcIZN12PossibleGrid12analyzeMovesERK4GridE3$_0JEEEEEFvvEPSE_EEERNS_13tuple_elementIXT_ENS_5tupleIJDpT0_EEEE4typeERSM_', symObjAddr: 0xD3B0, symBinAddr: 0x10001A820, symSize: 0x20 }
  - { offsetInCU: 0x1450C, offset: 0x4C605, size: 0x8, addend: 0x0, symName: __ZNSt3__134__libcpp_atomic_refcount_decrementB7v160006IlEET_RS1_, symObjAddr: 0xD830, symBinAddr: 0x10001ACA0, symSize: 0x30 }
  - { offsetInCU: 0x14910, offset: 0x4CA09, size: 0x8, addend: 0x0, symName: __ZNSt3__119__allocate_at_leastB7v160006INS_9allocatorINS_6futureIvEEEEEENS_19__allocation_resultINS_16allocator_traitsIT_E7pointerEEERS7_m, symObjAddr: 0xE560, symBinAddr: 0x10001B9D0, symSize: 0x40 }
  - { offsetInCU: 0x14953, offset: 0x4CA4C, size: 0x8, addend: 0x0, symName: __ZNSt3__142__uninitialized_allocator_move_if_noexceptB7v160006INS_9allocatorINS_6futureIvEEEENS_16reverse_iteratorIPS3_EES7_S7_EET2_RT_T0_T1_S8_, symObjAddr: 0xE6F0, symBinAddr: 0x10001BB60, symSize: 0x180 }
  - { offsetInCU: 0x149F2, offset: 0x4CAEB, size: 0x8, addend: 0x0, symName: __ZNSt3__14swapB7v160006IPNS_6futureIvEEEENS_9enable_ifIXaasr21is_move_constructibleIT_EE5valuesr18is_move_assignableIS5_EE5valueEvE4typeERS5_S8_, symObjAddr: 0xE8C0, symBinAddr: 0x10001BD30, symSize: 0x40 }
  - { offsetInCU: 0x14A43, offset: 0x4CB3C, size: 0x8, addend: 0x0, symName: __ZNSt3__125__debug_db_invalidate_allB7v160006INS_6vectorINS_6futureIvEENS_9allocatorIS3_EEEEEEvPT_, symObjAddr: 0xE9B0, symBinAddr: 0x10001BE20, symSize: 0x10 }
  - { offsetInCU: 0x14A74, offset: 0x4CB6D, size: 0x8, addend: 0x0, symName: __ZNSt3__122__make_exception_guardB7v160006INS_29_AllocatorDestroyRangeReverseINS_9allocatorINS_6futureIvEEEENS_16reverse_iteratorIPS4_EEEEEENS_28__exception_guard_exceptionsIT_EESB_, symObjAddr: 0xE9C0, symBinAddr: 0x10001BE30, symSize: 0x60 }
  - { offsetInCU: 0x14AA9, offset: 0x4CBA2, size: 0x8, addend: 0x0, symName: __ZNSt3__1neB7v160006IPNS_6futureIvEES3_EEbRKNS_16reverse_iteratorIT_EERKNS4_IT0_EE, symObjAddr: 0xEA60, symBinAddr: 0x10001BED0, symSize: 0x40 }
  - { offsetInCU: 0x14AF5, offset: 0x4CBEE, size: 0x8, addend: 0x0, symName: __ZNSt3__112__to_addressB7v160006INS_16reverse_iteratorIPNS_6futureIvEEEEvEENS_5decayIDTclsr19__to_address_helperIT_EE6__callclsr3stdE7declvalIRKS7_EEEEE4typeES9_, symObjAddr: 0xEAA0, symBinAddr: 0x10001BF10, symSize: 0x20 }
  - { offsetInCU: 0x14B54, offset: 0x4CC4D, size: 0x8, addend: 0x0, symName: __ZNSt3__119__allocator_destroyB7v160006INS_9allocatorINS_6futureIvEEEENS_16reverse_iteratorINS5_IPS3_EEEES8_EEvRT_T0_T1_, symObjAddr: 0xED90, symBinAddr: 0x10001C200, symSize: 0x70 }
  - { offsetInCU: 0x14BB7, offset: 0x4CCB0, size: 0x8, addend: 0x0, symName: __ZNSt3__1neB7v160006INS_16reverse_iteratorIPNS_6futureIvEEEES5_EEbRKNS1_IT_EERKNS1_IT0_EE, symObjAddr: 0xEE30, symBinAddr: 0x10001C2A0, symSize: 0x50 }
  - { offsetInCU: 0x14C03, offset: 0x4CCFC, size: 0x8, addend: 0x0, symName: __ZNSt3__112__to_addressB7v160006INS_16reverse_iteratorINS1_IPNS_6futureIvEEEEEEvEENS_5decayIDTclsr19__to_address_helperIT_EE6__callclsr3stdE7declvalIRKS8_EEEEE4typeESA_, symObjAddr: 0xEE80, symBinAddr: 0x10001C2F0, symSize: 0x20 }
  - { offsetInCU: 0x14C62, offset: 0x4CD5B, size: 0x8, addend: 0x0, symName: __ZNSt3__119__debug_db_insert_cB7v160006INS_6vectorINS_4pairI8PositioniEENS_9allocatorIS4_EEEEEEvPT_, symObjAddr: 0xF2E0, symBinAddr: 0x10001C750, symSize: 0x10 }
  - { offsetInCU: 0x14C93, offset: 0x4CD8C, size: 0x8, addend: 0x0, symName: __ZNSt3__1miB7v160006IPKNS_4pairI8PositioniEEPS3_EEDTmicldtfp_4baseEcldtfp0_4baseEERKNS_11__wrap_iterIT_EERKNS8_IT0_EE, symObjAddr: 0xF8C0, symBinAddr: 0x10001C810, symSize: 0x40 }
  - { offsetInCU: 0x14CDF, offset: 0x4CDD8, size: 0x8, addend: 0x0, symName: __ZNSt3__18distanceB7v160006INS_11__wrap_iterIPNS_4pairI8PositioniEEEEEENS_15iterator_traitsIT_E15difference_typeES8_S8_, symObjAddr: 0xF900, symBinAddr: 0x10001C850, symSize: 0x40 }
  - { offsetInCU: 0x14D22, offset: 0x4CE1B, size: 0x8, addend: 0x0, symName: __ZNSt3__14copyB7v160006INS_11__wrap_iterIPNS_4pairI8PositioniEEEES5_EET0_T_S8_S7_, symObjAddr: 0xFB80, symBinAddr: 0x10001CAD0, symSize: 0x50 }
  - { offsetInCU: 0x14D7C, offset: 0x4CE75, size: 0x8, addend: 0x0, symName: __ZNSt3__110__distanceB7v160006INS_11__wrap_iterIPNS_4pairI8PositioniEEEEEENS_15iterator_traitsIT_E15difference_typeES8_S8_NS_26random_access_iterator_tagE, symObjAddr: 0xFF70, symBinAddr: 0x10001CEA0, symSize: 0x30 }
  - { offsetInCU: 0x14DCA, offset: 0x4CEC3, size: 0x8, addend: 0x0, symName: __ZNSt3__1miB7v160006IPNS_4pairI8PositioniEES4_EEDTmicldtfp_4baseEcldtfp0_4baseEERKNS_11__wrap_iterIT_EERKNS6_IT0_EE, symObjAddr: 0xFFA0, symBinAddr: 0x10001CED0, symSize: 0x40 }
  - { offsetInCU: 0x14E16, offset: 0x4CF0F, size: 0x8, addend: 0x0, symName: __ZNSt3__19__advanceB7v160006INS_11__wrap_iterIPNS_4pairI8PositioniEEEEEEvRT_NS_15iterator_traitsIS7_E15difference_typeENS_26random_access_iterator_tagE, symObjAddr: 0x10010, symBinAddr: 0x10001CF40, symSize: 0x30 }
  - { offsetInCU: 0x14E60, offset: 0x4CF59, size: 0x8, addend: 0x0, symName: __ZNSt3__130__uninitialized_allocator_copyB7v160006INS_9allocatorINS_4pairI8PositioniEEEENS_11__wrap_iterIPS4_EES8_S7_EET2_RT_T0_T1_S9_, symObjAddr: 0x10090, symBinAddr: 0x10001CFC0, symSize: 0x120 }
  - { offsetInCU: 0x14EFE, offset: 0x4CFF7, size: 0x8, addend: 0x0, symName: __ZNSt3__122__make_exception_guardB7v160006INS_29_AllocatorDestroyRangeReverseINS_9allocatorINS_4pairI8PositioniEEEEPS5_EEEENS_28__exception_guard_exceptionsIT_EESA_, symObjAddr: 0x10210, symBinAddr: 0x10001D140, symSize: 0x60 }
  - { offsetInCU: 0x14F33, offset: 0x4D02C, size: 0x8, addend: 0x0, symName: __ZNSt3__119__allocator_destroyB7v160006INS_9allocatorINS_4pairI8PositioniEEEENS_16reverse_iteratorIPS4_EES8_EEvRT_T0_T1_, symObjAddr: 0x10550, symBinAddr: 0x10001D3D0, symSize: 0x70 }
  - { offsetInCU: 0x14F96, offset: 0x4D08F, size: 0x8, addend: 0x0, symName: __ZNSt3__1neB7v160006IPNS_4pairI8PositioniEES4_EEbRKNS_16reverse_iteratorIT_EERKNS5_IT0_EE, symObjAddr: 0x105F0, symBinAddr: 0x10001D470, symSize: 0x40 }
  - { offsetInCU: 0x14FE2, offset: 0x4D0DB, size: 0x8, addend: 0x0, symName: __ZNSt3__112__to_addressB7v160006INS_16reverse_iteratorIPNS_4pairI8PositioniEEEEvEENS_5decayIDTclsr19__to_address_helperIT_EE6__callclsr3stdE7declvalIRKS8_EEEEE4typeESA_, symObjAddr: 0x10630, symBinAddr: 0x10001D4B0, symSize: 0x20 }
  - { offsetInCU: 0x15041, offset: 0x4D13A, size: 0x8, addend: 0x0, symName: __ZNSt3__113move_backwardB7v160006IPNS_4pairI8PositioniEES4_EET0_T_S6_S5_, symObjAddr: 0x107A0, symBinAddr: 0x10001D620, symSize: 0x40 }
  - { offsetInCU: 0x1509B, offset: 0x4D194, size: 0x8, addend: 0x0, symName: __ZNSt3__115__move_backwardB7v160006INS_17_ClassicAlgPolicyEPNS_4pairI8PositioniEES5_S5_EENS2_IT0_T2_EES6_T1_S7_, symObjAddr: 0x10810, symBinAddr: 0x10001D690, symSize: 0x40 }
  - { offsetInCU: 0x15107, offset: 0x4D200, size: 0x8, addend: 0x0, symName: __ZNSt3__123__dispatch_copy_or_moveB7v160006INS_17_ClassicAlgPolicyENS_20__move_backward_loopIS1_EENS_23__move_backward_trivialEPNS_4pairI8PositioniEES8_S8_EENS5_IT2_T4_EES9_T3_SA_, symObjAddr: 0x10850, symBinAddr: 0x10001D6D0, symSize: 0x40 }
  - { offsetInCU: 0x15185, offset: 0x4D27E, size: 0x8, addend: 0x0, symName: __ZNSt3__121__unwrap_and_dispatchB7v160006INS_10__overloadINS_20__move_backward_loopINS_17_ClassicAlgPolicyEEENS_23__move_backward_trivialEEEPNS_4pairI8PositioniEESA_SA_Li0EEENS7_IT0_T2_EESB_T1_SC_, symObjAddr: 0x10890, symBinAddr: 0x10001D710, symSize: 0xB0 }
  - { offsetInCU: 0x15214, offset: 0x4D30D, size: 0x8, addend: 0x0, symName: __ZNSt3__114__unwrap_rangeB7v160006IPNS_4pairI8PositioniEES4_EENS1_IT0_S5_EET_S7_, symObjAddr: 0x10940, symBinAddr: 0x10001D7C0, symSize: 0x50 }
  - { offsetInCU: 0x15386, offset: 0x4D47F, size: 0x8, addend: 0x0, symName: __ZNSt3__113__unwrap_iterB7v160006IPNS_4pairI8PositioniEENS_18__unwrap_iter_implIS4_Lb1EEELi0EEEDTclsrT0_8__unwrapclsr3stdE7declvalIT_EEEES8_, symObjAddr: 0x10A20, symBinAddr: 0x10001D8A0, symSize: 0x20 }
  - { offsetInCU: 0x153CA, offset: 0x4D4C3, size: 0x8, addend: 0x0, symName: __ZNSt3__19make_pairB7v160006IPNS_4pairI8PositioniEES4_EENS1_INS_18__unwrap_ref_decayIT_E4typeENS5_IT0_E4typeEEEOS6_OS9_, symObjAddr: 0x10A40, symBinAddr: 0x10001D8C0, symSize: 0x30 }
  - { offsetInCU: 0x15419, offset: 0x4D512, size: 0x8, addend: 0x0, symName: __ZNSt3__114__rewrap_rangeB7v160006IPNS_4pairI8PositioniEES4_EET_S5_T0_, symObjAddr: 0x10A70, symBinAddr: 0x10001D8F0, symSize: 0x30 }
  - { offsetInCU: 0x15465, offset: 0x4D55E, size: 0x8, addend: 0x0, symName: __ZNSt3__113__rewrap_iterB7v160006IPNS_4pairI8PositioniEES4_NS_18__unwrap_iter_implIS4_Lb1EEEEET_S7_T0_, symObjAddr: 0x10AA0, symBinAddr: 0x10001D920, symSize: 0x40 }
  - { offsetInCU: 0x15531, offset: 0x4D62A, size: 0x8, addend: 0x0, symName: __ZNSt3__16__copyB7v160006INS_17_ClassicAlgPolicyENS_11__wrap_iterIPNS_4pairI8PositioniEEEES7_S6_EENS3_IT0_T2_EES8_T1_S9_, symObjAddr: 0x10C40, symBinAddr: 0x10001DAC0, symSize: 0x50 }
  - { offsetInCU: 0x1559D, offset: 0x4D696, size: 0x8, addend: 0x0, symName: __ZNSt3__123__dispatch_copy_or_moveB7v160006INS_17_ClassicAlgPolicyENS_11__copy_loopIS1_EENS_14__copy_trivialENS_11__wrap_iterIPNS_4pairI8PositioniEEEESA_S9_EENS6_IT2_T4_EESB_T3_SC_, symObjAddr: 0x10C90, symBinAddr: 0x10001DB10, symSize: 0x50 }
  - { offsetInCU: 0x1561B, offset: 0x4D714, size: 0x8, addend: 0x0, symName: __ZNSt3__121__unwrap_and_dispatchB7v160006INS_10__overloadINS_11__copy_loopINS_17_ClassicAlgPolicyEEENS_14__copy_trivialEEENS_11__wrap_iterIPNS_4pairI8PositioniEEEESC_SB_Li0EEENS8_IT0_T2_EESD_T1_SE_, symObjAddr: 0x10CE0, symBinAddr: 0x10001DB60, symSize: 0xD0 }
  - { offsetInCU: 0x156AA, offset: 0x4D7A3, size: 0x8, addend: 0x0, symName: __ZNSt3__114__unwrap_rangeB7v160006INS_11__wrap_iterIPNS_4pairI8PositioniEEEES5_EENS2_IT0_S7_EET_S9_, symObjAddr: 0x10DB0, symBinAddr: 0x10001DC30, symSize: 0x60 }
  - { offsetInCU: 0x156F6, offset: 0x4D7EF, size: 0x8, addend: 0x0, symName: __ZNSt3__19make_pairB7v160006INS_11__wrap_iterIPNS_4pairI8PositioniEEEES5_EENS2_INS_18__unwrap_ref_decayIT_E4typeENS7_IT0_E4typeEEEOS8_OSB_, symObjAddr: 0x10E90, symBinAddr: 0x10001DD10, symSize: 0x30 }
  - { offsetInCU: 0x15745, offset: 0x4D83E, size: 0x8, addend: 0x0, symName: __ZNSt3__114__rewrap_rangeB7v160006INS_11__wrap_iterIPNS_4pairI8PositioniEEEES5_EET_S7_T0_, symObjAddr: 0x10EC0, symBinAddr: 0x10001DD40, symSize: 0x40 }
  - { offsetInCU: 0x15791, offset: 0x4D88A, size: 0x8, addend: 0x0, symName: __ZNSt3__113__unwrap_iterB7v160006INS_11__wrap_iterIPNS_4pairI8PositioniEEEENS_18__unwrap_iter_implIS6_Lb1EEELi0EEEDTclsrT0_8__unwrapclsr3stdE7declvalIT_EEEESA_, symObjAddr: 0x10F00, symBinAddr: 0x10001DD80, symSize: 0x30 }
  - { offsetInCU: 0x15828, offset: 0x4D921, size: 0x8, addend: 0x0, symName: __ZNSt3__112__to_addressB7v160006INS_11__wrap_iterIPNS_4pairI8PositioniEEEEvEENS_5decayIDTclsr19__to_address_helperIT_EE6__callclsr3stdE7declvalIRKS8_EEEEE4typeESA_, symObjAddr: 0x10F50, symBinAddr: 0x10001DDD0, symSize: 0x20 }
  - { offsetInCU: 0x159DB, offset: 0x4DAD4, size: 0x8, addend: 0x0, symName: __ZNSt3__113__rewrap_iterB7v160006INS_11__wrap_iterIPNS_4pairI8PositioniEEEES5_NS_18__unwrap_iter_implIS6_Lb1EEEEET_S9_T0_, symObjAddr: 0x11060, symBinAddr: 0x10001DEE0, symSize: 0x50 }
  - { offsetInCU: 0x15A30, offset: 0x4DB29, size: 0x8, addend: 0x0, symName: __ZNSt3__119__allocate_at_leastB7v160006INS_9allocatorINS_4pairI8PositioniEEEEEENS_19__allocation_resultINS_16allocator_traitsIT_E7pointerEEERS8_m, symObjAddr: 0x11340, symBinAddr: 0x10001E1C0, symSize: 0x40 }
  - { offsetInCU: 0x15A73, offset: 0x4DB6C, size: 0x8, addend: 0x0, symName: __ZNSt3__142__uninitialized_allocator_move_if_noexceptB7v160006INS_9allocatorINS_4pairI8PositioniEEEENS_16reverse_iteratorIPS4_EES8_S8_EET2_RT_T0_T1_S9_, symObjAddr: 0x11580, symBinAddr: 0x10001E400, symSize: 0x170 }
  - { offsetInCU: 0x15B12, offset: 0x4DC0B, size: 0x8, addend: 0x0, symName: __ZNSt3__142__uninitialized_allocator_move_if_noexceptB7v160006INS_9allocatorINS_4pairI8PositioniEEEEPS4_S6_S6_EET2_RT_T0_T1_S7_, symObjAddr: 0x116F0, symBinAddr: 0x10001E570, symSize: 0x100 }
  - { offsetInCU: 0x15BB0, offset: 0x4DCA9, size: 0x8, addend: 0x0, symName: __ZNSt3__14swapB7v160006IPNS_4pairI8PositioniEEEENS_9enable_ifIXaasr21is_move_constructibleIT_EE5valuesr18is_move_assignableIS6_EE5valueEvE4typeERS6_S9_, symObjAddr: 0x117F0, symBinAddr: 0x10001E670, symSize: 0x40 }
  - { offsetInCU: 0x15C01, offset: 0x4DCFA, size: 0x8, addend: 0x0, symName: __ZNSt3__125__debug_db_invalidate_allB7v160006INS_6vectorINS_4pairI8PositioniEENS_9allocatorIS4_EEEEEEvPT_, symObjAddr: 0x118D0, symBinAddr: 0x10001E750, symSize: 0x10 }
  - { offsetInCU: 0x15C32, offset: 0x4DD2B, size: 0x8, addend: 0x0, symName: __ZNSt3__122__make_exception_guardB7v160006INS_29_AllocatorDestroyRangeReverseINS_9allocatorINS_4pairI8PositioniEEEENS_16reverse_iteratorIPS5_EEEEEENS_28__exception_guard_exceptionsIT_EESC_, symObjAddr: 0x118E0, symBinAddr: 0x10001E760, symSize: 0x60 }
  - { offsetInCU: 0x15C67, offset: 0x4DD60, size: 0x8, addend: 0x0, symName: __ZNSt3__119__allocator_destroyB7v160006INS_9allocatorINS_4pairI8PositioniEEEENS_16reverse_iteratorINS6_IPS4_EEEES9_EEvRT_T0_T1_, symObjAddr: 0x11BA0, symBinAddr: 0x10001EA20, symSize: 0x70 }
  - { offsetInCU: 0x15CCA, offset: 0x4DDC3, size: 0x8, addend: 0x0, symName: __ZNSt3__1neB7v160006INS_16reverse_iteratorIPNS_4pairI8PositioniEEEES6_EEbRKNS1_IT_EERKNS1_IT0_EE, symObjAddr: 0x11C40, symBinAddr: 0x10001EAC0, symSize: 0x50 }
  - { offsetInCU: 0x15D16, offset: 0x4DE0F, size: 0x8, addend: 0x0, symName: __ZNSt3__112__to_addressB7v160006INS_16reverse_iteratorINS1_IPNS_4pairI8PositioniEEEEEEvEENS_5decayIDTclsr19__to_address_helperIT_EE6__callclsr3stdE7declvalIRKS9_EEEEE4typeESB_, symObjAddr: 0x11C90, symBinAddr: 0x10001EB10, symSize: 0x20 }
  - { offsetInCU: 0x15D75, offset: 0x4DE6E, size: 0x8, addend: 0x0, symName: __ZNSt3__119__debug_db_insert_cB7v160006INS_6vectorINS_6futureINS1_INS_4pairI8PositioniEENS_9allocatorIS5_EEEEEENS6_IS9_EEEEEEvPT_, symObjAddr: 0x12090, symBinAddr: 0x10001EF10, symSize: 0x10 }
  - { offsetInCU: 0x15DA6, offset: 0x4DE9F, size: 0x8, addend: 0x0, symName: __ZNSt3__118__debug_db_erase_cB7v160006INS_6vectorINS_6futureINS1_INS_4pairI8PositioniEENS_9allocatorIS5_EEEEEENS6_IS9_EEEEEEvPT_, symObjAddr: 0x12320, symBinAddr: 0x10001F1A0, symSize: 0x10 }
  - { offsetInCU: 0x15DD7, offset: 0x4DED0, size: 0x8, addend: 0x0, symName: __ZNSt3__112__to_addressB7v160006INS_6futureINS_6vectorINS_4pairI8PositioniEENS_9allocatorIS5_EEEEEEEEPT_SB_, symObjAddr: 0x12430, symBinAddr: 0x10001F2B0, symSize: 0x10 }
  - { offsetInCU: 0x15E0C, offset: 0x4DF05, size: 0x8, addend: 0x0, symName: '__ZNSt3__124__make_async_assoc_stateB7v160006INS_6vectorINS_4pairI8PositioniEENS_9allocatorIS4_EEEENS_12__async_funcIZNK12PossibleGrid20identifyUniqueValuesEibE3$_1JEEEEENS_6futureIT_EEOT0_', symObjAddr: 0x125D0, symBinAddr: 0x10001F450, symSize: 0x120 }
  - { offsetInCU: 0x15E5C, offset: 0x4DF55, size: 0x8, addend: 0x0, symName: '__ZNSt3__127__make_deferred_assoc_stateB7v160006INS_6vectorINS_4pairI8PositioniEENS_9allocatorIS4_EEEENS_12__async_funcIZNK12PossibleGrid20identifyUniqueValuesEibE3$_1JEEEEENS_6futureIT_EEOT0_', symObjAddr: 0x12720, symBinAddr: 0x10001F5A0, symSize: 0xC0 }
  - { offsetInCU: 0x161F0, offset: 0x4E2E9, size: 0x8, addend: 0x0, symName: __ZNSt3__120__throw_future_errorB7v160006ENS_11future_errcE, symObjAddr: 0x12E30, symBinAddr: 0x10001FCB0, symSize: 0x80 }
  - { offsetInCU: 0x1621A, offset: 0x4E313, size: 0x8, addend: 0x0, symName: __ZNSt3__115make_error_codeB7v160006ENS_11future_errcE, symObjAddr: 0x12FE0, symBinAddr: 0x10001FE60, symSize: 0x40 }
  - { offsetInCU: 0x16248, offset: 0x4E341, size: 0x8, addend: 0x0, symName: __ZNSt3__115__debug_db_swapB7v160006INS_6vectorINS_4pairI8PositioniEENS_9allocatorIS4_EEEEEEvPT_S9_, symObjAddr: 0x13190, symBinAddr: 0x100020010, symSize: 0x10 }
  - { offsetInCU: 0x16287, offset: 0x4E380, size: 0x8, addend: 0x0, symName: '__ZNSt3__18__invokeB7v160006IZNK12PossibleGrid20identifyUniqueValuesEibE3$_1JEEEDTclclsr3stdE7declvalIT_EEspclsr3stdE7declvalIT0_EEEEOS3_DpOS4_', symObjAddr: 0x13260, symBinAddr: 0x1000200E0, symSize: 0x30 }
  - { offsetInCU: 0x162C4, offset: 0x4E3BD, size: 0x8, addend: 0x0, symName: '__ZNSt3__13getB7v160006ILm0EJZNK12PossibleGrid20identifyUniqueValuesEibE3$_1EEERNS_13tuple_elementIXT_ENS_5tupleIJDpT0_EEEE4typeERS7_', symObjAddr: 0x13290, symBinAddr: 0x100020110, symSize: 0x20 }
  - { offsetInCU: 0x16308, offset: 0x4E401, size: 0x8, addend: 0x0, symName: __ZNSt3__1neB7v160006ERKNS_14__map_iteratorINS_15__tree_iteratorINS_12__value_typeIi8PositionEEPNS_11__tree_nodeIS4_PvEElEEEESC_, symObjAddr: 0x137C0, symBinAddr: 0x1000205D0, symSize: 0x30 }
  - { offsetInCU: 0x16345, offset: 0x4E43E, size: 0x8, addend: 0x0, symName: __ZNSt3__19make_pairB7v160006IR8PositionRKiEENS_4pairINS_18__unwrap_ref_decayIT_E4typeENS6_IT0_E4typeEEEOS7_OSA_, symObjAddr: 0x138E0, symBinAddr: 0x1000206F0, symSize: 0x40 }
  - { offsetInCU: 0x163E5, offset: 0x4E4DE, size: 0x8, addend: 0x0, symName: __ZNSt3__127__tree_balance_after_insertB7v160006IPNS_16__tree_node_baseIPvEEEEvT_S5_, symObjAddr: 0x14720, symBinAddr: 0x100021530, symSize: 0x320 }
  - { offsetInCU: 0x16463, offset: 0x4E55C, size: 0x8, addend: 0x0, symName: __ZNSt3__120__tree_is_left_childB7v160006IPNS_16__tree_node_baseIPvEEEEbT_, symObjAddr: 0x14A80, symBinAddr: 0x100021890, symSize: 0x30 }
  - { offsetInCU: 0x16498, offset: 0x4E591, size: 0x8, addend: 0x0, symName: __ZNSt3__118__tree_left_rotateB7v160006IPNS_16__tree_node_baseIPvEEEEvT_, symObjAddr: 0x14AB0, symBinAddr: 0x1000218C0, symSize: 0xD0 }
  - { offsetInCU: 0x164DA, offset: 0x4E5D3, size: 0x8, addend: 0x0, symName: __ZNSt3__119__tree_right_rotateB7v160006IPNS_16__tree_node_baseIPvEEEEvT_, symObjAddr: 0x14B80, symBinAddr: 0x100021990, symSize: 0xC0 }
  - { offsetInCU: 0x1651C, offset: 0x4E615, size: 0x8, addend: 0x0, symName: __ZNSt3__1neB7v160006ERKNS_15__tree_iteratorINS_12__value_typeIi8PositionEEPNS_11__tree_nodeIS3_PvEElEESA_, symObjAddr: 0x14F50, symBinAddr: 0x100021D40, symSize: 0x30 }
  - { offsetInCU: 0x16559, offset: 0x4E652, size: 0x8, addend: 0x0, symName: __ZNSt3__1eqB7v160006ERKNS_15__tree_iteratorINS_12__value_typeIi8PositionEEPNS_11__tree_nodeIS3_PvEElEESA_, symObjAddr: 0x14F80, symBinAddr: 0x100021D70, symSize: 0x30 }
  - { offsetInCU: 0x16596, offset: 0x4E68F, size: 0x8, addend: 0x0, symName: __ZNSt3__18distanceB7v160006INS_21__tree_const_iteratorINS_12__value_typeIi8PositionEEPNS_11__tree_nodeIS4_PvEElEEEENS_15iterator_traitsIT_E15difference_typeESB_SB_, symObjAddr: 0x15170, symBinAddr: 0x100021F60, symSize: 0x40 }
  - { offsetInCU: 0x165D9, offset: 0x4E6D2, size: 0x8, addend: 0x0, symName: __ZNSt3__110__distanceB7v160006INS_21__tree_const_iteratorINS_12__value_typeIi8PositionEEPNS_11__tree_nodeIS4_PvEElEEEENS_15iterator_traitsIT_E15difference_typeESB_SB_NS_18input_iterator_tagE, symObjAddr: 0x15310, symBinAddr: 0x100022100, symSize: 0x60 }
  - { offsetInCU: 0x16635, offset: 0x4E72E, size: 0x8, addend: 0x0, symName: __ZNSt3__1neB7v160006ERKNS_21__tree_const_iteratorINS_12__value_typeIi8PositionEEPNS_11__tree_nodeIS3_PvEElEESA_, symObjAddr: 0x15370, symBinAddr: 0x100022160, symSize: 0x30 }
  - { offsetInCU: 0x16672, offset: 0x4E76B, size: 0x8, addend: 0x0, symName: __ZNSt3__1eqB7v160006ERKNS_21__tree_const_iteratorINS_12__value_typeIi8PositionEEPNS_11__tree_nodeIS3_PvEElEESA_, symObjAddr: 0x153D0, symBinAddr: 0x1000221C0, symSize: 0x30 }
  - { offsetInCU: 0x166AF, offset: 0x4E7A8, size: 0x8, addend: 0x0, symName: __ZNSt3__116__tree_next_iterB7v160006IPNS_15__tree_end_nodeIPNS_16__tree_node_baseIPvEEEES5_EET_T0_, symObjAddr: 0x15400, symBinAddr: 0x1000221F0, symSize: 0x80 }
  - { offsetInCU: 0x166ED, offset: 0x4E7E6, size: 0x8, addend: 0x0, symName: __ZNSt3__110__tree_minB7v160006IPNS_16__tree_node_baseIPvEEEET_S5_, symObjAddr: 0x15480, symBinAddr: 0x100022270, symSize: 0x30 }
  - { offsetInCU: 0x16BA7, offset: 0x4ECA0, size: 0x8, addend: 0x0, symName: '__ZNSt3__114__thread_proxyB7v160006INS_5tupleIJNS_10unique_ptrINS_15__thread_structENS_14default_deleteIS3_EEEEMNS_19__async_assoc_stateINS_6vectorINS_4pairI8PositioniEENS_9allocatorISB_EEEENS_12__async_funcIZNK12PossibleGrid20identifyUniqueValuesEibE3$_1JEEEEEFvvEPSJ_EEEEEPvSO_', symObjAddr: 0x15C70, symBinAddr: 0x100022A60, symSize: 0xA0 }
  - { offsetInCU: 0x16C0D, offset: 0x4ED06, size: 0x8, addend: 0x0, symName: '__ZNSt3__13getB7v160006ILm0EJNS_10unique_ptrINS_15__thread_structENS_14default_deleteIS2_EEEEMNS_19__async_assoc_stateINS_6vectorINS_4pairI8PositioniEENS_9allocatorISA_EEEENS_12__async_funcIZNK12PossibleGrid20identifyUniqueValuesEibE3$_1JEEEEEFvvEPSI_EEERNS_13tuple_elementIXT_ENS_5tupleIJDpT0_EEEE4typeERSQ_', symObjAddr: 0x15FA0, symBinAddr: 0x100022D90, symSize: 0x20 }
  - { offsetInCU: 0x16C5C, offset: 0x4ED55, size: 0x8, addend: 0x0, symName: '__ZNSt3__116__thread_executeB7v160006INS_10unique_ptrINS_15__thread_structENS_14default_deleteIS2_EEEEMNS_19__async_assoc_stateINS_6vectorINS_4pairI8PositioniEENS_9allocatorISA_EEEENS_12__async_funcIZNK12PossibleGrid20identifyUniqueValuesEibE3$_1JEEEEEFvvEJPSI_EJLm2EEEEvRNS_5tupleIJT_T0_DpT1_EEENS_15__tuple_indicesIJXspT2_EEEE', symObjAddr: 0x15FC0, symBinAddr: 0x100022DB0, symSize: 0x40 }
  - { offsetInCU: 0x16CBC, offset: 0x4EDB5, size: 0x8, addend: 0x0, symName: '__ZNSt3__18__invokeB7v160006IMNS_19__async_assoc_stateINS_6vectorINS_4pairI8PositioniEENS_9allocatorIS5_EEEENS_12__async_funcIZNK12PossibleGrid20identifyUniqueValuesEibE3$_1JEEEEEFvvEPSD_JEvEEDTcldsdeclsr3stdE7declvalIT0_EEclsr3stdE7declvalIT_EEspclsr3stdE7declvalIT1_EEEEOSI_OSH_DpOSJ_', symObjAddr: 0x16000, symBinAddr: 0x100022DF0, symSize: 0x70 }
  - { offsetInCU: 0x16D0D, offset: 0x4EE06, size: 0x8, addend: 0x0, symName: '__ZNSt3__13getB7v160006ILm1EJNS_10unique_ptrINS_15__thread_structENS_14default_deleteIS2_EEEEMNS_19__async_assoc_stateINS_6vectorINS_4pairI8PositioniEENS_9allocatorISA_EEEENS_12__async_funcIZNK12PossibleGrid20identifyUniqueValuesEibE3$_1JEEEEEFvvEPSI_EEERNS_13tuple_elementIXT_ENS_5tupleIJDpT0_EEEE4typeERSQ_', symObjAddr: 0x16070, symBinAddr: 0x100022E60, symSize: 0x20 }
  - { offsetInCU: 0x16D5B, offset: 0x4EE54, size: 0x8, addend: 0x0, symName: '__ZNSt3__13getB7v160006ILm2EJNS_10unique_ptrINS_15__thread_structENS_14default_deleteIS2_EEEEMNS_19__async_assoc_stateINS_6vectorINS_4pairI8PositioniEENS_9allocatorISA_EEEENS_12__async_funcIZNK12PossibleGrid20identifyUniqueValuesEibE3$_1JEEEEEFvvEPSI_EEERNS_13tuple_elementIXT_ENS_5tupleIJDpT0_EEEE4typeERSQ_', symObjAddr: 0x16090, symBinAddr: 0x100022E80, symSize: 0x20 }
  - { offsetInCU: 0x16E39, offset: 0x4EF32, size: 0x8, addend: 0x0, symName: __ZNSt3__134__libcpp_atomic_refcount_incrementB7v160006IlEET_RS1_, symObjAddr: 0x16430, symBinAddr: 0x100023220, symSize: 0x30 }
  - { offsetInCU: 0x17241, offset: 0x4F33A, size: 0x8, addend: 0x0, symName: __ZNSt3__119__allocate_at_leastB7v160006INS_9allocatorINS_6futureINS_6vectorINS_4pairI8PositioniEENS1_IS6_EEEEEEEEEENS_19__allocation_resultINS_16allocator_traitsIT_E7pointerEEERSD_m, symObjAddr: 0x17280, symBinAddr: 0x100024070, symSize: 0x40 }
  - { offsetInCU: 0x17284, offset: 0x4F37D, size: 0x8, addend: 0x0, symName: __ZNSt3__142__uninitialized_allocator_move_if_noexceptB7v160006INS_9allocatorINS_6futureINS_6vectorINS_4pairI8PositioniEENS1_IS6_EEEEEEEENS_16reverse_iteratorIPS9_EESD_SD_EET2_RT_T0_T1_SE_, symObjAddr: 0x17410, symBinAddr: 0x100024200, symSize: 0x180 }
  - { offsetInCU: 0x17323, offset: 0x4F41C, size: 0x8, addend: 0x0, symName: __ZNSt3__14swapB7v160006IPNS_6futureINS_6vectorINS_4pairI8PositioniEENS_9allocatorIS5_EEEEEEEENS_9enable_ifIXaasr21is_move_constructibleIT_EE5valuesr18is_move_assignableISC_EE5valueEvE4typeERSC_SF_, symObjAddr: 0x175E0, symBinAddr: 0x1000243D0, symSize: 0x40 }
  - { offsetInCU: 0x17374, offset: 0x4F46D, size: 0x8, addend: 0x0, symName: __ZNSt3__125__debug_db_invalidate_allB7v160006INS_6vectorINS_6futureINS1_INS_4pairI8PositioniEENS_9allocatorIS5_EEEEEENS6_IS9_EEEEEEvPT_, symObjAddr: 0x176D0, symBinAddr: 0x1000244C0, symSize: 0x10 }
  - { offsetInCU: 0x173A5, offset: 0x4F49E, size: 0x8, addend: 0x0, symName: __ZNSt3__122__make_exception_guardB7v160006INS_29_AllocatorDestroyRangeReverseINS_9allocatorINS_6futureINS_6vectorINS_4pairI8PositioniEENS2_IS7_EEEEEEEENS_16reverse_iteratorIPSA_EEEEEENS_28__exception_guard_exceptionsIT_EESH_, symObjAddr: 0x176E0, symBinAddr: 0x1000244D0, symSize: 0x60 }
  - { offsetInCU: 0x173DA, offset: 0x4F4D3, size: 0x8, addend: 0x0, symName: __ZNSt3__1neB7v160006IPNS_6futureINS_6vectorINS_4pairI8PositioniEENS_9allocatorIS5_EEEEEESA_EEbRKNS_16reverse_iteratorIT_EERKNSB_IT0_EE, symObjAddr: 0x17780, symBinAddr: 0x100024570, symSize: 0x40 }
  - { offsetInCU: 0x17426, offset: 0x4F51F, size: 0x8, addend: 0x0, symName: __ZNSt3__112__to_addressB7v160006INS_16reverse_iteratorIPNS_6futureINS_6vectorINS_4pairI8PositioniEENS_9allocatorIS6_EEEEEEEEvEENS_5decayIDTclsr19__to_address_helperIT_EE6__callclsr3stdE7declvalIRKSE_EEEEE4typeESG_, symObjAddr: 0x177C0, symBinAddr: 0x1000245B0, symSize: 0x20 }
  - { offsetInCU: 0x17485, offset: 0x4F57E, size: 0x8, addend: 0x0, symName: __ZNSt3__119__allocator_destroyB7v160006INS_9allocatorINS_6futureINS_6vectorINS_4pairI8PositioniEENS1_IS6_EEEEEEEENS_16reverse_iteratorINSB_IPS9_EEEESE_EEvRT_T0_T1_, symObjAddr: 0x17AB0, symBinAddr: 0x1000248A0, symSize: 0x70 }
  - { offsetInCU: 0x174E8, offset: 0x4F5E1, size: 0x8, addend: 0x0, symName: __ZNSt3__1neB7v160006INS_16reverse_iteratorIPNS_6futureINS_6vectorINS_4pairI8PositioniEENS_9allocatorIS6_EEEEEEEESC_EEbRKNS1_IT_EERKNS1_IT0_EE, symObjAddr: 0x17B50, symBinAddr: 0x100024940, symSize: 0x50 }
  - { offsetInCU: 0x17534, offset: 0x4F62D, size: 0x8, addend: 0x0, symName: __ZNSt3__112__to_addressB7v160006INS_16reverse_iteratorINS1_IPNS_6futureINS_6vectorINS_4pairI8PositioniEENS_9allocatorIS6_EEEEEEEEEEvEENS_5decayIDTclsr19__to_address_helperIT_EE6__callclsr3stdE7declvalIRKSF_EEEEE4typeESH_, symObjAddr: 0x17BA0, symBinAddr: 0x100024990, symSize: 0x20 }
  - { offsetInCU: 0x17A5D, offset: 0x4FB56, size: 0x8, addend: 0x0, symName: __ZStneB7v160006RKSt13exception_ptrS1_, symObjAddr: 0x12F30, symBinAddr: 0x10001FDB0, symSize: 0x30 }
  - { offsetInCU: 0x17A97, offset: 0x4FB90, size: 0x8, addend: 0x0, symName: __ZSteqB7v160006RKSt13exception_ptrS1_, symObjAddr: 0x12F90, symBinAddr: 0x10001FE10, symSize: 0x30 }
  - { offsetInCU: 0x186CA, offset: 0x507C3, size: 0x8, addend: 0x0, symName: __ZN12PossibleGrid12analyzeMovesERK4Grid, symObjAddr: 0x0, symBinAddr: 0x100015070, symSize: 0x350 }
  - { offsetInCU: 0x18865, offset: 0x5095E, size: 0x8, addend: 0x0, symName: __ZNSt3__16vectorIiNS_9allocatorIiEEE26__swap_out_circular_bufferERNS_14__split_bufferIiRS2_EEPi, symObjAddr: 0x9610, symBinAddr: 0x100018070, symSize: 0x170 }
  - { offsetInCU: 0x18A66, offset: 0x50B5F, size: 0x8, addend: 0x0, symName: __ZNSt3__16vectorINS_6futureIvEENS_9allocatorIS2_EEE26__swap_out_circular_bufferERNS_14__split_bufferIS2_RS4_EE, symObjAddr: 0xE200, symBinAddr: 0x10001B670, symSize: 0x130 }
  - { offsetInCU: 0x18B39, offset: 0x50C32, size: 0x8, addend: 0x0, symName: __ZNSt3__16vectorINS_4pairI8PositioniEENS_9allocatorIS3_EEE26__swap_out_circular_bufferERNS_14__split_bufferIS3_RS5_EEPS3_, symObjAddr: 0xFDA0, symBinAddr: 0x10001CCF0, symSize: 0x170 }
  - { offsetInCU: 0x18D80, offset: 0x50E79, size: 0x8, addend: 0x0, symName: __ZNK12PossibleGrid20identifyUniqueValuesEib, symObjAddr: 0xB90, symBinAddr: 0x1000159B0, symSize: 0x2C0 }
  - { offsetInCU: 0x19311, offset: 0x5140A, size: 0x8, addend: 0x0, symName: __ZNSt3__16vectorINS_4pairI8PositioniEENS_9allocatorIS3_EEE26__swap_out_circular_bufferERNS_14__split_bufferIS3_RS5_EE, symObjAddr: 0x156D0, symBinAddr: 0x1000224C0, symSize: 0x130 }
  - { offsetInCU: 0x19404, offset: 0x514FD, size: 0x8, addend: 0x0, symName: __ZNSt3__16vectorINS_6futureINS0_INS_4pairI8PositioniEENS_9allocatorIS4_EEEEEENS5_IS8_EEE26__swap_out_circular_bufferERNS_14__split_bufferIS8_RS9_EE, symObjAddr: 0x16F20, symBinAddr: 0x100023D10, symSize: 0x130 }
  - { offsetInCU: 0x1B301, offset: 0x533FA, size: 0x8, addend: 0x0, symName: __ZNSt3__16vectorINS_6futureIvEENS_9allocatorIS2_EEEC1B7v160006Ev, symObjAddr: 0x5C0, symBinAddr: 0x100015420, symSize: 0x20 }
  - { offsetInCU: 0x1B32A, offset: 0x53423, size: 0x8, addend: 0x0, symName: __ZNK12PossibleGrid20calculateThreadTasksEm, symObjAddr: 0x5E0, symBinAddr: 0x100015440, symSize: 0x40 }
  - { offsetInCU: 0x1B35C, offset: 0x53455, size: 0x8, addend: 0x0, symName: __ZNSt3__16vectorINS_6futureIvEENS_9allocatorIS2_EEE9push_backB7v160006EOS2_, symObjAddr: 0x640, symBinAddr: 0x100015480, symSize: 0x60 }
  - { offsetInCU: 0x1B392, offset: 0x5348B, size: 0x8, addend: 0x0, symName: __ZNSt3__16vectorINS_6futureIvEENS_9allocatorIS2_EEE5beginB7v160006Ev, symObjAddr: 0x830, symBinAddr: 0x100015670, symSize: 0x30 }
  - { offsetInCU: 0x1B3B9, offset: 0x534B2, size: 0x8, addend: 0x0, symName: __ZNSt3__16vectorINS_6futureIvEENS_9allocatorIS2_EEE3endB7v160006Ev, symObjAddr: 0x860, symBinAddr: 0x1000156A0, symSize: 0x30 }
  - { offsetInCU: 0x1B3E0, offset: 0x534D9, size: 0x8, addend: 0x0, symName: __ZNKSt3__111__wrap_iterIPNS_6futureIvEEEdeB7v160006Ev, symObjAddr: 0x8C0, symBinAddr: 0x100015700, symSize: 0x20 }
  - { offsetInCU: 0x1B404, offset: 0x534FD, size: 0x8, addend: 0x0, symName: __ZNSt3__111__wrap_iterIPNS_6futureIvEEEppB7v160006Ev, symObjAddr: 0x8E0, symBinAddr: 0x100015720, symSize: 0x20 }
  - { offsetInCU: 0x1B428, offset: 0x53521, size: 0x8, addend: 0x0, symName: __ZNSt3__16vectorINS_6futureIvEENS_9allocatorIS2_EEED1B7v160006Ev, symObjAddr: 0x900, symBinAddr: 0x100015740, symSize: 0x20 }
  - { offsetInCU: 0x1B451, offset: 0x5354A, size: 0x8, addend: 0x0, symName: __ZNK12PossibleGrid14crossReferenceEv, symObjAddr: 0x940, symBinAddr: 0x100015760, symSize: 0x230 }
  - { offsetInCU: 0x1B4C7, offset: 0x535C0, size: 0x8, addend: 0x0, symName: __ZNSt3__16vectorINS_4pairI8PositioniEENS_9allocatorIS3_EEEC1B7v160006Ev, symObjAddr: 0xB70, symBinAddr: 0x100015990, symSize: 0x20 }
  - { offsetInCU: 0x1B4F0, offset: 0x535E9, size: 0x8, addend: 0x0, symName: __ZNSt3__16vectorINS_4pairI8PositioniEENS_9allocatorIS3_EEE6insertINS_11__wrap_iterIPS3_EELi0EEESA_NS8_IPKS3_EET_SE_, symObjAddr: 0xE50, symBinAddr: 0x100015C70, symSize: 0x320 }
  - { offsetInCU: 0x1B60F, offset: 0x53708, size: 0x8, addend: 0x0, symName: __ZNSt3__111__wrap_iterIPKNS_4pairI8PositioniEEEC1B7v160006IPS3_EERKNS0_IT_EEPNS_9enable_ifIXsr14is_convertibleIS9_S5_EE5valueEvE4typeE, symObjAddr: 0x11A0, symBinAddr: 0x100015F90, symSize: 0x30 }
  - { offsetInCU: 0x1B65A, offset: 0x53753, size: 0x8, addend: 0x0, symName: __ZNSt3__16vectorINS_6futureINS0_INS_4pairI8PositioniEENS_9allocatorIS4_EEEEEENS5_IS8_EEEC1B7v160006Ev, symObjAddr: 0x1220, symBinAddr: 0x100015FC0, symSize: 0x20 }
  - { offsetInCU: 0x1B683, offset: 0x5377C, size: 0x8, addend: 0x0, symName: __ZNSt3__16vectorINS_6futureINS0_INS_4pairI8PositioniEENS_9allocatorIS4_EEEEEENS5_IS8_EEE9push_backB7v160006EOS8_, symObjAddr: 0x1240, symBinAddr: 0x100015FE0, symSize: 0x60 }
  - { offsetInCU: 0x1B6B9, offset: 0x537B2, size: 0x8, addend: 0x0, symName: __ZNSt3__16futureINS_6vectorINS_4pairI8PositioniEENS_9allocatorIS4_EEEEED1Ev, symObjAddr: 0x1420, symBinAddr: 0x1000161C0, symSize: 0x20 }
  - { offsetInCU: 0x1B6E4, offset: 0x537DD, size: 0x8, addend: 0x0, symName: __ZNSt3__16vectorINS_6futureINS0_INS_4pairI8PositioniEENS_9allocatorIS4_EEEEEENS5_IS8_EEE5beginB7v160006Ev, symObjAddr: 0x1440, symBinAddr: 0x1000161E0, symSize: 0x30 }
  - { offsetInCU: 0x1B70B, offset: 0x53804, size: 0x8, addend: 0x0, symName: __ZNSt3__16vectorINS_6futureINS0_INS_4pairI8PositioniEENS_9allocatorIS4_EEEEEENS5_IS8_EEE3endB7v160006Ev, symObjAddr: 0x1470, symBinAddr: 0x100016210, symSize: 0x30 }
  - { offsetInCU: 0x1B732, offset: 0x5382B, size: 0x8, addend: 0x0, symName: __ZNKSt3__111__wrap_iterIPNS_6futureINS_6vectorINS_4pairI8PositioniEENS_9allocatorIS5_EEEEEEEdeB7v160006Ev, symObjAddr: 0x14D0, symBinAddr: 0x100016270, symSize: 0x20 }
  - { offsetInCU: 0x1B756, offset: 0x5384F, size: 0x8, addend: 0x0, symName: __ZNSt3__16futureINS_6vectorINS_4pairI8PositioniEENS_9allocatorIS4_EEEEE3getEv, symObjAddr: 0x14F0, symBinAddr: 0x100016290, symSize: 0x90 }
  - { offsetInCU: 0x1B79B, offset: 0x53894, size: 0x8, addend: 0x0, symName: __ZNSt3__111__wrap_iterIPNS_6futureINS_6vectorINS_4pairI8PositioniEENS_9allocatorIS5_EEEEEEEppB7v160006Ev, symObjAddr: 0x1580, symBinAddr: 0x100016320, symSize: 0x20 }
  - { offsetInCU: 0x1B7BF, offset: 0x538B8, size: 0x8, addend: 0x0, symName: __ZNSt3__16vectorINS_6futureINS0_INS_4pairI8PositioniEENS_9allocatorIS4_EEEEEENS5_IS8_EEED1B7v160006Ev, symObjAddr: 0x15A0, symBinAddr: 0x100016340, symSize: 0x20 }
  - { offsetInCU: 0x1B7E8, offset: 0x538E1, size: 0x8, addend: 0x0, symName: __ZNKSt3__111__wrap_iterIPNS_6futureIvEEE4baseB7v160006Ev, symObjAddr: 0x1C60, symBinAddr: 0x1000163A0, symSize: 0x20 }
  - { offsetInCU: 0x1B80C, offset: 0x53905, size: 0x8, addend: 0x0, symName: __ZNKSt3__111__wrap_iterIPNS_6futureINS_6vectorINS_4pairI8PositioniEENS_9allocatorIS5_EEEEEEE4baseB7v160006Ev, symObjAddr: 0x1CC0, symBinAddr: 0x100016400, symSize: 0x20 }
  - { offsetInCU: 0x1B8D0, offset: 0x539C9, size: 0x8, addend: 0x0, symName: __ZNSt3__16vectorINS_6futureIvEENS_9allocatorIS2_EEEC2B7v160006Ev, symObjAddr: 0x77B0, symBinAddr: 0x100016420, symSize: 0x60 }
  - { offsetInCU: 0x1B8F9, offset: 0x539F2, size: 0x8, addend: 0x0, symName: __ZNSt3__117__compressed_pairIPNS_6futureIvEENS_9allocatorIS2_EEEC1B7v160006IDnNS_18__default_init_tagEEEOT_OT0_, symObjAddr: 0x7810, symBinAddr: 0x100016480, symSize: 0x30 }
  - { offsetInCU: 0x1B950, offset: 0x53A49, size: 0x8, addend: 0x0, symName: __ZNSt3__117__compressed_pairIPNS_6futureIvEENS_9allocatorIS2_EEEC2B7v160006IDnNS_18__default_init_tagEEEOT_OT0_, symObjAddr: 0x7850, symBinAddr: 0x1000164C0, symSize: 0x40 }
  - { offsetInCU: 0x1B9A7, offset: 0x53AA0, size: 0x8, addend: 0x0, symName: __ZNSt3__122__compressed_pair_elemIPNS_6futureIvEELi0ELb0EEC2B7v160006IDnvEEOT_, symObjAddr: 0x7890, symBinAddr: 0x100016500, symSize: 0x20 }
  - { offsetInCU: 0x1B9E8, offset: 0x53AE1, size: 0x8, addend: 0x0, symName: __ZNSt3__122__compressed_pair_elemINS_9allocatorINS_6futureIvEEEELi1ELb1EEC2B7v160006ENS_18__default_init_tagE, symObjAddr: 0x78B0, symBinAddr: 0x100016520, symSize: 0x20 }
  - { offsetInCU: 0x1BA1C, offset: 0x53B15, size: 0x8, addend: 0x0, symName: __ZNSt3__19allocatorINS_6futureIvEEEC2B7v160006Ev, symObjAddr: 0x78D0, symBinAddr: 0x100016540, symSize: 0x20 }
  - { offsetInCU: 0x1BA45, offset: 0x53B3E, size: 0x8, addend: 0x0, symName: __ZNSt3__116__non_trivial_ifILb1ENS_9allocatorINS_6futureIvEEEEEC2B7v160006Ev, symObjAddr: 0x78F0, symBinAddr: 0x100016560, symSize: 0x10 }
  - { offsetInCU: 0x1BA6E, offset: 0x53B67, size: 0x8, addend: 0x0, symName: __ZNSt3__16vectorINS_6futureIvEENS_9allocatorIS2_EEED2B7v160006Ev, symObjAddr: 0x7900, symBinAddr: 0x100016570, symSize: 0x40 }
  - { offsetInCU: 0x1BA97, offset: 0x53B90, size: 0x8, addend: 0x0, symName: __ZNSt3__16vectorINS_6futureIvEENS_9allocatorIS2_EEE16__destroy_vectorC1ERS5_, symObjAddr: 0x7940, symBinAddr: 0x1000165B0, symSize: 0x30 }
  - { offsetInCU: 0x1BACF, offset: 0x53BC8, size: 0x8, addend: 0x0, symName: __ZNSt3__16vectorINS_6futureIvEENS_9allocatorIS2_EEE16__destroy_vectorclB7v160006Ev, symObjAddr: 0x7970, symBinAddr: 0x1000165E0, symSize: 0x90 }
  - { offsetInCU: 0x1BAF3, offset: 0x53BEC, size: 0x8, addend: 0x0, symName: __ZNSt3__16vectorINS_6futureIvEENS_9allocatorIS2_EEE16__destroy_vectorC2ERS5_, symObjAddr: 0x7A00, symBinAddr: 0x100016670, symSize: 0x20 }
  - { offsetInCU: 0x1BB2B, offset: 0x53C24, size: 0x8, addend: 0x0, symName: __ZNKSt3__16vectorINS_6futureIvEENS_9allocatorIS2_EEE17__annotate_deleteB7v160006Ev, symObjAddr: 0x7A20, symBinAddr: 0x100016690, symSize: 0xB0 }
  - { offsetInCU: 0x1BB4F, offset: 0x53C48, size: 0x8, addend: 0x0, symName: __ZNSt3__16vectorINS_6futureIvEENS_9allocatorIS2_EEE7__clearB7v160006Ev, symObjAddr: 0x7AE0, symBinAddr: 0x100016750, symSize: 0x20 }
  - { offsetInCU: 0x1BB73, offset: 0x53C6C, size: 0x8, addend: 0x0, symName: __ZNSt3__116allocator_traitsINS_9allocatorINS_6futureIvEEEEE10deallocateB7v160006ERS4_PS3_m, symObjAddr: 0x7B00, symBinAddr: 0x100016770, symSize: 0x30 }
  - { offsetInCU: 0x1BBB5, offset: 0x53CAE, size: 0x8, addend: 0x0, symName: __ZNSt3__16vectorINS_6futureIvEENS_9allocatorIS2_EEE7__allocB7v160006Ev, symObjAddr: 0x7B30, symBinAddr: 0x1000167A0, symSize: 0x20 }
  - { offsetInCU: 0x1BBD9, offset: 0x53CD2, size: 0x8, addend: 0x0, symName: __ZNKSt3__16vectorINS_6futureIvEENS_9allocatorIS2_EEE8capacityB7v160006Ev, symObjAddr: 0x7B50, symBinAddr: 0x1000167C0, symSize: 0x30 }
  - { offsetInCU: 0x1BBFD, offset: 0x53CF6, size: 0x8, addend: 0x0, symName: __ZNKSt3__16vectorINS_6futureIvEENS_9allocatorIS2_EEE31__annotate_contiguous_containerB7v160006EPKvS7_S7_S7_, symObjAddr: 0x7B80, symBinAddr: 0x1000167F0, symSize: 0x20 }
  - { offsetInCU: 0x1BC51, offset: 0x53D4A, size: 0x8, addend: 0x0, symName: __ZNKSt3__16vectorINS_6futureIvEENS_9allocatorIS2_EEE4dataB7v160006Ev, symObjAddr: 0x7BA0, symBinAddr: 0x100016810, symSize: 0x20 }
  - { offsetInCU: 0x1BC75, offset: 0x53D6E, size: 0x8, addend: 0x0, symName: __ZNKSt3__16vectorINS_6futureIvEENS_9allocatorIS2_EEE4sizeB7v160006Ev, symObjAddr: 0x7BC0, symBinAddr: 0x100016830, symSize: 0x20 }
  - { offsetInCU: 0x1BC99, offset: 0x53D92, size: 0x8, addend: 0x0, symName: __ZNSt3__16vectorINS_6futureIvEENS_9allocatorIS2_EEE22__base_destruct_at_endB7v160006EPS2_, symObjAddr: 0x7BF0, symBinAddr: 0x100016860, symSize: 0x80 }
  - { offsetInCU: 0x1BCDB, offset: 0x53DD4, size: 0x8, addend: 0x0, symName: __ZNSt3__116allocator_traitsINS_9allocatorINS_6futureIvEEEEE7destroyB7v160006IS3_vEEvRS4_PT_, symObjAddr: 0x7C70, symBinAddr: 0x1000168E0, symSize: 0x30 }
  - { offsetInCU: 0x1BD18, offset: 0x53E11, size: 0x8, addend: 0x0, symName: __ZNSt3__19allocatorINS_6futureIvEEE7destroyB7v160006EPS2_, symObjAddr: 0x7CA0, symBinAddr: 0x100016910, symSize: 0x20 }
  - { offsetInCU: 0x1BD4A, offset: 0x53E43, size: 0x8, addend: 0x0, symName: __ZNSt3__19allocatorINS_6futureIvEEE10deallocateB7v160006EPS2_m, symObjAddr: 0x7CC0, symBinAddr: 0x100016930, symSize: 0x40 }
  - { offsetInCU: 0x1BD8A, offset: 0x53E83, size: 0x8, addend: 0x0, symName: __ZNSt3__117__compressed_pairIPNS_6futureIvEENS_9allocatorIS2_EEE6secondB7v160006Ev, symObjAddr: 0x7D00, symBinAddr: 0x100016970, symSize: 0x20 }
  - { offsetInCU: 0x1BDAE, offset: 0x53EA7, size: 0x8, addend: 0x0, symName: __ZNSt3__122__compressed_pair_elemINS_9allocatorINS_6futureIvEEEELi1ELb1EE5__getB7v160006Ev, symObjAddr: 0x7D20, symBinAddr: 0x100016990, symSize: 0x10 }
  - { offsetInCU: 0x1BDD2, offset: 0x53ECB, size: 0x8, addend: 0x0, symName: __ZNKSt3__16vectorINS_6futureIvEENS_9allocatorIS2_EEE9__end_capB7v160006Ev, symObjAddr: 0x7D30, symBinAddr: 0x1000169A0, symSize: 0x20 }
  - { offsetInCU: 0x1BDF6, offset: 0x53EEF, size: 0x8, addend: 0x0, symName: __ZNKSt3__117__compressed_pairIPNS_6futureIvEENS_9allocatorIS2_EEE5firstB7v160006Ev, symObjAddr: 0x7D50, symBinAddr: 0x1000169C0, symSize: 0x20 }
  - { offsetInCU: 0x1BE1A, offset: 0x53F13, size: 0x8, addend: 0x0, symName: __ZNKSt3__122__compressed_pair_elemIPNS_6futureIvEELi0ELb0EE5__getB7v160006Ev, symObjAddr: 0x7D70, symBinAddr: 0x1000169E0, symSize: 0x10 }
  - { offsetInCU: 0x1BE3E, offset: 0x53F37, size: 0x8, addend: 0x0, symName: '__ZNSt3__112__async_funcIZN12PossibleGrid12analyzeMovesERK4GridE3$_0JEEC1B7v160006EOS5_', symObjAddr: 0x7EC0, symBinAddr: 0x100016B30, symSize: 0x30 }
  - { offsetInCU: 0x1BE76, offset: 0x53F6F, size: 0x8, addend: 0x0, symName: __ZNSt3__16futureIvEC1B7v160006Ev, symObjAddr: 0x7FB0, symBinAddr: 0x100016C20, symSize: 0x20 }
  - { offsetInCU: 0x1BE9F, offset: 0x53F98, size: 0x8, addend: 0x0, symName: '__ZNSt3__119__async_assoc_stateIvNS_12__async_funcIZN12PossibleGrid12analyzeMovesERK4GridE3$_0JEEEEC1EOS7_', symObjAddr: 0x7FD0, symBinAddr: 0x100016C40, symSize: 0x30 }
  - { offsetInCU: 0x1BF60, offset: 0x54059, size: 0x8, addend: 0x0, symName: '__ZNSt3__110unique_ptrINS_19__async_assoc_stateIvNS_12__async_funcIZN12PossibleGrid12analyzeMovesERK4GridE3$_0JEEEEENS_22__release_shared_countEEC1B7v160006ILb1EvEEPS9_', symObjAddr: 0x8000, symBinAddr: 0x100016C70, symSize: 0x30 }
  - { offsetInCU: 0x1BFA2, offset: 0x5409B, size: 0x8, addend: 0x0, symName: '__ZNKSt3__110unique_ptrINS_19__async_assoc_stateIvNS_12__async_funcIZN12PossibleGrid12analyzeMovesERK4GridE3$_0JEEEEENS_22__release_shared_countEE3getB7v160006Ev', symObjAddr: 0x8030, symBinAddr: 0x100016CA0, symSize: 0x20 }
  - { offsetInCU: 0x1C08B, offset: 0x54184, size: 0x8, addend: 0x0, symName: '__ZNSt3__16threadC1IMNS_19__async_assoc_stateIvNS_12__async_funcIZN12PossibleGrid12analyzeMovesERK4GridE3$_0JEEEEEFvvEJPSA_EvEEOT_DpOT0_', symObjAddr: 0x8050, symBinAddr: 0x100016CC0, symSize: 0x30 }
  - { offsetInCU: 0x1C0E7, offset: 0x541E0, size: 0x8, addend: 0x0, symName: '__ZNSt3__110unique_ptrINS_19__async_assoc_stateIvNS_12__async_funcIZN12PossibleGrid12analyzeMovesERK4GridE3$_0JEEEEENS_22__release_shared_countEED1B7v160006Ev', symObjAddr: 0x8080, symBinAddr: 0x100016CF0, symSize: 0x20 }
  - { offsetInCU: 0x1C110, offset: 0x54209, size: 0x8, addend: 0x0, symName: '__ZNSt3__119__async_assoc_stateIvNS_12__async_funcIZN12PossibleGrid12analyzeMovesERK4GridE3$_0JEEEEC2EOS7_', symObjAddr: 0x80A0, symBinAddr: 0x100016D10, symSize: 0x70 }
  - { offsetInCU: 0x1C14A, offset: 0x54243, size: 0x8, addend: 0x0, symName: __ZNSt3__117__assoc_sub_stateC2B7v160006Ev, symObjAddr: 0x8110, symBinAddr: 0x100016D80, symSize: 0x70 }
  - { offsetInCU: 0x1C173, offset: 0x5426C, size: 0x8, addend: 0x0, symName: '__ZNSt3__112__async_funcIZN12PossibleGrid12analyzeMovesERK4GridE3$_0JEEC1B7v160006EOS6_', symObjAddr: 0x8180, symBinAddr: 0x100016DF0, symSize: 0x30 }
  - { offsetInCU: 0x1C1AB, offset: 0x542A4, size: 0x8, addend: 0x0, symName: __ZNSt3__117__assoc_sub_stateD2Ev, symObjAddr: 0x81B0, symBinAddr: 0x100016E20, symSize: 0x60 }
  - { offsetInCU: 0x1C1D7, offset: 0x542D0, size: 0x8, addend: 0x0, symName: '__ZNSt3__119__async_assoc_stateIvNS_12__async_funcIZN12PossibleGrid12analyzeMovesERK4GridE3$_0JEEEED1Ev', symObjAddr: 0x8210, symBinAddr: 0x100016E80, symSize: 0x20 }
  - { offsetInCU: 0x1C203, offset: 0x542FC, size: 0x8, addend: 0x0, symName: '__ZNSt3__119__async_assoc_stateIvNS_12__async_funcIZN12PossibleGrid12analyzeMovesERK4GridE3$_0JEEEED0Ev', symObjAddr: 0x8230, symBinAddr: 0x100016EA0, symSize: 0x30 }
  - { offsetInCU: 0x1C22F, offset: 0x54328, size: 0x8, addend: 0x0, symName: '__ZNSt3__119__async_assoc_stateIvNS_12__async_funcIZN12PossibleGrid12analyzeMovesERK4GridE3$_0JEEEE16__on_zero_sharedEv', symObjAddr: 0x8260, symBinAddr: 0x100016ED0, symSize: 0x40 }
  - { offsetInCU: 0x1C256, offset: 0x5434F, size: 0x8, addend: 0x0, symName: '__ZNSt3__119__async_assoc_stateIvNS_12__async_funcIZN12PossibleGrid12analyzeMovesERK4GridE3$_0JEEEE9__executeEv', symObjAddr: 0x82A0, symBinAddr: 0x100016F10, symSize: 0xC0 }
  - { offsetInCU: 0x1C27D, offset: 0x54376, size: 0x8, addend: 0x0, symName: __ZNSt3__114__shared_countC2B7v160006El, symObjAddr: 0x8360, symBinAddr: 0x100016FD0, symSize: 0x30 }
  - { offsetInCU: 0x1C2B4, offset: 0x543AD, size: 0x8, addend: 0x0, symName: __ZNSt13exception_ptrC1B7v160006Ev, symObjAddr: 0x8390, symBinAddr: 0x100017000, symSize: 0x20 }
  - { offsetInCU: 0x1C2DD, offset: 0x543D6, size: 0x8, addend: 0x0, symName: __ZNSt3__15mutexC1B7v160006Ev, symObjAddr: 0x83B0, symBinAddr: 0x100017020, symSize: 0x20 }
  - { offsetInCU: 0x1C306, offset: 0x543FF, size: 0x8, addend: 0x0, symName: __ZNSt3__118condition_variableC1B7v160006Ev, symObjAddr: 0x83D0, symBinAddr: 0x100017040, symSize: 0x20 }
  - { offsetInCU: 0x1C32F, offset: 0x54428, size: 0x8, addend: 0x0, symName: __ZNSt13exception_ptrC2B7v160006Ev, symObjAddr: 0x83F0, symBinAddr: 0x100017060, symSize: 0x20 }
  - { offsetInCU: 0x1C358, offset: 0x54451, size: 0x8, addend: 0x0, symName: __ZNSt3__15mutexC2B7v160006Ev, symObjAddr: 0x8410, symBinAddr: 0x100017080, symSize: 0x30 }
  - { offsetInCU: 0x1C381, offset: 0x5447A, size: 0x8, addend: 0x0, symName: __ZNSt3__118condition_variableC2B7v160006Ev, symObjAddr: 0x8440, symBinAddr: 0x1000170B0, symSize: 0x30 }
  - { offsetInCU: 0x1C3AA, offset: 0x544A3, size: 0x8, addend: 0x0, symName: '__ZNSt3__112__async_funcIZN12PossibleGrid12analyzeMovesERK4GridE3$_0JEEC2B7v160006EOS6_', symObjAddr: 0x8470, symBinAddr: 0x1000170E0, symSize: 0x40 }
  - { offsetInCU: 0x1C3E2, offset: 0x544DB, size: 0x8, addend: 0x0, symName: '__ZNSt3__119__async_assoc_stateIvNS_12__async_funcIZN12PossibleGrid12analyzeMovesERK4GridE3$_0JEEEED2Ev', symObjAddr: 0x84B0, symBinAddr: 0x100017120, symSize: 0x20 }
  - { offsetInCU: 0x1C40E, offset: 0x54507, size: 0x8, addend: 0x0, symName: '__ZNSt3__112__async_funcIZN12PossibleGrid12analyzeMovesERK4GridE3$_0JEEclEv', symObjAddr: 0x84D0, symBinAddr: 0x100017140, symSize: 0x20 }
  - { offsetInCU: 0x1C432, offset: 0x5452B, size: 0x8, addend: 0x0, symName: '__ZNSt3__112__async_funcIZN12PossibleGrid12analyzeMovesERK4GridE3$_0JEE9__executeIJEEEvNS_15__tuple_indicesIJXspT_EEEE', symObjAddr: 0x84F0, symBinAddr: 0x100017160, symSize: 0x30 }
  - { offsetInCU: 0x1C467, offset: 0x54560, size: 0x8, addend: 0x0, symName: '__ZZN12PossibleGrid12analyzeMovesERK4GridENK3$_0clEv', symObjAddr: 0x8560, symBinAddr: 0x1000171D0, symSize: 0x5E0 }
  - { offsetInCU: 0x1C51F, offset: 0x54618, size: 0x8, addend: 0x0, symName: __ZNSt3__16vectorI8PositionNS_9allocatorIS1_EEEixB7v160006Em, symObjAddr: 0x8B40, symBinAddr: 0x1000177B0, symSize: 0x20 }
  - { offsetInCU: 0x1C555, offset: 0x5464E, size: 0x8, addend: 0x0, symName: __ZNSt3__16vectorIiNS_9allocatorIiEEE6insertINS_11__wrap_iterIPKiEELi0EEENS5_IPiEES8_T_SB_, symObjAddr: 0x8B60, symBinAddr: 0x1000177D0, symSize: 0x300 }
  - { offsetInCU: 0x1C66F, offset: 0x54768, size: 0x8, addend: 0x0, symName: __ZNSt3__111__wrap_iterIPKiEC1B7v160006IPiEERKNS0_IT_EEPNS_9enable_ifIXsr14is_convertibleIS6_S2_EE5valueEvE4typeE, symObjAddr: 0x8E60, symBinAddr: 0x100017AD0, symSize: 0x30 }
  - { offsetInCU: 0x1C6BA, offset: 0x547B3, size: 0x8, addend: 0x0, symName: __ZNSt3__16vectorIiNS_9allocatorIiEEE5eraseENS_11__wrap_iterIPKiEES7_, symObjAddr: 0x8F30, symBinAddr: 0x100017B00, symSize: 0xE0 }
  - { offsetInCU: 0x1C70E, offset: 0x54807, size: 0x8, addend: 0x0, symName: __ZNSt3__16vectorINS0_INS0_IiNS_9allocatorIiEEEENS1_IS3_EEEENS1_IS5_EEEixB7v160006Em, symObjAddr: 0x90E0, symBinAddr: 0x100017C40, symSize: 0x20 }
  - { offsetInCU: 0x1C744, offset: 0x5483D, size: 0x8, addend: 0x0, symName: __ZNSt3__16vectorIiNS_9allocatorIiEEEaSB7v160006EOS3_, symObjAddr: 0x9120, symBinAddr: 0x100017C60, symSize: 0x30 }
  - { offsetInCU: 0x1C77A, offset: 0x54873, size: 0x8, addend: 0x0, symName: __ZNSt3__16vectorIiNS_9allocatorIiEEE18__construct_at_endINS_11__wrap_iterIPKiEELi0EEEvT_S9_m, symObjAddr: 0x9220, symBinAddr: 0x100017D60, symSize: 0xA0 }
  - { offsetInCU: 0x1C7EC, offset: 0x548E5, size: 0x8, addend: 0x0, symName: __ZNSt3__16vectorIiNS_9allocatorIiEEE12__move_rangeEPiS4_S4_, symObjAddr: 0x92C0, symBinAddr: 0x100017E00, symSize: 0x130 }
  - { offsetInCU: 0x1C8AB, offset: 0x549A4, size: 0x8, addend: 0x0, symName: __ZNSt3__114__split_bufferIiRNS_9allocatorIiEEE18__construct_at_endINS_11__wrap_iterIPKiEEEENS_9enable_ifIXsr27__is_cpp17_forward_iteratorIT_EE5valueEvE4typeESB_SB_, symObjAddr: 0x9520, symBinAddr: 0x100017F80, symSize: 0xF0 }
  - { offsetInCU: 0x1C906, offset: 0x549FF, size: 0x8, addend: 0x0, symName: __ZNSt3__111__wrap_iterIPKiEpLB7v160006El, symObjAddr: 0x9870, symBinAddr: 0x100018290, symSize: 0x20 }
  - { offsetInCU: 0x1C93D, offset: 0x54A36, size: 0x8, addend: 0x0, symName: __ZNSt3__116allocator_traitsINS_9allocatorIiEEE9constructB7v160006IiJiEvEEvRS2_PT_DpOT0_, symObjAddr: 0x9AB0, symBinAddr: 0x1000183D0, symSize: 0x30 }
  - { offsetInCU: 0x1C994, offset: 0x54A8D, size: 0x8, addend: 0x0, symName: __ZNSt3__19allocatorIiE9constructB7v160006IiJiEEEvPT_DpOT0_, symObjAddr: 0x9B20, symBinAddr: 0x100018440, symSize: 0x20 }
  - { offsetInCU: 0x1CA0B, offset: 0x54B04, size: 0x8, addend: 0x0, symName: __ZNKSt3__123__move_backward_trivialclB7v160006IiiLi0EEENS_4pairIPT_PT0_EES4_S4_S6_, symObjAddr: 0x9CC0, symBinAddr: 0x1000185E0, symSize: 0x40 }
  - { offsetInCU: 0x1CA71, offset: 0x54B6A, size: 0x8, addend: 0x0, symName: __ZNSt3__14pairIPiS1_EC1B7v160006IRS1_S4_LPv0EEEOT_OT0_, symObjAddr: 0x9E70, symBinAddr: 0x100018790, symSize: 0x30 }
  - { offsetInCU: 0x1CACE, offset: 0x54BC7, size: 0x8, addend: 0x0, symName: __ZNSt3__14pairIPiS1_EC2B7v160006IRS1_S4_LPv0EEEOT_OT0_, symObjAddr: 0x9EA0, symBinAddr: 0x1000187C0, symSize: 0x30 }
  - { offsetInCU: 0x1CB2B, offset: 0x54C24, size: 0x8, addend: 0x0, symName: __ZNSt3__118__unwrap_iter_implIPiLb1EE8__unwrapB7v160006ES1_, symObjAddr: 0x9ED0, symBinAddr: 0x1000187F0, symSize: 0x20 }
  - { offsetInCU: 0x1CB53, offset: 0x54C4C, size: 0x8, addend: 0x0, symName: __ZNSt3__14pairIPiS1_EC1B7v160006IS1_S1_LPv0EEEOT_OT0_, symObjAddr: 0x9EF0, symBinAddr: 0x100018810, symSize: 0x30 }
  - { offsetInCU: 0x1CBB0, offset: 0x54CA9, size: 0x8, addend: 0x0, symName: __ZNSt3__14pairIPiS1_EC2B7v160006IS1_S1_LPv0EEEOT_OT0_, symObjAddr: 0x9F20, symBinAddr: 0x100018840, symSize: 0x30 }
  - { offsetInCU: 0x1CC0D, offset: 0x54D06, size: 0x8, addend: 0x0, symName: __ZNSt3__118__unwrap_iter_implIPiLb1EE8__rewrapB7v160006ES1_S1_, symObjAddr: 0x9F50, symBinAddr: 0x100018870, symSize: 0x50 }
  - { offsetInCU: 0x1CC57, offset: 0x54D50, size: 0x8, addend: 0x0, symName: __ZNKSt3__114__copy_trivialclB7v160006IKiiLi0EEENS_4pairIPT_PT0_EES5_S5_S7_, symObjAddr: 0xA170, symBinAddr: 0x100018A90, symSize: 0x40 }
  - { offsetInCU: 0x1CCDB, offset: 0x54DD4, size: 0x8, addend: 0x0, symName: __ZNSt3__14pairIPKiS2_EC1B7v160006IS2_S2_LPv0EEEOT_OT0_, symObjAddr: 0xA280, symBinAddr: 0x100018BA0, symSize: 0x30 }
  - { offsetInCU: 0x1CD38, offset: 0x54E31, size: 0x8, addend: 0x0, symName: __ZNSt3__14pairIPKiS2_EC2B7v160006IS2_S2_LPv0EEEOT_OT0_, symObjAddr: 0xA2B0, symBinAddr: 0x100018BD0, symSize: 0x30 }
  - { offsetInCU: 0x1CD95, offset: 0x54E8E, size: 0x8, addend: 0x0, symName: __ZNSt3__118__unwrap_iter_implINS_11__wrap_iterIPKiEELb1EE8__unwrapB7v160006ES4_, symObjAddr: 0xA2E0, symBinAddr: 0x100018C00, symSize: 0x20 }
  - { offsetInCU: 0x1CDC2, offset: 0x54EBB, size: 0x8, addend: 0x0, symName: __ZNSt3__119__to_address_helperINS_11__wrap_iterIPKiEEvE6__callB7v160006ERKS4_, symObjAddr: 0xA320, symBinAddr: 0x100018C40, symSize: 0x30 }
  - { offsetInCU: 0x1CDE5, offset: 0x54EDE, size: 0x8, addend: 0x0, symName: __ZNSt3__114pointer_traitsINS_11__wrap_iterIPKiEEE10to_addressB7v160006ES4_, symObjAddr: 0xA350, symBinAddr: 0x100018C70, symSize: 0x30 }
  - { offsetInCU: 0x1CE0E, offset: 0x54F07, size: 0x8, addend: 0x0, symName: __ZNSt3__14pairIPKiPiEC1B7v160006IRS2_S3_LPv0EEEOT_OT0_, symObjAddr: 0xA430, symBinAddr: 0x100018D50, symSize: 0x30 }
  - { offsetInCU: 0x1CE6B, offset: 0x54F64, size: 0x8, addend: 0x0, symName: __ZNSt3__14pairIPKiPiEC2B7v160006IRS2_S3_LPv0EEEOT_OT0_, symObjAddr: 0xA460, symBinAddr: 0x100018D80, symSize: 0x30 }
  - { offsetInCU: 0x1CEE6, offset: 0x54FDF, size: 0x8, addend: 0x0, symName: __ZNSt3__14pairINS_11__wrap_iterIPKiEEPiEC1B7v160006IS4_S5_LPv0EEEOT_OT0_, symObjAddr: 0xA490, symBinAddr: 0x100018DB0, symSize: 0x30 }
  - { offsetInCU: 0x1CF43, offset: 0x5503C, size: 0x8, addend: 0x0, symName: __ZNSt3__14pairINS_11__wrap_iterIPKiEEPiEC2B7v160006IS4_S5_LPv0EEEOT_OT0_, symObjAddr: 0xA4C0, symBinAddr: 0x100018DE0, symSize: 0x30 }
  - { offsetInCU: 0x1CFA0, offset: 0x55099, size: 0x8, addend: 0x0, symName: __ZNSt3__118__unwrap_iter_implINS_11__wrap_iterIPKiEELb1EE8__rewrapB7v160006ES4_S3_, symObjAddr: 0xA540, symBinAddr: 0x100018E60, symSize: 0x50 }
  - { offsetInCU: 0x1CFD1, offset: 0x550CA, size: 0x8, addend: 0x0, symName: __ZNKSt3__111__wrap_iterIPKiEplB7v160006El, symObjAddr: 0xA590, symBinAddr: 0x100018EB0, symSize: 0x40 }
  - { offsetInCU: 0x1D01B, offset: 0x55114, size: 0x8, addend: 0x0, symName: __ZNSt3__114__split_bufferIiRNS_9allocatorIiEEE21_ConstructTransactionC1B7v160006EPPim, symObjAddr: 0xA7D0, symBinAddr: 0x100018EF0, symSize: 0x30 }
  - { offsetInCU: 0x1D060, offset: 0x55159, size: 0x8, addend: 0x0, symName: __ZNSt3__114__split_bufferIiRNS_9allocatorIiEEE21_ConstructTransactionD1B7v160006Ev, symObjAddr: 0xA800, symBinAddr: 0x100018F20, symSize: 0x20 }
  - { offsetInCU: 0x1D089, offset: 0x55182, size: 0x8, addend: 0x0, symName: __ZNSt3__114__split_bufferIiRNS_9allocatorIiEEE21_ConstructTransactionC2B7v160006EPPim, symObjAddr: 0xA820, symBinAddr: 0x100018F40, symSize: 0x40 }
  - { offsetInCU: 0x1D0CE, offset: 0x551C7, size: 0x8, addend: 0x0, symName: __ZNSt3__114__split_bufferIiRNS_9allocatorIiEEE21_ConstructTransactionD2B7v160006Ev, symObjAddr: 0xA860, symBinAddr: 0x100018F80, symSize: 0x20 }
  - { offsetInCU: 0x1D101, offset: 0x551FA, size: 0x8, addend: 0x0, symName: __ZNKSt3__114__move_trivialclB7v160006IiiLi0EEENS_4pairIPT_PT0_EES4_S4_S6_, symObjAddr: 0xB1F0, symBinAddr: 0x100019140, symSize: 0x40 }
  - { offsetInCU: 0x1D167, offset: 0x55260, size: 0x8, addend: 0x0, symName: __ZNSt3__14pairIPiS1_EC1B7v160006IRS1_S1_LPv0EEEOT_OT0_, symObjAddr: 0xB2D0, symBinAddr: 0x100019220, symSize: 0x30 }
  - { offsetInCU: 0x1D1C4, offset: 0x552BD, size: 0x8, addend: 0x0, symName: __ZNSt3__14pairIPiS1_EC2B7v160006IRS1_S1_LPv0EEEOT_OT0_, symObjAddr: 0xB300, symBinAddr: 0x100019250, symSize: 0x30 }
  - { offsetInCU: 0x1D221, offset: 0x5531A, size: 0x8, addend: 0x0, symName: __ZNSt3__111__wrap_iterIPKiEC2B7v160006IPiEERKNS0_IT_EEPNS_9enable_ifIXsr14is_convertibleIS6_S2_EE5valueEvE4typeE, symObjAddr: 0xB4E0, symBinAddr: 0x100019280, symSize: 0x40 }
  - { offsetInCU: 0x1D26C, offset: 0x55365, size: 0x8, addend: 0x0, symName: __ZNSt3__16vectorIiNS_9allocatorIiEEE17__destruct_at_endB7v160006EPi, symObjAddr: 0xB740, symBinAddr: 0x1000192C0, symSize: 0x60 }
  - { offsetInCU: 0x1D2AE, offset: 0x553A7, size: 0x8, addend: 0x0, symName: __ZNSt3__16vectorIiNS_9allocatorIiEEE27__invalidate_iterators_pastB7v160006EPi, symObjAddr: 0xB7A0, symBinAddr: 0x100019320, symSize: 0x10 }
  - { offsetInCU: 0x1D2E4, offset: 0x553DD, size: 0x8, addend: 0x0, symName: __ZNKSt3__16vectorIiNS_9allocatorIiEEE17__annotate_shrinkB7v160006Em, symObjAddr: 0xB7B0, symBinAddr: 0x100019330, symSize: 0xA0 }
  - { offsetInCU: 0x1D321, offset: 0x5541A, size: 0x8, addend: 0x0, symName: __ZNKSt3__16__lessIiiEclB7v160006ERKiS3_, symObjAddr: 0xBD50, symBinAddr: 0x100019560, symSize: 0x30 }
  - { offsetInCU: 0x1D384, offset: 0x5547D, size: 0x8, addend: 0x0, symName: __ZNKSt3__111__copy_loopINS_17_ClassicAlgPolicyEEclB7v160006IPiS4_NS_20back_insert_iteratorINS_6vectorIiNS_9allocatorIiEEEEEEEENS_4pairIT_T1_EESC_T0_SD_, symObjAddr: 0xC2E0, symBinAddr: 0x1000197B0, symSize: 0x80 }
  - { offsetInCU: 0x1D3F2, offset: 0x554EB, size: 0x8, addend: 0x0, symName: __ZNSt3__14pairIPiNS_20back_insert_iteratorINS_6vectorIiNS_9allocatorIiEEEEEEEC1B7v160006IS1_S7_LPv0EEEOT_OT0_, symObjAddr: 0xC480, symBinAddr: 0x100019950, symSize: 0x30 }
  - { offsetInCU: 0x1D44F, offset: 0x55548, size: 0x8, addend: 0x0, symName: __ZNSt3__14pairIPiNS_20back_insert_iteratorINS_6vectorIiNS_9allocatorIiEEEEEEEC2B7v160006IS1_S7_LPv0EEEOT_OT0_, symObjAddr: 0xC4B0, symBinAddr: 0x100019980, symSize: 0x30 }
  - { offsetInCU: 0x1D4AC, offset: 0x555A5, size: 0x8, addend: 0x0, symName: __ZNSt3__118__unwrap_iter_implINS_20back_insert_iteratorINS_6vectorIiNS_9allocatorIiEEEEEELb0EE8__unwrapB7v160006ES6_, symObjAddr: 0xC4E0, symBinAddr: 0x1000199B0, symSize: 0x20 }
  - { offsetInCU: 0x1D4E8, offset: 0x555E1, size: 0x8, addend: 0x0, symName: __ZNSt3__14pairINS_11__wrap_iterIPiEENS_20back_insert_iteratorINS_6vectorIiNS_9allocatorIiEEEEEEEC1B7v160006IS3_S9_LPv0EEEOT_OT0_, symObjAddr: 0xC500, symBinAddr: 0x1000199D0, symSize: 0x30 }
  - { offsetInCU: 0x1D545, offset: 0x5563E, size: 0x8, addend: 0x0, symName: __ZNSt3__14pairINS_11__wrap_iterIPiEENS_20back_insert_iteratorINS_6vectorIiNS_9allocatorIiEEEEEEEC2B7v160006IS3_S9_LPv0EEEOT_OT0_, symObjAddr: 0xC530, symBinAddr: 0x100019A00, symSize: 0x30 }
  - { offsetInCU: 0x1D5A2, offset: 0x5569B, size: 0x8, addend: 0x0, symName: __ZNSt3__118__unwrap_iter_implINS_11__wrap_iterIPiEELb1EE8__rewrapB7v160006ES3_S2_, symObjAddr: 0xC5B0, symBinAddr: 0x100019A80, symSize: 0x50 }
  - { offsetInCU: 0x1D5D3, offset: 0x556CC, size: 0x8, addend: 0x0, symName: __ZNKSt3__111__wrap_iterIPiEplB7v160006El, symObjAddr: 0xC600, symBinAddr: 0x100019AD0, symSize: 0x40 }
  - { offsetInCU: 0x1D613, offset: 0x5570C, size: 0x8, addend: 0x0, symName: __ZNSt3__111__wrap_iterIPiEpLB7v160006El, symObjAddr: 0xC640, symBinAddr: 0x100019B10, symSize: 0x20 }
  - { offsetInCU: 0x1D645, offset: 0x5573E, size: 0x8, addend: 0x0, symName: __ZNSt3__118__unwrap_iter_implINS_20back_insert_iteratorINS_6vectorIiNS_9allocatorIiEEEEEELb0EE8__rewrapB7v160006ES6_S6_, symObjAddr: 0xC660, symBinAddr: 0x100019B30, symSize: 0x20 }
  - { offsetInCU: 0x1D673, offset: 0x5576C, size: 0x8, addend: 0x0, symName: __ZNSt3__16vectorIiNS_9allocatorIiEEE13__move_assignERS3_NS_17integral_constantIbLb1EEE, symObjAddr: 0xC6D0, symBinAddr: 0x100019B50, symSize: 0xB0 }
  - { offsetInCU: 0x1D6B5, offset: 0x557AE, size: 0x8, addend: 0x0, symName: __ZNSt3__16vectorIiNS_9allocatorIiEEE13__vdeallocateEv, symObjAddr: 0xC780, symBinAddr: 0x100019C00, symSize: 0x80 }
  - { offsetInCU: 0x1D6DC, offset: 0x557D5, size: 0x8, addend: 0x0, symName: __ZNSt3__16vectorIiNS_9allocatorIiEEE19__move_assign_allocB7v160006ERS3_, symObjAddr: 0xC800, symBinAddr: 0x100019C80, symSize: 0x30 }
  - { offsetInCU: 0x1D70F, offset: 0x55808, size: 0x8, addend: 0x0, symName: __ZNSt3__16vectorIiNS_9allocatorIiEEE5clearB7v160006Ev, symObjAddr: 0xC840, symBinAddr: 0x100019CB0, symSize: 0x50 }
  - { offsetInCU: 0x1D742, offset: 0x5583B, size: 0x8, addend: 0x0, symName: __ZNSt3__16vectorIiNS_9allocatorIiEEE19__move_assign_allocB7v160006ERS3_NS_17integral_constantIbLb1EEE, symObjAddr: 0xC890, symBinAddr: 0x100019D00, symSize: 0x30 }
  - { offsetInCU: 0x1D781, offset: 0x5587A, size: 0x8, addend: 0x0, symName: '__ZNSt3__112__tuple_leafILm0EZN12PossibleGrid12analyzeMovesERK4GridE3$_0Lb0EE3getB7v160006Ev', symObjAddr: 0xC8C0, symBinAddr: 0x100019D30, symSize: 0x10 }
  - { offsetInCU: 0x1D7A5, offset: 0x5589E, size: 0x8, addend: 0x0, symName: '__ZNSt3__110unique_ptrINS_19__async_assoc_stateIvNS_12__async_funcIZN12PossibleGrid12analyzeMovesERK4GridE3$_0JEEEEENS_22__release_shared_countEEC2B7v160006ILb1EvEEPS9_', symObjAddr: 0xC8D0, symBinAddr: 0x100019D40, symSize: 0x40 }
  - { offsetInCU: 0x1D7EC, offset: 0x558E5, size: 0x8, addend: 0x0, symName: '__ZNSt3__117__compressed_pairIPNS_19__async_assoc_stateIvNS_12__async_funcIZN12PossibleGrid12analyzeMovesERK4GridE3$_0JEEEEENS_22__release_shared_countEEC1B7v160006IRSA_NS_16__value_init_tagEEEOT_OT0_', symObjAddr: 0xC910, symBinAddr: 0x100019D80, symSize: 0x30 }
  - { offsetInCU: 0x1D843, offset: 0x5593C, size: 0x8, addend: 0x0, symName: '__ZNSt3__117__compressed_pairIPNS_19__async_assoc_stateIvNS_12__async_funcIZN12PossibleGrid12analyzeMovesERK4GridE3$_0JEEEEENS_22__release_shared_countEEC2B7v160006IRSA_NS_16__value_init_tagEEEOT_OT0_', symObjAddr: 0xC940, symBinAddr: 0x100019DB0, symSize: 0x40 }
  - { offsetInCU: 0x1D89A, offset: 0x55993, size: 0x8, addend: 0x0, symName: '__ZNSt3__122__compressed_pair_elemIPNS_19__async_assoc_stateIvNS_12__async_funcIZN12PossibleGrid12analyzeMovesERK4GridE3$_0JEEEEELi0ELb0EEC2B7v160006IRSA_vEEOT_', symObjAddr: 0xC980, symBinAddr: 0x100019DF0, symSize: 0x20 }
  - { offsetInCU: 0x1D8DB, offset: 0x559D4, size: 0x8, addend: 0x0, symName: __ZNSt3__122__compressed_pair_elemINS_22__release_shared_countELi1ELb1EEC2B7v160006ENS_16__value_init_tagE, symObjAddr: 0xC9A0, symBinAddr: 0x100019E10, symSize: 0x10 }
  - { offsetInCU: 0x1D90F, offset: 0x55A08, size: 0x8, addend: 0x0, symName: '__ZNKSt3__117__compressed_pairIPNS_19__async_assoc_stateIvNS_12__async_funcIZN12PossibleGrid12analyzeMovesERK4GridE3$_0JEEEEENS_22__release_shared_countEE5firstB7v160006Ev', symObjAddr: 0xC9B0, symBinAddr: 0x100019E20, symSize: 0x20 }
  - { offsetInCU: 0x1D933, offset: 0x55A2C, size: 0x8, addend: 0x0, symName: '__ZNKSt3__122__compressed_pair_elemIPNS_19__async_assoc_stateIvNS_12__async_funcIZN12PossibleGrid12analyzeMovesERK4GridE3$_0JEEEEELi0ELb0EE5__getB7v160006Ev', symObjAddr: 0xC9D0, symBinAddr: 0x100019E40, symSize: 0x10 }
  - { offsetInCU: 0x1D957, offset: 0x55A50, size: 0x8, addend: 0x0, symName: '__ZNSt3__16threadC2IMNS_19__async_assoc_stateIvNS_12__async_funcIZN12PossibleGrid12analyzeMovesERK4GridE3$_0JEEEEEFvvEJPSA_EvEEOT_DpOT0_', symObjAddr: 0xC9E0, symBinAddr: 0x100019E50, symSize: 0x150 }
  - { offsetInCU: 0x1D9E6, offset: 0x55ADF, size: 0x8, addend: 0x0, symName: __ZNSt3__110unique_ptrINS_15__thread_structENS_14default_deleteIS1_EEEC1B7v160006ILb1EvEEPS1_, symObjAddr: 0xCB30, symBinAddr: 0x100019FA0, symSize: 0x30 }
  - { offsetInCU: 0x1DA28, offset: 0x55B21, size: 0x8, addend: 0x0, symName: '__ZNSt3__15tupleIJNS_10unique_ptrINS_15__thread_structENS_14default_deleteIS2_EEEEMNS_19__async_assoc_stateIvNS_12__async_funcIZN12PossibleGrid12analyzeMovesERK4GridE3$_0JEEEEEFvvEPSE_EEC1B7v160006IJS5_SG_SH_ELi0EEEDpOT_', symObjAddr: 0xCB60, symBinAddr: 0x100019FD0, symSize: 0x40 }
  - { offsetInCU: 0x1DB2A, offset: 0x55C23, size: 0x8, addend: 0x0, symName: '__ZNSt3__110unique_ptrINS_5tupleIJNS0_INS_15__thread_structENS_14default_deleteIS2_EEEEMNS_19__async_assoc_stateIvNS_12__async_funcIZN12PossibleGrid12analyzeMovesERK4GridE3$_0JEEEEEFvvEPSE_EEENS3_ISI_EEEC1B7v160006ILb1EvEEPSI_', symObjAddr: 0xCBA0, symBinAddr: 0x10001A010, symSize: 0x30 }
  - { offsetInCU: 0x1DB6C, offset: 0x55C65, size: 0x8, addend: 0x0, symName: '__ZNKSt3__110unique_ptrINS_5tupleIJNS0_INS_15__thread_structENS_14default_deleteIS2_EEEEMNS_19__async_assoc_stateIvNS_12__async_funcIZN12PossibleGrid12analyzeMovesERK4GridE3$_0JEEEEEFvvEPSE_EEENS3_ISI_EEE3getB7v160006Ev', symObjAddr: 0xCCA0, symBinAddr: 0x10001A110, symSize: 0x20 }
  - { offsetInCU: 0x1DB90, offset: 0x55C89, size: 0x8, addend: 0x0, symName: '__ZNSt3__110unique_ptrINS_5tupleIJNS0_INS_15__thread_structENS_14default_deleteIS2_EEEEMNS_19__async_assoc_stateIvNS_12__async_funcIZN12PossibleGrid12analyzeMovesERK4GridE3$_0JEEEEEFvvEPSE_EEENS3_ISI_EEE7releaseB7v160006Ev', symObjAddr: 0xCCC0, symBinAddr: 0x10001A130, symSize: 0x40 }
  - { offsetInCU: 0x1DBC3, offset: 0x55CBC, size: 0x8, addend: 0x0, symName: '__ZNSt3__110unique_ptrINS_5tupleIJNS0_INS_15__thread_structENS_14default_deleteIS2_EEEEMNS_19__async_assoc_stateIvNS_12__async_funcIZN12PossibleGrid12analyzeMovesERK4GridE3$_0JEEEEEFvvEPSE_EEENS3_ISI_EEED1B7v160006Ev', symObjAddr: 0xCD00, symBinAddr: 0x10001A170, symSize: 0x20 }
  - { offsetInCU: 0x1DBEC, offset: 0x55CE5, size: 0x8, addend: 0x0, symName: __ZNSt3__110unique_ptrINS_15__thread_structENS_14default_deleteIS1_EEED1B7v160006Ev, symObjAddr: 0xCD20, symBinAddr: 0x10001A190, symSize: 0x20 }
  - { offsetInCU: 0x1DC15, offset: 0x55D0E, size: 0x8, addend: 0x0, symName: __ZNSt3__110unique_ptrINS_15__thread_structENS_14default_deleteIS1_EEEC2B7v160006ILb1EvEEPS1_, symObjAddr: 0xCD40, symBinAddr: 0x10001A1B0, symSize: 0x40 }
  - { offsetInCU: 0x1DC57, offset: 0x55D50, size: 0x8, addend: 0x0, symName: __ZNSt3__117__compressed_pairIPNS_15__thread_structENS_14default_deleteIS1_EEEC1B7v160006IRS2_NS_16__value_init_tagEEEOT_OT0_, symObjAddr: 0xCD80, symBinAddr: 0x10001A1F0, symSize: 0x30 }
  - { offsetInCU: 0x1DCAE, offset: 0x55DA7, size: 0x8, addend: 0x0, symName: __ZNSt3__117__compressed_pairIPNS_15__thread_structENS_14default_deleteIS1_EEEC2B7v160006IRS2_NS_16__value_init_tagEEEOT_OT0_, symObjAddr: 0xCDB0, symBinAddr: 0x10001A220, symSize: 0x40 }
  - { offsetInCU: 0x1DD05, offset: 0x55DFE, size: 0x8, addend: 0x0, symName: __ZNSt3__122__compressed_pair_elemIPNS_15__thread_structELi0ELb0EEC2B7v160006IRS2_vEEOT_, symObjAddr: 0xCDF0, symBinAddr: 0x10001A260, symSize: 0x20 }
  - { offsetInCU: 0x1DD46, offset: 0x55E3F, size: 0x8, addend: 0x0, symName: __ZNSt3__122__compressed_pair_elemINS_14default_deleteINS_15__thread_structEEELi1ELb1EEC2B7v160006ENS_16__value_init_tagE, symObjAddr: 0xCE10, symBinAddr: 0x10001A280, symSize: 0x10 }
  - { offsetInCU: 0x1DD7A, offset: 0x55E73, size: 0x8, addend: 0x0, symName: '__ZNSt3__15tupleIJNS_10unique_ptrINS_15__thread_structENS_14default_deleteIS2_EEEEMNS_19__async_assoc_stateIvNS_12__async_funcIZN12PossibleGrid12analyzeMovesERK4GridE3$_0JEEEEEFvvEPSE_EEC2B7v160006IJS5_SG_SH_ELi0EEEDpOT_', symObjAddr: 0xCE20, symBinAddr: 0x10001A290, symSize: 0x40 }
  - { offsetInCU: 0x1DDEB, offset: 0x55EE4, size: 0x8, addend: 0x0, symName: '__ZNSt3__112__tuple_implINS_15__tuple_indicesIJLm0ELm1ELm2EEEEJNS_10unique_ptrINS_15__thread_structENS_14default_deleteIS4_EEEEMNS_19__async_assoc_stateIvNS_12__async_funcIZN12PossibleGrid12analyzeMovesERK4GridE3$_0JEEEEEFvvEPSG_EEC1B7v160006IJLm0ELm1ELm2EEJS7_SI_SJ_EJEJEJS7_SI_SJ_EEENS1_IJXspT_EEEENS_13__tuple_typesIJDpT0_EEENS1_IJXspT1_EEEENSN_IJDpT2_EEEDpOT3_', symObjAddr: 0xCE60, symBinAddr: 0x10001A2D0, symSize: 0x40 }
  - { offsetInCU: 0x1DEBD, offset: 0x55FB6, size: 0x8, addend: 0x0, symName: '__ZNSt3__112__tuple_implINS_15__tuple_indicesIJLm0ELm1ELm2EEEEJNS_10unique_ptrINS_15__thread_structENS_14default_deleteIS4_EEEEMNS_19__async_assoc_stateIvNS_12__async_funcIZN12PossibleGrid12analyzeMovesERK4GridE3$_0JEEEEEFvvEPSG_EEC2B7v160006IJLm0ELm1ELm2EEJS7_SI_SJ_EJEJEJS7_SI_SJ_EEENS1_IJXspT_EEEENS_13__tuple_typesIJDpT0_EEENS1_IJXspT1_EEEENSN_IJDpT2_EEEDpOT3_', symObjAddr: 0xCEA0, symBinAddr: 0x10001A310, symSize: 0x60 }
  - { offsetInCU: 0x1DF8F, offset: 0x56088, size: 0x8, addend: 0x0, symName: __ZNSt3__112__tuple_leafILm0ENS_10unique_ptrINS_15__thread_structENS_14default_deleteIS2_EEEELb0EEC2B7v160006IS5_vEEOT_, symObjAddr: 0xCF00, symBinAddr: 0x10001A370, symSize: 0x30 }
  - { offsetInCU: 0x1DFD1, offset: 0x560CA, size: 0x8, addend: 0x0, symName: '__ZNSt3__112__tuple_leafILm1EMNS_19__async_assoc_stateIvNS_12__async_funcIZN12PossibleGrid12analyzeMovesERK4GridE3$_0JEEEEEFvvELb0EEC2B7v160006ISB_vEEOT_', symObjAddr: 0xCF30, symBinAddr: 0x10001A3A0, symSize: 0x30 }
  - { offsetInCU: 0x1E013, offset: 0x5610C, size: 0x8, addend: 0x0, symName: '__ZNSt3__112__tuple_leafILm2EPNS_19__async_assoc_stateIvNS_12__async_funcIZN12PossibleGrid12analyzeMovesERK4GridE3$_0JEEEEELb0EEC2B7v160006ISA_vEEOT_', symObjAddr: 0xCF60, symBinAddr: 0x10001A3D0, symSize: 0x20 }
  - { offsetInCU: 0x1E055, offset: 0x5614E, size: 0x8, addend: 0x0, symName: __ZNSt3__110unique_ptrINS_15__thread_structENS_14default_deleteIS1_EEEC1B7v160006EOS4_, symObjAddr: 0xCF80, symBinAddr: 0x10001A3F0, symSize: 0x30 }
  - { offsetInCU: 0x1E08C, offset: 0x56185, size: 0x8, addend: 0x0, symName: __ZNSt3__110unique_ptrINS_15__thread_structENS_14default_deleteIS1_EEEC2B7v160006EOS4_, symObjAddr: 0xCFB0, symBinAddr: 0x10001A420, symSize: 0x60 }
  - { offsetInCU: 0x1E0C3, offset: 0x561BC, size: 0x8, addend: 0x0, symName: __ZNSt3__110unique_ptrINS_15__thread_structENS_14default_deleteIS1_EEE7releaseB7v160006Ev, symObjAddr: 0xD010, symBinAddr: 0x10001A480, symSize: 0x40 }
  - { offsetInCU: 0x1E0F6, offset: 0x561EF, size: 0x8, addend: 0x0, symName: __ZNSt3__110unique_ptrINS_15__thread_structENS_14default_deleteIS1_EEE11get_deleterB7v160006Ev, symObjAddr: 0xD050, symBinAddr: 0x10001A4C0, symSize: 0x20 }
  - { offsetInCU: 0x1E124, offset: 0x5621D, size: 0x8, addend: 0x0, symName: __ZNSt3__117__compressed_pairIPNS_15__thread_structENS_14default_deleteIS1_EEEC1B7v160006IS2_S4_EEOT_OT0_, symObjAddr: 0xD070, symBinAddr: 0x10001A4E0, symSize: 0x30 }
  - { offsetInCU: 0x1E17B, offset: 0x56274, size: 0x8, addend: 0x0, symName: __ZNSt3__117__compressed_pairIPNS_15__thread_structENS_14default_deleteIS1_EEE5firstB7v160006Ev, symObjAddr: 0xD0A0, symBinAddr: 0x10001A510, symSize: 0x20 }
  - { offsetInCU: 0x1E19F, offset: 0x56298, size: 0x8, addend: 0x0, symName: __ZNSt3__122__compressed_pair_elemIPNS_15__thread_structELi0ELb0EE5__getB7v160006Ev, symObjAddr: 0xD0C0, symBinAddr: 0x10001A530, symSize: 0x10 }
  - { offsetInCU: 0x1E1C3, offset: 0x562BC, size: 0x8, addend: 0x0, symName: __ZNSt3__117__compressed_pairIPNS_15__thread_structENS_14default_deleteIS1_EEE6secondB7v160006Ev, symObjAddr: 0xD0D0, symBinAddr: 0x10001A540, symSize: 0x20 }
  - { offsetInCU: 0x1E1E7, offset: 0x562E0, size: 0x8, addend: 0x0, symName: __ZNSt3__122__compressed_pair_elemINS_14default_deleteINS_15__thread_structEEELi1ELb1EE5__getB7v160006Ev, symObjAddr: 0xD0F0, symBinAddr: 0x10001A560, symSize: 0x10 }
  - { offsetInCU: 0x1E20B, offset: 0x56304, size: 0x8, addend: 0x0, symName: __ZNSt3__117__compressed_pairIPNS_15__thread_structENS_14default_deleteIS1_EEEC2B7v160006IS2_S4_EEOT_OT0_, symObjAddr: 0xD100, symBinAddr: 0x10001A570, symSize: 0x40 }
  - { offsetInCU: 0x1E262, offset: 0x5635B, size: 0x8, addend: 0x0, symName: __ZNSt3__122__compressed_pair_elemIPNS_15__thread_structELi0ELb0EEC2B7v160006IS2_vEEOT_, symObjAddr: 0xD140, symBinAddr: 0x10001A5B0, symSize: 0x20 }
  - { offsetInCU: 0x1E2A3, offset: 0x5639C, size: 0x8, addend: 0x0, symName: __ZNSt3__122__compressed_pair_elemINS_14default_deleteINS_15__thread_structEEELi1ELb1EEC2B7v160006IS3_vEEOT_, symObjAddr: 0xD160, symBinAddr: 0x10001A5D0, symSize: 0x10 }
  - { offsetInCU: 0x1E2E4, offset: 0x563DD, size: 0x8, addend: 0x0, symName: '__ZNSt3__110unique_ptrINS_5tupleIJNS0_INS_15__thread_structENS_14default_deleteIS2_EEEEMNS_19__async_assoc_stateIvNS_12__async_funcIZN12PossibleGrid12analyzeMovesERK4GridE3$_0JEEEEEFvvEPSE_EEENS3_ISI_EEEC2B7v160006ILb1EvEEPSI_', symObjAddr: 0xD170, symBinAddr: 0x10001A5E0, symSize: 0x40 }
  - { offsetInCU: 0x1E326, offset: 0x5641F, size: 0x8, addend: 0x0, symName: '__ZNSt3__117__compressed_pairIPNS_5tupleIJNS_10unique_ptrINS_15__thread_structENS_14default_deleteIS3_EEEEMNS_19__async_assoc_stateIvNS_12__async_funcIZN12PossibleGrid12analyzeMovesERK4GridE3$_0JEEEEEFvvEPSF_EEENS4_ISJ_EEEC1B7v160006IRSK_NS_16__value_init_tagEEEOT_OT0_', symObjAddr: 0xD1B0, symBinAddr: 0x10001A620, symSize: 0x30 }
  - { offsetInCU: 0x1E37D, offset: 0x56476, size: 0x8, addend: 0x0, symName: '__ZNSt3__117__compressed_pairIPNS_5tupleIJNS_10unique_ptrINS_15__thread_structENS_14default_deleteIS3_EEEEMNS_19__async_assoc_stateIvNS_12__async_funcIZN12PossibleGrid12analyzeMovesERK4GridE3$_0JEEEEEFvvEPSF_EEENS4_ISJ_EEEC2B7v160006IRSK_NS_16__value_init_tagEEEOT_OT0_', symObjAddr: 0xD1E0, symBinAddr: 0x10001A650, symSize: 0x40 }
  - { offsetInCU: 0x1E3D4, offset: 0x564CD, size: 0x8, addend: 0x0, symName: '__ZNSt3__122__compressed_pair_elemIPNS_5tupleIJNS_10unique_ptrINS_15__thread_structENS_14default_deleteIS3_EEEEMNS_19__async_assoc_stateIvNS_12__async_funcIZN12PossibleGrid12analyzeMovesERK4GridE3$_0JEEEEEFvvEPSF_EEELi0ELb0EEC2B7v160006IRSK_vEEOT_', symObjAddr: 0xD220, symBinAddr: 0x10001A690, symSize: 0x20 }
  - { offsetInCU: 0x1E415, offset: 0x5650E, size: 0x8, addend: 0x0, symName: '__ZNSt3__122__compressed_pair_elemINS_14default_deleteINS_5tupleIJNS_10unique_ptrINS_15__thread_structENS1_IS4_EEEEMNS_19__async_assoc_stateIvNS_12__async_funcIZN12PossibleGrid12analyzeMovesERK4GridE3$_0JEEEEEFvvEPSF_EEEEELi1ELb1EEC2B7v160006ENS_16__value_init_tagE', symObjAddr: 0xD240, symBinAddr: 0x10001A6B0, symSize: 0x10 }
  - { offsetInCU: 0x1E478, offset: 0x56571, size: 0x8, addend: 0x0, symName: __ZNSt3__121__thread_specific_ptrINS_15__thread_structEE11set_pointerEPS1_, symObjAddr: 0xD250, symBinAddr: 0x10001A6C0, symSize: 0x30 }
  - { offsetInCU: 0x1E4AC, offset: 0x565A5, size: 0x8, addend: 0x0, symName: __ZNSt3__112__tuple_leafILm0ENS_10unique_ptrINS_15__thread_structENS_14default_deleteIS2_EEEELb0EE3getB7v160006Ev, symObjAddr: 0xD310, symBinAddr: 0x10001A780, symSize: 0x10 }
  - { offsetInCU: 0x1E4D0, offset: 0x565C9, size: 0x8, addend: 0x0, symName: '__ZNSt3__112__tuple_leafILm1EMNS_19__async_assoc_stateIvNS_12__async_funcIZN12PossibleGrid12analyzeMovesERK4GridE3$_0JEEEEEFvvELb0EE3getB7v160006Ev', symObjAddr: 0xD3D0, symBinAddr: 0x10001A840, symSize: 0x10 }
  - { offsetInCU: 0x1E4F4, offset: 0x565ED, size: 0x8, addend: 0x0, symName: '__ZNSt3__112__tuple_leafILm2EPNS_19__async_assoc_stateIvNS_12__async_funcIZN12PossibleGrid12analyzeMovesERK4GridE3$_0JEEEEELb0EE3getB7v160006Ev', symObjAddr: 0xD3E0, symBinAddr: 0x10001A850, symSize: 0x10 }
  - { offsetInCU: 0x1E518, offset: 0x56611, size: 0x8, addend: 0x0, symName: '__ZNKSt3__117__compressed_pairIPNS_5tupleIJNS_10unique_ptrINS_15__thread_structENS_14default_deleteIS3_EEEEMNS_19__async_assoc_stateIvNS_12__async_funcIZN12PossibleGrid12analyzeMovesERK4GridE3$_0JEEEEEFvvEPSF_EEENS4_ISJ_EEE5firstB7v160006Ev', symObjAddr: 0xD3F0, symBinAddr: 0x10001A860, symSize: 0x20 }
  - { offsetInCU: 0x1E53C, offset: 0x56635, size: 0x8, addend: 0x0, symName: '__ZNKSt3__122__compressed_pair_elemIPNS_5tupleIJNS_10unique_ptrINS_15__thread_structENS_14default_deleteIS3_EEEEMNS_19__async_assoc_stateIvNS_12__async_funcIZN12PossibleGrid12analyzeMovesERK4GridE3$_0JEEEEEFvvEPSF_EEELi0ELb0EE5__getB7v160006Ev', symObjAddr: 0xD410, symBinAddr: 0x10001A880, symSize: 0x10 }
  - { offsetInCU: 0x1E560, offset: 0x56659, size: 0x8, addend: 0x0, symName: '__ZNSt3__117__compressed_pairIPNS_5tupleIJNS_10unique_ptrINS_15__thread_structENS_14default_deleteIS3_EEEEMNS_19__async_assoc_stateIvNS_12__async_funcIZN12PossibleGrid12analyzeMovesERK4GridE3$_0JEEEEEFvvEPSF_EEENS4_ISJ_EEE5firstB7v160006Ev', symObjAddr: 0xD420, symBinAddr: 0x10001A890, symSize: 0x20 }
  - { offsetInCU: 0x1E584, offset: 0x5667D, size: 0x8, addend: 0x0, symName: '__ZNSt3__122__compressed_pair_elemIPNS_5tupleIJNS_10unique_ptrINS_15__thread_structENS_14default_deleteIS3_EEEEMNS_19__async_assoc_stateIvNS_12__async_funcIZN12PossibleGrid12analyzeMovesERK4GridE3$_0JEEEEEFvvEPSF_EEELi0ELb0EE5__getB7v160006Ev', symObjAddr: 0xD440, symBinAddr: 0x10001A8B0, symSize: 0x10 }
  - { offsetInCU: 0x1E5A8, offset: 0x566A1, size: 0x8, addend: 0x0, symName: '__ZNSt3__110unique_ptrINS_5tupleIJNS0_INS_15__thread_structENS_14default_deleteIS2_EEEEMNS_19__async_assoc_stateIvNS_12__async_funcIZN12PossibleGrid12analyzeMovesERK4GridE3$_0JEEEEEFvvEPSE_EEENS3_ISI_EEED2B7v160006Ev', symObjAddr: 0xD450, symBinAddr: 0x10001A8C0, symSize: 0x20 }
  - { offsetInCU: 0x1E5D1, offset: 0x566CA, size: 0x8, addend: 0x0, symName: '__ZNSt3__110unique_ptrINS_5tupleIJNS0_INS_15__thread_structENS_14default_deleteIS2_EEEEMNS_19__async_assoc_stateIvNS_12__async_funcIZN12PossibleGrid12analyzeMovesERK4GridE3$_0JEEEEEFvvEPSE_EEENS3_ISI_EEE5resetB7v160006EPSI_', symObjAddr: 0xD470, symBinAddr: 0x10001A8E0, symSize: 0x70 }
  - { offsetInCU: 0x1E613, offset: 0x5670C, size: 0x8, addend: 0x0, symName: '__ZNSt3__117__compressed_pairIPNS_5tupleIJNS_10unique_ptrINS_15__thread_structENS_14default_deleteIS3_EEEEMNS_19__async_assoc_stateIvNS_12__async_funcIZN12PossibleGrid12analyzeMovesERK4GridE3$_0JEEEEEFvvEPSF_EEENS4_ISJ_EEE6secondB7v160006Ev', symObjAddr: 0xD4E0, symBinAddr: 0x10001A950, symSize: 0x20 }
  - { offsetInCU: 0x1E637, offset: 0x56730, size: 0x8, addend: 0x0, symName: '__ZNKSt3__114default_deleteINS_5tupleIJNS_10unique_ptrINS_15__thread_structENS0_IS3_EEEEMNS_19__async_assoc_stateIvNS_12__async_funcIZN12PossibleGrid12analyzeMovesERK4GridE3$_0JEEEEEFvvEPSE_EEEEclB7v160006EPSI_', symObjAddr: 0xD500, symBinAddr: 0x10001A970, symSize: 0x40 }
  - { offsetInCU: 0x1E669, offset: 0x56762, size: 0x8, addend: 0x0, symName: '__ZNSt3__122__compressed_pair_elemINS_14default_deleteINS_5tupleIJNS_10unique_ptrINS_15__thread_structENS1_IS4_EEEEMNS_19__async_assoc_stateIvNS_12__async_funcIZN12PossibleGrid12analyzeMovesERK4GridE3$_0JEEEEEFvvEPSF_EEEEELi1ELb1EE5__getB7v160006Ev', symObjAddr: 0xD540, symBinAddr: 0x10001A9B0, symSize: 0x10 }
  - { offsetInCU: 0x1E68D, offset: 0x56786, size: 0x8, addend: 0x0, symName: '__ZNSt3__15tupleIJNS_10unique_ptrINS_15__thread_structENS_14default_deleteIS2_EEEEMNS_19__async_assoc_stateIvNS_12__async_funcIZN12PossibleGrid12analyzeMovesERK4GridE3$_0JEEEEEFvvEPSE_EED1Ev', symObjAddr: 0xD550, symBinAddr: 0x10001A9C0, symSize: 0x20 }
  - { offsetInCU: 0x1E6B9, offset: 0x567B2, size: 0x8, addend: 0x0, symName: '__ZNSt3__15tupleIJNS_10unique_ptrINS_15__thread_structENS_14default_deleteIS2_EEEEMNS_19__async_assoc_stateIvNS_12__async_funcIZN12PossibleGrid12analyzeMovesERK4GridE3$_0JEEEEEFvvEPSE_EED2Ev', symObjAddr: 0xD570, symBinAddr: 0x10001A9E0, symSize: 0x20 }
  - { offsetInCU: 0x1E6E5, offset: 0x567DE, size: 0x8, addend: 0x0, symName: '__ZNSt3__112__tuple_implINS_15__tuple_indicesIJLm0ELm1ELm2EEEEJNS_10unique_ptrINS_15__thread_structENS_14default_deleteIS4_EEEEMNS_19__async_assoc_stateIvNS_12__async_funcIZN12PossibleGrid12analyzeMovesERK4GridE3$_0JEEEEEFvvEPSG_EED1Ev', symObjAddr: 0xD590, symBinAddr: 0x10001AA00, symSize: 0x20 }
  - { offsetInCU: 0x1E711, offset: 0x5680A, size: 0x8, addend: 0x0, symName: '__ZNSt3__112__tuple_implINS_15__tuple_indicesIJLm0ELm1ELm2EEEEJNS_10unique_ptrINS_15__thread_structENS_14default_deleteIS4_EEEEMNS_19__async_assoc_stateIvNS_12__async_funcIZN12PossibleGrid12analyzeMovesERK4GridE3$_0JEEEEEFvvEPSG_EED2Ev', symObjAddr: 0xD5B0, symBinAddr: 0x10001AA20, symSize: 0x20 }
  - { offsetInCU: 0x1E73D, offset: 0x56836, size: 0x8, addend: 0x0, symName: __ZNSt3__112__tuple_leafILm0ENS_10unique_ptrINS_15__thread_structENS_14default_deleteIS2_EEEELb0EED2Ev, symObjAddr: 0xD5D0, symBinAddr: 0x10001AA40, symSize: 0x20 }
  - { offsetInCU: 0x1E769, offset: 0x56862, size: 0x8, addend: 0x0, symName: __ZNSt3__110unique_ptrINS_15__thread_structENS_14default_deleteIS1_EEED2B7v160006Ev, symObjAddr: 0xD5F0, symBinAddr: 0x10001AA60, symSize: 0x20 }
  - { offsetInCU: 0x1E792, offset: 0x5688B, size: 0x8, addend: 0x0, symName: __ZNSt3__110unique_ptrINS_15__thread_structENS_14default_deleteIS1_EEE5resetB7v160006EPS1_, symObjAddr: 0xD610, symBinAddr: 0x10001AA80, symSize: 0x70 }
  - { offsetInCU: 0x1E7D4, offset: 0x568CD, size: 0x8, addend: 0x0, symName: __ZNKSt3__114default_deleteINS_15__thread_structEEclB7v160006EPS1_, symObjAddr: 0xD680, symBinAddr: 0x10001AAF0, symSize: 0x40 }
  - { offsetInCU: 0x1E806, offset: 0x568FF, size: 0x8, addend: 0x0, symName: '__ZNSt3__110unique_ptrINS_19__async_assoc_stateIvNS_12__async_funcIZN12PossibleGrid12analyzeMovesERK4GridE3$_0JEEEEENS_22__release_shared_countEED2B7v160006Ev', symObjAddr: 0xD6C0, symBinAddr: 0x10001AB30, symSize: 0x20 }
  - { offsetInCU: 0x1E82F, offset: 0x56928, size: 0x8, addend: 0x0, symName: '__ZNSt3__110unique_ptrINS_19__async_assoc_stateIvNS_12__async_funcIZN12PossibleGrid12analyzeMovesERK4GridE3$_0JEEEEENS_22__release_shared_countEE5resetB7v160006EPS9_', symObjAddr: 0xD6E0, symBinAddr: 0x10001AB50, symSize: 0x80 }
  - { offsetInCU: 0x1E871, offset: 0x5696A, size: 0x8, addend: 0x0, symName: '__ZNSt3__117__compressed_pairIPNS_19__async_assoc_stateIvNS_12__async_funcIZN12PossibleGrid12analyzeMovesERK4GridE3$_0JEEEEENS_22__release_shared_countEE5firstB7v160006Ev', symObjAddr: 0xD760, symBinAddr: 0x10001ABD0, symSize: 0x20 }
  - { offsetInCU: 0x1E895, offset: 0x5698E, size: 0x8, addend: 0x0, symName: '__ZNSt3__117__compressed_pairIPNS_19__async_assoc_stateIvNS_12__async_funcIZN12PossibleGrid12analyzeMovesERK4GridE3$_0JEEEEENS_22__release_shared_countEE6secondB7v160006Ev', symObjAddr: 0xD780, symBinAddr: 0x10001ABF0, symSize: 0x20 }
  - { offsetInCU: 0x1E8B9, offset: 0x569B2, size: 0x8, addend: 0x0, symName: __ZNSt3__122__release_shared_countclEPNS_14__shared_countE, symObjAddr: 0xD7A0, symBinAddr: 0x10001AC10, symSize: 0x20 }
  - { offsetInCU: 0x1E8EC, offset: 0x569E5, size: 0x8, addend: 0x0, symName: '__ZNSt3__122__compressed_pair_elemIPNS_19__async_assoc_stateIvNS_12__async_funcIZN12PossibleGrid12analyzeMovesERK4GridE3$_0JEEEEELi0ELb0EE5__getB7v160006Ev', symObjAddr: 0xD7C0, symBinAddr: 0x10001AC30, symSize: 0x10 }
  - { offsetInCU: 0x1E910, offset: 0x56A09, size: 0x8, addend: 0x0, symName: __ZNSt3__122__compressed_pair_elemINS_22__release_shared_countELi1ELb1EE5__getB7v160006Ev, symObjAddr: 0xD7D0, symBinAddr: 0x10001AC40, symSize: 0x10 }
  - { offsetInCU: 0x1E934, offset: 0x56A2D, size: 0x8, addend: 0x0, symName: __ZNSt3__114__shared_count16__release_sharedB7v160006Ev, symObjAddr: 0xD7E0, symBinAddr: 0x10001AC50, symSize: 0x50 }
  - { offsetInCU: 0x1E958, offset: 0x56A51, size: 0x8, addend: 0x0, symName: '__ZNSt3__112__async_funcIZN12PossibleGrid12analyzeMovesERK4GridE3$_0JEEC2B7v160006EOS5_', symObjAddr: 0xD860, symBinAddr: 0x10001ACD0, symSize: 0x30 }
  - { offsetInCU: 0x1E990, offset: 0x56A89, size: 0x8, addend: 0x0, symName: '__ZNSt3__15tupleIJZN12PossibleGrid12analyzeMovesERK4GridE3$_0EEC1B7v160006IJS5_ELi0EEEDpOT_', symObjAddr: 0xD890, symBinAddr: 0x10001AD00, symSize: 0x30 }
  - { offsetInCU: 0x1E9D9, offset: 0x56AD2, size: 0x8, addend: 0x0, symName: '__ZNSt3__15tupleIJZN12PossibleGrid12analyzeMovesERK4GridE3$_0EEC2B7v160006IJS5_ELi0EEEDpOT_', symObjAddr: 0xD8C0, symBinAddr: 0x10001AD30, symSize: 0x30 }
  - { offsetInCU: 0x1EA22, offset: 0x56B1B, size: 0x8, addend: 0x0, symName: '__ZNSt3__112__tuple_implINS_15__tuple_indicesIJLm0EEEEJZN12PossibleGrid12analyzeMovesERK4GridE3$_0EEC1B7v160006IJLm0EEJS7_EJEJEJS7_EEENS1_IJXspT_EEEENS_13__tuple_typesIJDpT0_EEENS1_IJXspT1_EEEENSB_IJDpT2_EEEDpOT3_', symObjAddr: 0xD8F0, symBinAddr: 0x10001AD60, symSize: 0x30 }
  - { offsetInCU: 0x1EAB6, offset: 0x56BAF, size: 0x8, addend: 0x0, symName: '__ZNSt3__112__tuple_implINS_15__tuple_indicesIJLm0EEEEJZN12PossibleGrid12analyzeMovesERK4GridE3$_0EEC2B7v160006IJLm0EEJS7_EJEJEJS7_EEENS1_IJXspT_EEEENS_13__tuple_typesIJDpT0_EEENS1_IJXspT1_EEEENSB_IJDpT2_EEEDpOT3_', symObjAddr: 0xD920, symBinAddr: 0x10001AD90, symSize: 0x30 }
  - { offsetInCU: 0x1EB4A, offset: 0x56C43, size: 0x8, addend: 0x0, symName: '__ZNSt3__112__tuple_leafILm0EZN12PossibleGrid12analyzeMovesERK4GridE3$_0Lb0EEC2B7v160006IS5_vEEOT_', symObjAddr: 0xD950, symBinAddr: 0x10001ADC0, symSize: 0x40 }
  - { offsetInCU: 0x1EB91, offset: 0x56C8A, size: 0x8, addend: 0x0, symName: '__ZNSt3__122__deferred_assoc_stateIvNS_12__async_funcIZN12PossibleGrid12analyzeMovesERK4GridE3$_0JEEEEC1EOS7_', symObjAddr: 0xD990, symBinAddr: 0x10001AE00, symSize: 0x30 }
  - { offsetInCU: 0x1EC39, offset: 0x56D32, size: 0x8, addend: 0x0, symName: '__ZNSt3__110unique_ptrINS_22__deferred_assoc_stateIvNS_12__async_funcIZN12PossibleGrid12analyzeMovesERK4GridE3$_0JEEEEENS_22__release_shared_countEEC1B7v160006ILb1EvEEPS9_', symObjAddr: 0xD9C0, symBinAddr: 0x10001AE30, symSize: 0x30 }
  - { offsetInCU: 0x1EC7B, offset: 0x56D74, size: 0x8, addend: 0x0, symName: '__ZNKSt3__110unique_ptrINS_22__deferred_assoc_stateIvNS_12__async_funcIZN12PossibleGrid12analyzeMovesERK4GridE3$_0JEEEEENS_22__release_shared_countEE3getB7v160006Ev', symObjAddr: 0xD9F0, symBinAddr: 0x10001AE60, symSize: 0x20 }
  - { offsetInCU: 0x1EC9F, offset: 0x56D98, size: 0x8, addend: 0x0, symName: '__ZNSt3__110unique_ptrINS_22__deferred_assoc_stateIvNS_12__async_funcIZN12PossibleGrid12analyzeMovesERK4GridE3$_0JEEEEENS_22__release_shared_countEED1B7v160006Ev', symObjAddr: 0xDA10, symBinAddr: 0x10001AE80, symSize: 0x20 }
  - { offsetInCU: 0x1ECC8, offset: 0x56DC1, size: 0x8, addend: 0x0, symName: '__ZNSt3__122__deferred_assoc_stateIvNS_12__async_funcIZN12PossibleGrid12analyzeMovesERK4GridE3$_0JEEEEC2EOS7_', symObjAddr: 0xDA30, symBinAddr: 0x10001AEA0, symSize: 0x80 }
  - { offsetInCU: 0x1ED02, offset: 0x56DFB, size: 0x8, addend: 0x0, symName: __ZNSt3__117__assoc_sub_state14__set_deferredB7v160006Ev, symObjAddr: 0xDAB0, symBinAddr: 0x10001AF20, symSize: 0x20 }
  - { offsetInCU: 0x1ED26, offset: 0x56E1F, size: 0x8, addend: 0x0, symName: '__ZNSt3__122__deferred_assoc_stateIvNS_12__async_funcIZN12PossibleGrid12analyzeMovesERK4GridE3$_0JEEEED1Ev', symObjAddr: 0xDAD0, symBinAddr: 0x10001AF40, symSize: 0x20 }
  - { offsetInCU: 0x1ED52, offset: 0x56E4B, size: 0x8, addend: 0x0, symName: '__ZNSt3__122__deferred_assoc_stateIvNS_12__async_funcIZN12PossibleGrid12analyzeMovesERK4GridE3$_0JEEEED0Ev', symObjAddr: 0xDAF0, symBinAddr: 0x10001AF60, symSize: 0x30 }
  - { offsetInCU: 0x1ED7E, offset: 0x56E77, size: 0x8, addend: 0x0, symName: '__ZNSt3__122__deferred_assoc_stateIvNS_12__async_funcIZN12PossibleGrid12analyzeMovesERK4GridE3$_0JEEEE9__executeEv', symObjAddr: 0xDB20, symBinAddr: 0x10001AF90, symSize: 0xC0 }
  - { offsetInCU: 0x1EDA5, offset: 0x56E9E, size: 0x8, addend: 0x0, symName: '__ZNSt3__122__deferred_assoc_stateIvNS_12__async_funcIZN12PossibleGrid12analyzeMovesERK4GridE3$_0JEEEED2Ev', symObjAddr: 0xDBE0, symBinAddr: 0x10001B050, symSize: 0x20 }
  - { offsetInCU: 0x1EDD1, offset: 0x56ECA, size: 0x8, addend: 0x0, symName: '__ZNSt3__110unique_ptrINS_22__deferred_assoc_stateIvNS_12__async_funcIZN12PossibleGrid12analyzeMovesERK4GridE3$_0JEEEEENS_22__release_shared_countEEC2B7v160006ILb1EvEEPS9_', symObjAddr: 0xDC00, symBinAddr: 0x10001B070, symSize: 0x40 }
  - { offsetInCU: 0x1EE13, offset: 0x56F0C, size: 0x8, addend: 0x0, symName: '__ZNSt3__117__compressed_pairIPNS_22__deferred_assoc_stateIvNS_12__async_funcIZN12PossibleGrid12analyzeMovesERK4GridE3$_0JEEEEENS_22__release_shared_countEEC1B7v160006IRSA_NS_16__value_init_tagEEEOT_OT0_', symObjAddr: 0xDC40, symBinAddr: 0x10001B0B0, symSize: 0x30 }
  - { offsetInCU: 0x1EE6A, offset: 0x56F63, size: 0x8, addend: 0x0, symName: '__ZNSt3__117__compressed_pairIPNS_22__deferred_assoc_stateIvNS_12__async_funcIZN12PossibleGrid12analyzeMovesERK4GridE3$_0JEEEEENS_22__release_shared_countEEC2B7v160006IRSA_NS_16__value_init_tagEEEOT_OT0_', symObjAddr: 0xDC70, symBinAddr: 0x10001B0E0, symSize: 0x40 }
  - { offsetInCU: 0x1EEC1, offset: 0x56FBA, size: 0x8, addend: 0x0, symName: '__ZNSt3__122__compressed_pair_elemIPNS_22__deferred_assoc_stateIvNS_12__async_funcIZN12PossibleGrid12analyzeMovesERK4GridE3$_0JEEEEELi0ELb0EEC2B7v160006IRSA_vEEOT_', symObjAddr: 0xDCB0, symBinAddr: 0x10001B120, symSize: 0x20 }
  - { offsetInCU: 0x1EF02, offset: 0x56FFB, size: 0x8, addend: 0x0, symName: '__ZNKSt3__117__compressed_pairIPNS_22__deferred_assoc_stateIvNS_12__async_funcIZN12PossibleGrid12analyzeMovesERK4GridE3$_0JEEEEENS_22__release_shared_countEE5firstB7v160006Ev', symObjAddr: 0xDCD0, symBinAddr: 0x10001B140, symSize: 0x20 }
  - { offsetInCU: 0x1EF26, offset: 0x5701F, size: 0x8, addend: 0x0, symName: '__ZNKSt3__122__compressed_pair_elemIPNS_22__deferred_assoc_stateIvNS_12__async_funcIZN12PossibleGrid12analyzeMovesERK4GridE3$_0JEEEEELi0ELb0EE5__getB7v160006Ev', symObjAddr: 0xDCF0, symBinAddr: 0x10001B160, symSize: 0x10 }
  - { offsetInCU: 0x1EF4A, offset: 0x57043, size: 0x8, addend: 0x0, symName: '__ZNSt3__110unique_ptrINS_22__deferred_assoc_stateIvNS_12__async_funcIZN12PossibleGrid12analyzeMovesERK4GridE3$_0JEEEEENS_22__release_shared_countEED2B7v160006Ev', symObjAddr: 0xDD00, symBinAddr: 0x10001B170, symSize: 0x20 }
  - { offsetInCU: 0x1EF73, offset: 0x5706C, size: 0x8, addend: 0x0, symName: '__ZNSt3__110unique_ptrINS_22__deferred_assoc_stateIvNS_12__async_funcIZN12PossibleGrid12analyzeMovesERK4GridE3$_0JEEEEENS_22__release_shared_countEE5resetB7v160006EPS9_', symObjAddr: 0xDD20, symBinAddr: 0x10001B190, symSize: 0x70 }
  - { offsetInCU: 0x1EFB5, offset: 0x570AE, size: 0x8, addend: 0x0, symName: '__ZNSt3__117__compressed_pairIPNS_22__deferred_assoc_stateIvNS_12__async_funcIZN12PossibleGrid12analyzeMovesERK4GridE3$_0JEEEEENS_22__release_shared_countEE5firstB7v160006Ev', symObjAddr: 0xDD90, symBinAddr: 0x10001B200, symSize: 0x20 }
  - { offsetInCU: 0x1EFD9, offset: 0x570D2, size: 0x8, addend: 0x0, symName: '__ZNSt3__117__compressed_pairIPNS_22__deferred_assoc_stateIvNS_12__async_funcIZN12PossibleGrid12analyzeMovesERK4GridE3$_0JEEEEENS_22__release_shared_countEE6secondB7v160006Ev', symObjAddr: 0xDDB0, symBinAddr: 0x10001B220, symSize: 0x20 }
  - { offsetInCU: 0x1EFFD, offset: 0x570F6, size: 0x8, addend: 0x0, symName: '__ZNSt3__122__compressed_pair_elemIPNS_22__deferred_assoc_stateIvNS_12__async_funcIZN12PossibleGrid12analyzeMovesERK4GridE3$_0JEEEEELi0ELb0EE5__getB7v160006Ev', symObjAddr: 0xDDD0, symBinAddr: 0x10001B240, symSize: 0x10 }
  - { offsetInCU: 0x1F021, offset: 0x5711A, size: 0x8, addend: 0x0, symName: __ZNSt3__16futureIvEC2B7v160006Ev, symObjAddr: 0xDDE0, symBinAddr: 0x10001B250, symSize: 0x20 }
  - { offsetInCU: 0x1F04A, offset: 0x57143, size: 0x8, addend: 0x0, symName: __ZNSt3__16vectorINS_6futureIvEENS_9allocatorIS2_EEE9__end_capB7v160006Ev, symObjAddr: 0xDE00, symBinAddr: 0x10001B270, symSize: 0x20 }
  - { offsetInCU: 0x1F06E, offset: 0x57167, size: 0x8, addend: 0x0, symName: __ZNSt3__16vectorINS_6futureIvEENS_9allocatorIS2_EEE22__construct_one_at_endB7v160006IJS2_EEEvDpOT_, symObjAddr: 0xDE20, symBinAddr: 0x10001B290, symSize: 0x90 }
  - { offsetInCU: 0x1F0BB, offset: 0x571B4, size: 0x8, addend: 0x0, symName: __ZNSt3__16vectorINS_6futureIvEENS_9allocatorIS2_EEE21__push_back_slow_pathIS2_EEvOT_, symObjAddr: 0xDEB0, symBinAddr: 0x10001B320, symSize: 0xD0 }
  - { offsetInCU: 0x1F118, offset: 0x57211, size: 0x8, addend: 0x0, symName: __ZNSt3__117__compressed_pairIPNS_6futureIvEENS_9allocatorIS2_EEE5firstB7v160006Ev, symObjAddr: 0xDF80, symBinAddr: 0x10001B3F0, symSize: 0x20 }
  - { offsetInCU: 0x1F13C, offset: 0x57235, size: 0x8, addend: 0x0, symName: __ZNSt3__122__compressed_pair_elemIPNS_6futureIvEELi0ELb0EE5__getB7v160006Ev, symObjAddr: 0xDFA0, symBinAddr: 0x10001B410, symSize: 0x10 }
  - { offsetInCU: 0x1F179, offset: 0x57272, size: 0x8, addend: 0x0, symName: __ZNSt3__16vectorINS_6futureIvEENS_9allocatorIS2_EEE21_ConstructTransactionC1B7v160006ERS5_m, symObjAddr: 0xDFB0, symBinAddr: 0x10001B420, symSize: 0x30 }
  - { offsetInCU: 0x1F1C0, offset: 0x572B9, size: 0x8, addend: 0x0, symName: __ZNSt3__116allocator_traitsINS_9allocatorINS_6futureIvEEEEE9constructB7v160006IS3_JS3_EvEEvRS4_PT_DpOT0_, symObjAddr: 0xDFE0, symBinAddr: 0x10001B450, symSize: 0x30 }
  - { offsetInCU: 0x1F217, offset: 0x57310, size: 0x8, addend: 0x0, symName: __ZNSt3__16vectorINS_6futureIvEENS_9allocatorIS2_EEE21_ConstructTransactionD1B7v160006Ev, symObjAddr: 0xE010, symBinAddr: 0x10001B480, symSize: 0x20 }
  - { offsetInCU: 0x1F240, offset: 0x57339, size: 0x8, addend: 0x0, symName: __ZNSt3__16vectorINS_6futureIvEENS_9allocatorIS2_EEE21_ConstructTransactionC2B7v160006ERS5_m, symObjAddr: 0xE030, symBinAddr: 0x10001B4A0, symSize: 0x40 }
  - { offsetInCU: 0x1F287, offset: 0x57380, size: 0x8, addend: 0x0, symName: __ZNSt3__19allocatorINS_6futureIvEEE9constructB7v160006IS2_JS2_EEEvPT_DpOT0_, symObjAddr: 0xE070, symBinAddr: 0x10001B4E0, symSize: 0x30 }
  - { offsetInCU: 0x1F2DB, offset: 0x573D4, size: 0x8, addend: 0x0, symName: __ZNSt3__16futureIvEC1B7v160006EOS1_, symObjAddr: 0xE0A0, symBinAddr: 0x10001B510, symSize: 0x30 }
  - { offsetInCU: 0x1F313, offset: 0x5740C, size: 0x8, addend: 0x0, symName: __ZNSt3__16futureIvEC2B7v160006EOS1_, symObjAddr: 0xE0D0, symBinAddr: 0x10001B540, symSize: 0x30 }
  - { offsetInCU: 0x1F34B, offset: 0x57444, size: 0x8, addend: 0x0, symName: __ZNSt3__16vectorINS_6futureIvEENS_9allocatorIS2_EEE21_ConstructTransactionD2B7v160006Ev, symObjAddr: 0xE100, symBinAddr: 0x10001B570, symSize: 0x20 }
  - { offsetInCU: 0x1F374, offset: 0x5746D, size: 0x8, addend: 0x0, symName: __ZNKSt3__16vectorINS_6futureIvEENS_9allocatorIS2_EEE11__recommendB7v160006Em, symObjAddr: 0xE120, symBinAddr: 0x10001B590, symSize: 0xA0 }
  - { offsetInCU: 0x1F3C8, offset: 0x574C1, size: 0x8, addend: 0x0, symName: __ZNSt3__114__split_bufferINS_6futureIvEERNS_9allocatorIS2_EEEC1EmmS5_, symObjAddr: 0xE1C0, symBinAddr: 0x10001B630, symSize: 0x40 }
  - { offsetInCU: 0x1F41D, offset: 0x57516, size: 0x8, addend: 0x0, symName: __ZNSt3__114__split_bufferINS_6futureIvEERNS_9allocatorIS2_EEED1Ev, symObjAddr: 0xE330, symBinAddr: 0x10001B7A0, symSize: 0x20 }
  - { offsetInCU: 0x1F448, offset: 0x57541, size: 0x8, addend: 0x0, symName: __ZNKSt3__16vectorINS_6futureIvEENS_9allocatorIS2_EEE8max_sizeEv, symObjAddr: 0xE350, symBinAddr: 0x10001B7C0, symSize: 0x60 }
  - { offsetInCU: 0x1F46F, offset: 0x57568, size: 0x8, addend: 0x0, symName: __ZNKSt3__16vectorINS_6futureIvEENS_9allocatorIS2_EEE20__throw_length_errorB7v160006Ev, symObjAddr: 0xE3B0, symBinAddr: 0x10001B820, symSize: 0x20 }
  - { offsetInCU: 0x1F49D, offset: 0x57596, size: 0x8, addend: 0x0, symName: __ZNSt3__116allocator_traitsINS_9allocatorINS_6futureIvEEEEE8max_sizeB7v160006IS4_vEEmRKS4_, symObjAddr: 0xE3D0, symBinAddr: 0x10001B840, symSize: 0x20 }
  - { offsetInCU: 0x1F4CB, offset: 0x575C4, size: 0x8, addend: 0x0, symName: __ZNKSt3__16vectorINS_6futureIvEENS_9allocatorIS2_EEE7__allocB7v160006Ev, symObjAddr: 0xE3F0, symBinAddr: 0x10001B860, symSize: 0x20 }
  - { offsetInCU: 0x1F4EF, offset: 0x575E8, size: 0x8, addend: 0x0, symName: __ZNKSt3__19allocatorINS_6futureIvEEE8max_sizeB7v160006Ev, symObjAddr: 0xE410, symBinAddr: 0x10001B880, symSize: 0x20 }
  - { offsetInCU: 0x1F513, offset: 0x5760C, size: 0x8, addend: 0x0, symName: __ZNKSt3__117__compressed_pairIPNS_6futureIvEENS_9allocatorIS2_EEE6secondB7v160006Ev, symObjAddr: 0xE430, symBinAddr: 0x10001B8A0, symSize: 0x20 }
  - { offsetInCU: 0x1F537, offset: 0x57630, size: 0x8, addend: 0x0, symName: __ZNKSt3__122__compressed_pair_elemINS_9allocatorINS_6futureIvEEEELi1ELb1EE5__getB7v160006Ev, symObjAddr: 0xE450, symBinAddr: 0x10001B8C0, symSize: 0x10 }
  - { offsetInCU: 0x1F55B, offset: 0x57654, size: 0x8, addend: 0x0, symName: __ZNSt3__114__split_bufferINS_6futureIvEERNS_9allocatorIS2_EEEC2EmmS5_, symObjAddr: 0xE460, symBinAddr: 0x10001B8D0, symSize: 0xD0 }
  - { offsetInCU: 0x1F5CE, offset: 0x576C7, size: 0x8, addend: 0x0, symName: __ZNSt3__117__compressed_pairIPNS_6futureIvEERNS_9allocatorIS2_EEEC1B7v160006IDnS6_EEOT_OT0_, symObjAddr: 0xE530, symBinAddr: 0x10001B9A0, symSize: 0x30 }
  - { offsetInCU: 0x1F625, offset: 0x5771E, size: 0x8, addend: 0x0, symName: __ZNSt3__114__split_bufferINS_6futureIvEERNS_9allocatorIS2_EEE7__allocB7v160006Ev, symObjAddr: 0xE5A0, symBinAddr: 0x10001BA10, symSize: 0x20 }
  - { offsetInCU: 0x1F649, offset: 0x57742, size: 0x8, addend: 0x0, symName: __ZNSt3__114__split_bufferINS_6futureIvEERNS_9allocatorIS2_EEE9__end_capB7v160006Ev, symObjAddr: 0xE5C0, symBinAddr: 0x10001BA30, symSize: 0x20 }
  - { offsetInCU: 0x1F66D, offset: 0x57766, size: 0x8, addend: 0x0, symName: __ZNSt3__117__compressed_pairIPNS_6futureIvEERNS_9allocatorIS2_EEEC2B7v160006IDnS6_EEOT_OT0_, symObjAddr: 0xE5E0, symBinAddr: 0x10001BA50, symSize: 0x40 }
  - { offsetInCU: 0x1F6C4, offset: 0x577BD, size: 0x8, addend: 0x0, symName: __ZNSt3__122__compressed_pair_elemIRNS_9allocatorINS_6futureIvEEEELi1ELb0EEC2B7v160006IS5_vEEOT_, symObjAddr: 0xE620, symBinAddr: 0x10001BA90, symSize: 0x20 }
  - { offsetInCU: 0x1F705, offset: 0x577FE, size: 0x8, addend: 0x0, symName: __ZNSt3__19allocatorINS_6futureIvEEE8allocateB7v160006Em, symObjAddr: 0xE640, symBinAddr: 0x10001BAB0, symSize: 0x50 }
  - { offsetInCU: 0x1F737, offset: 0x57830, size: 0x8, addend: 0x0, symName: __ZNSt3__117__compressed_pairIPNS_6futureIvEERNS_9allocatorIS2_EEE6secondB7v160006Ev, symObjAddr: 0xE690, symBinAddr: 0x10001BB00, symSize: 0x20 }
  - { offsetInCU: 0x1F75B, offset: 0x57854, size: 0x8, addend: 0x0, symName: __ZNSt3__122__compressed_pair_elemIRNS_9allocatorINS_6futureIvEEEELi1ELb0EE5__getB7v160006Ev, symObjAddr: 0xE6B0, symBinAddr: 0x10001BB20, symSize: 0x20 }
  - { offsetInCU: 0x1F77F, offset: 0x57878, size: 0x8, addend: 0x0, symName: __ZNSt3__117__compressed_pairIPNS_6futureIvEERNS_9allocatorIS2_EEE5firstB7v160006Ev, symObjAddr: 0xE6D0, symBinAddr: 0x10001BB40, symSize: 0x20 }
  - { offsetInCU: 0x1F7A3, offset: 0x5789C, size: 0x8, addend: 0x0, symName: __ZNSt3__116reverse_iteratorIPNS_6futureIvEEEC1B7v160006ES3_, symObjAddr: 0xE870, symBinAddr: 0x10001BCE0, symSize: 0x30 }
  - { offsetInCU: 0x1F7DA, offset: 0x578D3, size: 0x8, addend: 0x0, symName: __ZNKSt3__116reverse_iteratorIPNS_6futureIvEEE4baseB7v160006Ev, symObjAddr: 0xE8A0, symBinAddr: 0x10001BD10, symSize: 0x20 }
  - { offsetInCU: 0x1F7FE, offset: 0x578F7, size: 0x8, addend: 0x0, symName: __ZNKSt3__16vectorINS_6futureIvEENS_9allocatorIS2_EEE14__annotate_newB7v160006Em, symObjAddr: 0xE900, symBinAddr: 0x10001BD70, symSize: 0xB0 }
  - { offsetInCU: 0x1F831, offset: 0x5792A, size: 0x8, addend: 0x0, symName: __ZNSt3__129_AllocatorDestroyRangeReverseINS_9allocatorINS_6futureIvEEEENS_16reverse_iteratorIPS3_EEEC1B7v160006ERS4_RS7_SA_, symObjAddr: 0xEA20, symBinAddr: 0x10001BE90, symSize: 0x40 }
  - { offsetInCU: 0x1F887, offset: 0x57980, size: 0x8, addend: 0x0, symName: __ZNKSt3__116reverse_iteratorIPNS_6futureIvEEEdeB7v160006Ev, symObjAddr: 0xEAC0, symBinAddr: 0x10001BF30, symSize: 0x30 }
  - { offsetInCU: 0x1F8B9, offset: 0x579B2, size: 0x8, addend: 0x0, symName: __ZNSt3__116reverse_iteratorIPNS_6futureIvEEEppB7v160006Ev, symObjAddr: 0xEAF0, symBinAddr: 0x10001BF60, symSize: 0x20 }
  - { offsetInCU: 0x1F8DD, offset: 0x579D6, size: 0x8, addend: 0x0, symName: __ZNSt3__128__exception_guard_exceptionsINS_29_AllocatorDestroyRangeReverseINS_9allocatorINS_6futureIvEEEENS_16reverse_iteratorIPS4_EEEEE10__completeB7v160006Ev, symObjAddr: 0xEB10, symBinAddr: 0x10001BF80, symSize: 0x20 }
  - { offsetInCU: 0x1F901, offset: 0x579FA, size: 0x8, addend: 0x0, symName: __ZNSt3__128__exception_guard_exceptionsINS_29_AllocatorDestroyRangeReverseINS_9allocatorINS_6futureIvEEEENS_16reverse_iteratorIPS4_EEEEED1B7v160006Ev, symObjAddr: 0xEB30, symBinAddr: 0x10001BFA0, symSize: 0x20 }
  - { offsetInCU: 0x1F92A, offset: 0x57A23, size: 0x8, addend: 0x0, symName: __ZNSt3__128__exception_guard_exceptionsINS_29_AllocatorDestroyRangeReverseINS_9allocatorINS_6futureIvEEEENS_16reverse_iteratorIPS4_EEEEEC1B7v160006ES9_, symObjAddr: 0xEB50, symBinAddr: 0x10001BFC0, symSize: 0x40 }
  - { offsetInCU: 0x1F961, offset: 0x57A5A, size: 0x8, addend: 0x0, symName: __ZNSt3__128__exception_guard_exceptionsINS_29_AllocatorDestroyRangeReverseINS_9allocatorINS_6futureIvEEEENS_16reverse_iteratorIPS4_EEEEEC2B7v160006ES9_, symObjAddr: 0xEB90, symBinAddr: 0x10001C000, symSize: 0x30 }
  - { offsetInCU: 0x1F998, offset: 0x57A91, size: 0x8, addend: 0x0, symName: __ZNSt3__129_AllocatorDestroyRangeReverseINS_9allocatorINS_6futureIvEEEENS_16reverse_iteratorIPS3_EEEC2B7v160006ERS4_RS7_SA_, symObjAddr: 0xEBC0, symBinAddr: 0x10001C030, symSize: 0x40 }
  - { offsetInCU: 0x1F9F3, offset: 0x57AEC, size: 0x8, addend: 0x0, symName: __ZNSt3__119__to_address_helperINS_16reverse_iteratorIPNS_6futureIvEEEEvE6__callB7v160006ERKS5_, symObjAddr: 0xEC00, symBinAddr: 0x10001C070, symSize: 0x40 }
  - { offsetInCU: 0x1FA16, offset: 0x57B0F, size: 0x8, addend: 0x0, symName: __ZNKSt3__116reverse_iteratorIPNS_6futureIvEEEptB7v160006Ev, symObjAddr: 0xEC40, symBinAddr: 0x10001C0B0, symSize: 0x20 }
  - { offsetInCU: 0x1FA3A, offset: 0x57B33, size: 0x8, addend: 0x0, symName: __ZNSt3__128__exception_guard_exceptionsINS_29_AllocatorDestroyRangeReverseINS_9allocatorINS_6futureIvEEEENS_16reverse_iteratorIPS4_EEEEED2B7v160006Ev, symObjAddr: 0xEC60, symBinAddr: 0x10001C0D0, symSize: 0x40 }
  - { offsetInCU: 0x1FA63, offset: 0x57B5C, size: 0x8, addend: 0x0, symName: __ZNKSt3__129_AllocatorDestroyRangeReverseINS_9allocatorINS_6futureIvEEEENS_16reverse_iteratorIPS3_EEEclB7v160006Ev, symObjAddr: 0xECA0, symBinAddr: 0x10001C110, symSize: 0xF0 }
  - { offsetInCU: 0x1FA88, offset: 0x57B81, size: 0x8, addend: 0x0, symName: __ZNSt3__116reverse_iteratorINS0_IPNS_6futureIvEEEEEC1B7v160006ES4_, symObjAddr: 0xEE00, symBinAddr: 0x10001C270, symSize: 0x30 }
  - { offsetInCU: 0x1FABF, offset: 0x57BB8, size: 0x8, addend: 0x0, symName: __ZNSt3__116reverse_iteratorINS0_IPNS_6futureIvEEEEEppB7v160006Ev, symObjAddr: 0xEEA0, symBinAddr: 0x10001C310, symSize: 0x30 }
  - { offsetInCU: 0x1FAE3, offset: 0x57BDC, size: 0x8, addend: 0x0, symName: __ZNKSt3__116reverse_iteratorINS0_IPNS_6futureIvEEEEE4baseB7v160006Ev, symObjAddr: 0xEED0, symBinAddr: 0x10001C340, symSize: 0x20 }
  - { offsetInCU: 0x1FB0C, offset: 0x57C05, size: 0x8, addend: 0x0, symName: __ZNSt3__119__to_address_helperINS_16reverse_iteratorINS1_IPNS_6futureIvEEEEEEvE6__callB7v160006ERKS6_, symObjAddr: 0xEEF0, symBinAddr: 0x10001C360, symSize: 0x40 }
  - { offsetInCU: 0x1FB2F, offset: 0x57C28, size: 0x8, addend: 0x0, symName: __ZNKSt3__116reverse_iteratorINS0_IPNS_6futureIvEEEEEptB7v160006Ev, symObjAddr: 0xEF30, symBinAddr: 0x10001C3A0, symSize: 0x20 }
  - { offsetInCU: 0x1FB53, offset: 0x57C4C, size: 0x8, addend: 0x0, symName: __ZNKSt3__116reverse_iteratorINS0_IPNS_6futureIvEEEEEdeB7v160006Ev, symObjAddr: 0xEF50, symBinAddr: 0x10001C3C0, symSize: 0x40 }
  - { offsetInCU: 0x1FB85, offset: 0x57C7E, size: 0x8, addend: 0x0, symName: __ZNSt3__116reverse_iteratorIPNS_6futureIvEEEmmB7v160006Ev, symObjAddr: 0xEF90, symBinAddr: 0x10001C400, symSize: 0x20 }
  - { offsetInCU: 0x1FBA9, offset: 0x57CA2, size: 0x8, addend: 0x0, symName: __ZNSt3__116reverse_iteratorINS0_IPNS_6futureIvEEEEEC2B7v160006ES4_, symObjAddr: 0xEFB0, symBinAddr: 0x10001C420, symSize: 0x40 }
  - { offsetInCU: 0x1FBE0, offset: 0x57CD9, size: 0x8, addend: 0x0, symName: __ZNSt3__116reverse_iteratorIPNS_6futureIvEEEC2B7v160006ES3_, symObjAddr: 0xEFF0, symBinAddr: 0x10001C460, symSize: 0x30 }
  - { offsetInCU: 0x1FC17, offset: 0x57D10, size: 0x8, addend: 0x0, symName: __ZNSt3__114__split_bufferINS_6futureIvEERNS_9allocatorIS2_EEED2Ev, symObjAddr: 0xF020, symBinAddr: 0x10001C490, symSize: 0x70 }
  - { offsetInCU: 0x1FC42, offset: 0x57D3B, size: 0x8, addend: 0x0, symName: __ZNSt3__114__split_bufferINS_6futureIvEERNS_9allocatorIS2_EEE5clearB7v160006Ev, symObjAddr: 0xF090, symBinAddr: 0x10001C500, symSize: 0x20 }
  - { offsetInCU: 0x1FC66, offset: 0x57D5F, size: 0x8, addend: 0x0, symName: __ZNKSt3__114__split_bufferINS_6futureIvEERNS_9allocatorIS2_EEE8capacityB7v160006Ev, symObjAddr: 0xF0B0, symBinAddr: 0x10001C520, symSize: 0x30 }
  - { offsetInCU: 0x1FC8A, offset: 0x57D83, size: 0x8, addend: 0x0, symName: __ZNSt3__114__split_bufferINS_6futureIvEERNS_9allocatorIS2_EEE17__destruct_at_endB7v160006EPS2_, symObjAddr: 0xF0E0, symBinAddr: 0x10001C550, symSize: 0x30 }
  - { offsetInCU: 0x1FCBC, offset: 0x57DB5, size: 0x8, addend: 0x0, symName: __ZNSt3__114__split_bufferINS_6futureIvEERNS_9allocatorIS2_EEE17__destruct_at_endB7v160006EPS2_NS_17integral_constantIbLb0EEE, symObjAddr: 0xF110, symBinAddr: 0x10001C580, symSize: 0x80 }
  - { offsetInCU: 0x1FCFC, offset: 0x57DF5, size: 0x8, addend: 0x0, symName: __ZNKSt3__114__split_bufferINS_6futureIvEERNS_9allocatorIS2_EEE9__end_capB7v160006Ev, symObjAddr: 0xF190, symBinAddr: 0x10001C600, symSize: 0x20 }
  - { offsetInCU: 0x1FD20, offset: 0x57E19, size: 0x8, addend: 0x0, symName: __ZNKSt3__117__compressed_pairIPNS_6futureIvEERNS_9allocatorIS2_EEE5firstB7v160006Ev, symObjAddr: 0xF1B0, symBinAddr: 0x10001C620, symSize: 0x20 }
  - { offsetInCU: 0x1FD44, offset: 0x57E3D, size: 0x8, addend: 0x0, symName: __ZNSt3__16vectorINS_6futureIvEENS_9allocatorIS2_EEE11__make_iterB7v160006EPS2_, symObjAddr: 0xF1D0, symBinAddr: 0x10001C640, symSize: 0x30 }
  - { offsetInCU: 0x1FD77, offset: 0x57E70, size: 0x8, addend: 0x0, symName: __ZNSt3__111__wrap_iterIPNS_6futureIvEEEC1B7v160006EPKvS3_, symObjAddr: 0xF200, symBinAddr: 0x10001C670, symSize: 0x30 }
  - { offsetInCU: 0x1FDBC, offset: 0x57EB5, size: 0x8, addend: 0x0, symName: __ZNSt3__111__wrap_iterIPNS_6futureIvEEEC2B7v160006EPKvS3_, symObjAddr: 0xF230, symBinAddr: 0x10001C6A0, symSize: 0x20 }
  - { offsetInCU: 0x1FE01, offset: 0x57EFA, size: 0x8, addend: 0x0, symName: __ZNSt3__16vectorINS_4pairI8PositioniEENS_9allocatorIS3_EEEC2B7v160006Ev, symObjAddr: 0xF250, symBinAddr: 0x10001C6C0, symSize: 0x60 }
  - { offsetInCU: 0x1FE2A, offset: 0x57F23, size: 0x8, addend: 0x0, symName: __ZNSt3__117__compressed_pairIPNS_4pairI8PositioniEENS_9allocatorIS3_EEEC1B7v160006IDnNS_18__default_init_tagEEEOT_OT0_, symObjAddr: 0xF2B0, symBinAddr: 0x10001C720, symSize: 0x30 }
  - { offsetInCU: 0x1FE81, offset: 0x57F7A, size: 0x8, addend: 0x0, symName: __ZNSt3__117__compressed_pairIPNS_4pairI8PositioniEENS_9allocatorIS3_EEEC2B7v160006IDnNS_18__default_init_tagEEEOT_OT0_, symObjAddr: 0xF2F0, symBinAddr: 0x10001C760, symSize: 0x40 }
  - { offsetInCU: 0x1FED8, offset: 0x57FD1, size: 0x8, addend: 0x0, symName: __ZNSt3__122__compressed_pair_elemIPNS_4pairI8PositioniEELi0ELb0EEC2B7v160006IDnvEEOT_, symObjAddr: 0xF330, symBinAddr: 0x10001C7A0, symSize: 0x20 }
  - { offsetInCU: 0x1FF19, offset: 0x58012, size: 0x8, addend: 0x0, symName: __ZNSt3__122__compressed_pair_elemINS_9allocatorINS_4pairI8PositioniEEEELi1ELb1EEC2B7v160006ENS_18__default_init_tagE, symObjAddr: 0xF350, symBinAddr: 0x10001C7C0, symSize: 0x20 }
  - { offsetInCU: 0x1FF4D, offset: 0x58046, size: 0x8, addend: 0x0, symName: __ZNSt3__19allocatorINS_4pairI8PositioniEEEC2B7v160006Ev, symObjAddr: 0xF370, symBinAddr: 0x10001C7E0, symSize: 0x20 }
  - { offsetInCU: 0x1FF76, offset: 0x5806F, size: 0x8, addend: 0x0, symName: __ZNSt3__116__non_trivial_ifILb1ENS_9allocatorINS_4pairI8PositioniEEEEEC2B7v160006Ev, symObjAddr: 0xF390, symBinAddr: 0x10001C800, symSize: 0x10 }
  - { offsetInCU: 0x1FF9F, offset: 0x58098, size: 0x8, addend: 0x0, symName: __ZNSt3__16vectorINS_4pairI8PositioniEENS_9allocatorIS3_EEE9__end_capB7v160006Ev, symObjAddr: 0xF940, symBinAddr: 0x10001C890, symSize: 0x20 }
  - { offsetInCU: 0x1FFC3, offset: 0x580BC, size: 0x8, addend: 0x0, symName: __ZNSt3__16vectorINS_4pairI8PositioniEENS_9allocatorIS3_EEE18__construct_at_endINS_11__wrap_iterIPS3_EELi0EEEvT_SB_m, symObjAddr: 0xF9B0, symBinAddr: 0x10001C900, symSize: 0xA0 }
  - { offsetInCU: 0x20035, offset: 0x5812E, size: 0x8, addend: 0x0, symName: __ZNSt3__16vectorINS_4pairI8PositioniEENS_9allocatorIS3_EEE12__move_rangeEPS3_S7_S7_, symObjAddr: 0xFA50, symBinAddr: 0x10001C9A0, symSize: 0x130 }
  - { offsetInCU: 0x200F4, offset: 0x581ED, size: 0x8, addend: 0x0, symName: __ZNKSt3__16vectorINS_4pairI8PositioniEENS_9allocatorIS3_EEE11__recommendB7v160006Em, symObjAddr: 0xFBD0, symBinAddr: 0x10001CB20, symSize: 0xA0 }
  - { offsetInCU: 0x20148, offset: 0x58241, size: 0x8, addend: 0x0, symName: __ZNSt3__114__split_bufferINS_4pairI8PositioniEERNS_9allocatorIS3_EEEC1EmmS6_, symObjAddr: 0xFC70, symBinAddr: 0x10001CBC0, symSize: 0x40 }
  - { offsetInCU: 0x2019D, offset: 0x58296, size: 0x8, addend: 0x0, symName: __ZNSt3__114__split_bufferINS_4pairI8PositioniEERNS_9allocatorIS3_EEE18__construct_at_endINS_11__wrap_iterIPS3_EEEENS_9enable_ifIXsr27__is_cpp17_forward_iteratorIT_EE5valueEvE4typeESD_SD_, symObjAddr: 0xFCB0, symBinAddr: 0x10001CC00, symSize: 0xF0 }
  - { offsetInCU: 0x201F8, offset: 0x582F1, size: 0x8, addend: 0x0, symName: __ZNSt3__114__split_bufferINS_4pairI8PositioniEERNS_9allocatorIS3_EEED1Ev, symObjAddr: 0xFF10, symBinAddr: 0x10001CE60, symSize: 0x20 }
  - { offsetInCU: 0x20223, offset: 0x5831C, size: 0x8, addend: 0x0, symName: __ZNKSt3__111__wrap_iterIPKNS_4pairI8PositioniEEE4baseB7v160006Ev, symObjAddr: 0xFF30, symBinAddr: 0x10001CE80, symSize: 0x20 }
  - { offsetInCU: 0x20247, offset: 0x58340, size: 0x8, addend: 0x0, symName: __ZNSt3__117__compressed_pairIPNS_4pairI8PositioniEENS_9allocatorIS3_EEE5firstB7v160006Ev, symObjAddr: 0xFFE0, symBinAddr: 0x10001CF10, symSize: 0x20 }
  - { offsetInCU: 0x2026B, offset: 0x58364, size: 0x8, addend: 0x0, symName: __ZNSt3__122__compressed_pair_elemIPNS_4pairI8PositioniEELi0ELb0EE5__getB7v160006Ev, symObjAddr: 0x10000, symBinAddr: 0x10001CF30, symSize: 0x10 }
  - { offsetInCU: 0x2028F, offset: 0x58388, size: 0x8, addend: 0x0, symName: __ZNSt3__111__wrap_iterIPNS_4pairI8PositioniEEEpLB7v160006El, symObjAddr: 0x10040, symBinAddr: 0x10001CF70, symSize: 0x20 }
  - { offsetInCU: 0x202DA, offset: 0x583D3, size: 0x8, addend: 0x0, symName: __ZNSt3__16vectorINS_4pairI8PositioniEENS_9allocatorIS3_EEE21_ConstructTransactionC1B7v160006ERS6_m, symObjAddr: 0x10060, symBinAddr: 0x10001CF90, symSize: 0x30 }
  - { offsetInCU: 0x20321, offset: 0x5841A, size: 0x8, addend: 0x0, symName: __ZNSt3__16vectorINS_4pairI8PositioniEENS_9allocatorIS3_EEE21_ConstructTransactionD1B7v160006Ev, symObjAddr: 0x101B0, symBinAddr: 0x10001D0E0, symSize: 0x20 }
  - { offsetInCU: 0x2034A, offset: 0x58443, size: 0x8, addend: 0x0, symName: __ZNSt3__16vectorINS_4pairI8PositioniEENS_9allocatorIS3_EEE21_ConstructTransactionC2B7v160006ERS6_m, symObjAddr: 0x101D0, symBinAddr: 0x10001D100, symSize: 0x40 }
  - { offsetInCU: 0x20391, offset: 0x5848A, size: 0x8, addend: 0x0, symName: __ZNSt3__129_AllocatorDestroyRangeReverseINS_9allocatorINS_4pairI8PositioniEEEEPS4_EC1B7v160006ERS5_RS6_S9_, symObjAddr: 0x10270, symBinAddr: 0x10001D1A0, symSize: 0x40 }
  - { offsetInCU: 0x203E7, offset: 0x584E0, size: 0x8, addend: 0x0, symName: __ZNSt3__116allocator_traitsINS_9allocatorINS_4pairI8PositioniEEEEE9constructB7v160006IS4_JRS4_EvEEvRS5_PT_DpOT0_, symObjAddr: 0x102E0, symBinAddr: 0x10001D1E0, symSize: 0x30 }
  - { offsetInCU: 0x2043E, offset: 0x58537, size: 0x8, addend: 0x0, symName: __ZNSt3__128__exception_guard_exceptionsINS_29_AllocatorDestroyRangeReverseINS_9allocatorINS_4pairI8PositioniEEEEPS5_EEE10__completeB7v160006Ev, symObjAddr: 0x10350, symBinAddr: 0x10001D210, symSize: 0x20 }
  - { offsetInCU: 0x20462, offset: 0x5855B, size: 0x8, addend: 0x0, symName: __ZNSt3__128__exception_guard_exceptionsINS_29_AllocatorDestroyRangeReverseINS_9allocatorINS_4pairI8PositioniEEEEPS5_EEED1B7v160006Ev, symObjAddr: 0x10370, symBinAddr: 0x10001D230, symSize: 0x20 }
  - { offsetInCU: 0x2048B, offset: 0x58584, size: 0x8, addend: 0x0, symName: __ZNSt3__128__exception_guard_exceptionsINS_29_AllocatorDestroyRangeReverseINS_9allocatorINS_4pairI8PositioniEEEEPS5_EEEC1B7v160006ES8_, symObjAddr: 0x10390, symBinAddr: 0x10001D250, symSize: 0x40 }
  - { offsetInCU: 0x204C2, offset: 0x585BB, size: 0x8, addend: 0x0, symName: __ZNSt3__128__exception_guard_exceptionsINS_29_AllocatorDestroyRangeReverseINS_9allocatorINS_4pairI8PositioniEEEEPS5_EEEC2B7v160006ES8_, symObjAddr: 0x103D0, symBinAddr: 0x10001D290, symSize: 0x30 }
  - { offsetInCU: 0x204F9, offset: 0x585F2, size: 0x8, addend: 0x0, symName: __ZNSt3__129_AllocatorDestroyRangeReverseINS_9allocatorINS_4pairI8PositioniEEEEPS4_EC2B7v160006ERS5_RS6_S9_, symObjAddr: 0x10400, symBinAddr: 0x10001D2C0, symSize: 0x40 }
  - { offsetInCU: 0x2054F, offset: 0x58648, size: 0x8, addend: 0x0, symName: __ZNSt3__19allocatorINS_4pairI8PositioniEEE9constructB7v160006IS3_JRS3_EEEvPT_DpOT0_, symObjAddr: 0x10480, symBinAddr: 0x10001D300, symSize: 0x30 }
  - { offsetInCU: 0x205A3, offset: 0x5869C, size: 0x8, addend: 0x0, symName: __ZNSt3__128__exception_guard_exceptionsINS_29_AllocatorDestroyRangeReverseINS_9allocatorINS_4pairI8PositioniEEEEPS5_EEED2B7v160006Ev, symObjAddr: 0x104B0, symBinAddr: 0x10001D330, symSize: 0x40 }
  - { offsetInCU: 0x205CC, offset: 0x586C5, size: 0x8, addend: 0x0, symName: __ZNKSt3__129_AllocatorDestroyRangeReverseINS_9allocatorINS_4pairI8PositioniEEEEPS4_EclB7v160006Ev, symObjAddr: 0x104F0, symBinAddr: 0x10001D370, symSize: 0x60 }
  - { offsetInCU: 0x205F0, offset: 0x586E9, size: 0x8, addend: 0x0, symName: __ZNSt3__116reverse_iteratorIPNS_4pairI8PositioniEEEC1B7v160006ES4_, symObjAddr: 0x105C0, symBinAddr: 0x10001D440, symSize: 0x30 }
  - { offsetInCU: 0x20627, offset: 0x58720, size: 0x8, addend: 0x0, symName: __ZNSt3__116reverse_iteratorIPNS_4pairI8PositioniEEEppB7v160006Ev, symObjAddr: 0x10650, symBinAddr: 0x10001D4D0, symSize: 0x20 }
  - { offsetInCU: 0x2064B, offset: 0x58744, size: 0x8, addend: 0x0, symName: __ZNKSt3__116reverse_iteratorIPNS_4pairI8PositioniEEE4baseB7v160006Ev, symObjAddr: 0x10670, symBinAddr: 0x10001D4F0, symSize: 0x20 }
  - { offsetInCU: 0x20674, offset: 0x5876D, size: 0x8, addend: 0x0, symName: __ZNSt3__119__to_address_helperINS_16reverse_iteratorIPNS_4pairI8PositioniEEEEvE6__callB7v160006ERKS6_, symObjAddr: 0x10690, symBinAddr: 0x10001D510, symSize: 0x40 }
  - { offsetInCU: 0x20697, offset: 0x58790, size: 0x8, addend: 0x0, symName: __ZNKSt3__116reverse_iteratorIPNS_4pairI8PositioniEEEptB7v160006Ev, symObjAddr: 0x106D0, symBinAddr: 0x10001D550, symSize: 0x20 }
  - { offsetInCU: 0x206BB, offset: 0x587B4, size: 0x8, addend: 0x0, symName: __ZNKSt3__116reverse_iteratorIPNS_4pairI8PositioniEEEdeB7v160006Ev, symObjAddr: 0x106F0, symBinAddr: 0x10001D570, symSize: 0x30 }
  - { offsetInCU: 0x206ED, offset: 0x587E6, size: 0x8, addend: 0x0, symName: __ZNSt3__116reverse_iteratorIPNS_4pairI8PositioniEEEC2B7v160006ES4_, symObjAddr: 0x10720, symBinAddr: 0x10001D5A0, symSize: 0x30 }
  - { offsetInCU: 0x20724, offset: 0x5881D, size: 0x8, addend: 0x0, symName: __ZNSt3__16vectorINS_4pairI8PositioniEENS_9allocatorIS3_EEE21_ConstructTransactionD2B7v160006Ev, symObjAddr: 0x10750, symBinAddr: 0x10001D5D0, symSize: 0x20 }
  - { offsetInCU: 0x2074D, offset: 0x58846, size: 0x8, addend: 0x0, symName: __ZNSt3__116allocator_traitsINS_9allocatorINS_4pairI8PositioniEEEEE9constructB7v160006IS4_JS4_EvEEvRS5_PT_DpOT0_, symObjAddr: 0x10770, symBinAddr: 0x10001D5F0, symSize: 0x30 }
  - { offsetInCU: 0x207A4, offset: 0x5889D, size: 0x8, addend: 0x0, symName: __ZNSt3__19allocatorINS_4pairI8PositioniEEE9constructB7v160006IS3_JS3_EEEvPT_DpOT0_, symObjAddr: 0x107E0, symBinAddr: 0x10001D660, symSize: 0x30 }
  - { offsetInCU: 0x2081B, offset: 0x58914, size: 0x8, addend: 0x0, symName: __ZNKSt3__120__move_backward_loopINS_17_ClassicAlgPolicyEEclB7v160006IPNS_4pairI8PositioniEES7_S7_EENS4_IT_T1_EES8_T0_S9_, symObjAddr: 0x10990, symBinAddr: 0x10001D810, symSize: 0x90 }
  - { offsetInCU: 0x208A0, offset: 0x58999, size: 0x8, addend: 0x0, symName: __ZNSt3__18_IterOpsINS_17_ClassicAlgPolicyEE4nextB7v160006IPNS_4pairI8PositioniEEEET_S8_S8_, symObjAddr: 0x10AE0, symBinAddr: 0x10001D960, symSize: 0x20 }
  - { offsetInCU: 0x208D7, offset: 0x589D0, size: 0x8, addend: 0x0, symName: __ZNSt3__18_IterOpsINS_17_ClassicAlgPolicyEE11__iter_moveB7v160006IRPNS_4pairI8PositioniEEEENS_9enable_ifIXsr12is_referenceIDTdeclsr3stdE7declvalIRT_EEEEE5valueEDTclsr3stdE4movedeclsr3stdE7declvalISB_EEEEE4typeEOSA_, symObjAddr: 0x10B00, symBinAddr: 0x10001D980, symSize: 0x20 }
  - { offsetInCU: 0x20903, offset: 0x589FC, size: 0x8, addend: 0x0, symName: __ZNSt3__14pairI8PositioniEaSB7v160006EOS2_, symObjAddr: 0x10B20, symBinAddr: 0x10001D9A0, symSize: 0x30 }
  - { offsetInCU: 0x20936, offset: 0x58A2F, size: 0x8, addend: 0x0, symName: __ZNSt3__18_IterOpsINS_17_ClassicAlgPolicyEE25__validate_iter_referenceB7v160006IRPNS_4pairI8PositioniEEEEvv, symObjAddr: 0x10B50, symBinAddr: 0x10001D9D0, symSize: 0x10 }
  - { offsetInCU: 0x20954, offset: 0x58A4D, size: 0x8, addend: 0x0, symName: __ZNSt3__118__unwrap_iter_implIPNS_4pairI8PositioniEELb1EE8__unwrapB7v160006ES4_, symObjAddr: 0x10B60, symBinAddr: 0x10001D9E0, symSize: 0x20 }
  - { offsetInCU: 0x2097C, offset: 0x58A75, size: 0x8, addend: 0x0, symName: __ZNSt3__14pairIPNS0_I8PositioniEES3_EC1B7v160006IS3_S3_LPv0EEEOT_OT0_, symObjAddr: 0x10B80, symBinAddr: 0x10001DA00, symSize: 0x30 }
  - { offsetInCU: 0x209D9, offset: 0x58AD2, size: 0x8, addend: 0x0, symName: __ZNSt3__14pairIPNS0_I8PositioniEES3_EC2B7v160006IS3_S3_LPv0EEEOT_OT0_, symObjAddr: 0x10BB0, symBinAddr: 0x10001DA30, symSize: 0x30 }
  - { offsetInCU: 0x20A36, offset: 0x58B2F, size: 0x8, addend: 0x0, symName: __ZNSt3__118__unwrap_iter_implIPNS_4pairI8PositioniEELb1EE8__rewrapB7v160006ES4_S4_, symObjAddr: 0x10BE0, symBinAddr: 0x10001DA60, symSize: 0x60 }
  - { offsetInCU: 0x20A67, offset: 0x58B60, size: 0x8, addend: 0x0, symName: __ZNKSt3__111__copy_loopINS_17_ClassicAlgPolicyEEclB7v160006IPNS_4pairI8PositioniEES7_S7_EENS4_IT_T1_EES8_T0_S9_, symObjAddr: 0x10E10, symBinAddr: 0x10001DC90, symSize: 0x80 }
  - { offsetInCU: 0x20AD0, offset: 0x58BC9, size: 0x8, addend: 0x0, symName: __ZNSt3__118__unwrap_iter_implINS_11__wrap_iterIPNS_4pairI8PositioniEEEELb1EE8__unwrapB7v160006ES6_, symObjAddr: 0x10F30, symBinAddr: 0x10001DDB0, symSize: 0x20 }
  - { offsetInCU: 0x20AF8, offset: 0x58BF1, size: 0x8, addend: 0x0, symName: __ZNSt3__119__to_address_helperINS_11__wrap_iterIPNS_4pairI8PositioniEEEEvE6__callB7v160006ERKS6_, symObjAddr: 0x10F70, symBinAddr: 0x10001DDF0, symSize: 0x30 }
  - { offsetInCU: 0x20B1B, offset: 0x58C14, size: 0x8, addend: 0x0, symName: __ZNSt3__114pointer_traitsINS_11__wrap_iterIPNS_4pairI8PositioniEEEEE10to_addressB7v160006ES6_, symObjAddr: 0x10FA0, symBinAddr: 0x10001DE20, symSize: 0x30 }
  - { offsetInCU: 0x20B3F, offset: 0x58C38, size: 0x8, addend: 0x0, symName: __ZNSt3__14pairI8PositioniEaSB7v160006ERKS2_, symObjAddr: 0x10FD0, symBinAddr: 0x10001DE50, symSize: 0x30 }
  - { offsetInCU: 0x20B90, offset: 0x58C89, size: 0x8, addend: 0x0, symName: __ZNSt3__14pairINS_11__wrap_iterIPNS0_I8PositioniEEEES4_EC1B7v160006IS5_S4_LPv0EEEOT_OT0_, symObjAddr: 0x11000, symBinAddr: 0x10001DE80, symSize: 0x30 }
  - { offsetInCU: 0x20BED, offset: 0x58CE6, size: 0x8, addend: 0x0, symName: __ZNSt3__14pairINS_11__wrap_iterIPNS0_I8PositioniEEEES4_EC2B7v160006IS5_S4_LPv0EEEOT_OT0_, symObjAddr: 0x11030, symBinAddr: 0x10001DEB0, symSize: 0x30 }
  - { offsetInCU: 0x20C4A, offset: 0x58D43, size: 0x8, addend: 0x0, symName: __ZNSt3__118__unwrap_iter_implINS_11__wrap_iterIPNS_4pairI8PositioniEEEELb1EE8__rewrapB7v160006ES6_S5_, symObjAddr: 0x110B0, symBinAddr: 0x10001DF30, symSize: 0x50 }
  - { offsetInCU: 0x20C7B, offset: 0x58D74, size: 0x8, addend: 0x0, symName: __ZNKSt3__111__wrap_iterIPNS_4pairI8PositioniEEEplB7v160006El, symObjAddr: 0x11100, symBinAddr: 0x10001DF80, symSize: 0x40 }
  - { offsetInCU: 0x20CBB, offset: 0x58DB4, size: 0x8, addend: 0x0, symName: __ZNKSt3__16vectorINS_4pairI8PositioniEENS_9allocatorIS3_EEE8max_sizeEv, symObjAddr: 0x11140, symBinAddr: 0x10001DFC0, symSize: 0x60 }
  - { offsetInCU: 0x20CE2, offset: 0x58DDB, size: 0x8, addend: 0x0, symName: __ZNKSt3__16vectorINS_4pairI8PositioniEENS_9allocatorIS3_EEE20__throw_length_errorB7v160006Ev, symObjAddr: 0x111A0, symBinAddr: 0x10001E020, symSize: 0x20 }
  - { offsetInCU: 0x20D10, offset: 0x58E09, size: 0x8, addend: 0x0, symName: __ZNSt3__116allocator_traitsINS_9allocatorINS_4pairI8PositioniEEEEE8max_sizeB7v160006IS5_vEEmRKS5_, symObjAddr: 0x111C0, symBinAddr: 0x10001E040, symSize: 0x20 }
  - { offsetInCU: 0x20D3E, offset: 0x58E37, size: 0x8, addend: 0x0, symName: __ZNKSt3__16vectorINS_4pairI8PositioniEENS_9allocatorIS3_EEE7__allocB7v160006Ev, symObjAddr: 0x111E0, symBinAddr: 0x10001E060, symSize: 0x20 }
  - { offsetInCU: 0x20D62, offset: 0x58E5B, size: 0x8, addend: 0x0, symName: __ZNKSt3__19allocatorINS_4pairI8PositioniEEE8max_sizeB7v160006Ev, symObjAddr: 0x11200, symBinAddr: 0x10001E080, symSize: 0x20 }
  - { offsetInCU: 0x20D86, offset: 0x58E7F, size: 0x8, addend: 0x0, symName: __ZNKSt3__117__compressed_pairIPNS_4pairI8PositioniEENS_9allocatorIS3_EEE6secondB7v160006Ev, symObjAddr: 0x11220, symBinAddr: 0x10001E0A0, symSize: 0x20 }
  - { offsetInCU: 0x20DAA, offset: 0x58EA3, size: 0x8, addend: 0x0, symName: __ZNKSt3__122__compressed_pair_elemINS_9allocatorINS_4pairI8PositioniEEEELi1ELb1EE5__getB7v160006Ev, symObjAddr: 0x11240, symBinAddr: 0x10001E0C0, symSize: 0x10 }
  - { offsetInCU: 0x20DCE, offset: 0x58EC7, size: 0x8, addend: 0x0, symName: __ZNSt3__114__split_bufferINS_4pairI8PositioniEERNS_9allocatorIS3_EEEC2EmmS6_, symObjAddr: 0x11250, symBinAddr: 0x10001E0D0, symSize: 0xC0 }
  - { offsetInCU: 0x20E41, offset: 0x58F3A, size: 0x8, addend: 0x0, symName: __ZNSt3__117__compressed_pairIPNS_4pairI8PositioniEERNS_9allocatorIS3_EEEC1B7v160006IDnS7_EEOT_OT0_, symObjAddr: 0x11310, symBinAddr: 0x10001E190, symSize: 0x30 }
  - { offsetInCU: 0x20E98, offset: 0x58F91, size: 0x8, addend: 0x0, symName: __ZNSt3__114__split_bufferINS_4pairI8PositioniEERNS_9allocatorIS3_EEE7__allocB7v160006Ev, symObjAddr: 0x11380, symBinAddr: 0x10001E200, symSize: 0x20 }
  - { offsetInCU: 0x20EBC, offset: 0x58FB5, size: 0x8, addend: 0x0, symName: __ZNSt3__114__split_bufferINS_4pairI8PositioniEERNS_9allocatorIS3_EEE9__end_capB7v160006Ev, symObjAddr: 0x113A0, symBinAddr: 0x10001E220, symSize: 0x20 }
  - { offsetInCU: 0x20EE0, offset: 0x58FD9, size: 0x8, addend: 0x0, symName: __ZNSt3__117__compressed_pairIPNS_4pairI8PositioniEERNS_9allocatorIS3_EEEC2B7v160006IDnS7_EEOT_OT0_, symObjAddr: 0x113C0, symBinAddr: 0x10001E240, symSize: 0x40 }
  - { offsetInCU: 0x20F37, offset: 0x59030, size: 0x8, addend: 0x0, symName: __ZNSt3__122__compressed_pair_elemIRNS_9allocatorINS_4pairI8PositioniEEEELi1ELb0EEC2B7v160006IS6_vEEOT_, symObjAddr: 0x11400, symBinAddr: 0x10001E280, symSize: 0x20 }
  - { offsetInCU: 0x20F78, offset: 0x59071, size: 0x8, addend: 0x0, symName: __ZNSt3__19allocatorINS_4pairI8PositioniEEE8allocateB7v160006Em, symObjAddr: 0x11420, symBinAddr: 0x10001E2A0, symSize: 0x50 }
  - { offsetInCU: 0x20FAA, offset: 0x590A3, size: 0x8, addend: 0x0, symName: __ZNSt3__117__compressed_pairIPNS_4pairI8PositioniEERNS_9allocatorIS3_EEE6secondB7v160006Ev, symObjAddr: 0x11470, symBinAddr: 0x10001E2F0, symSize: 0x20 }
  - { offsetInCU: 0x20FCE, offset: 0x590C7, size: 0x8, addend: 0x0, symName: __ZNSt3__122__compressed_pair_elemIRNS_9allocatorINS_4pairI8PositioniEEEELi1ELb0EE5__getB7v160006Ev, symObjAddr: 0x11490, symBinAddr: 0x10001E310, symSize: 0x20 }
  - { offsetInCU: 0x20FF2, offset: 0x590EB, size: 0x8, addend: 0x0, symName: __ZNSt3__117__compressed_pairIPNS_4pairI8PositioniEERNS_9allocatorIS3_EEE5firstB7v160006Ev, symObjAddr: 0x114B0, symBinAddr: 0x10001E330, symSize: 0x20 }
  - { offsetInCU: 0x21020, offset: 0x59119, size: 0x8, addend: 0x0, symName: __ZNSt3__114__split_bufferINS_4pairI8PositioniEERNS_9allocatorIS3_EEE21_ConstructTransactionC1B7v160006EPPS3_m, symObjAddr: 0x114D0, symBinAddr: 0x10001E350, symSize: 0x30 }
  - { offsetInCU: 0x21065, offset: 0x5915E, size: 0x8, addend: 0x0, symName: __ZNSt3__114__split_bufferINS_4pairI8PositioniEERNS_9allocatorIS3_EEE21_ConstructTransactionD1B7v160006Ev, symObjAddr: 0x11500, symBinAddr: 0x10001E380, symSize: 0x20 }
  - { offsetInCU: 0x2108E, offset: 0x59187, size: 0x8, addend: 0x0, symName: __ZNSt3__114__split_bufferINS_4pairI8PositioniEERNS_9allocatorIS3_EEE21_ConstructTransactionC2B7v160006EPPS3_m, symObjAddr: 0x11520, symBinAddr: 0x10001E3A0, symSize: 0x40 }
  - { offsetInCU: 0x210D3, offset: 0x591CC, size: 0x8, addend: 0x0, symName: __ZNSt3__114__split_bufferINS_4pairI8PositioniEERNS_9allocatorIS3_EEE21_ConstructTransactionD2B7v160006Ev, symObjAddr: 0x11560, symBinAddr: 0x10001E3E0, symSize: 0x20 }
  - { offsetInCU: 0x210FC, offset: 0x591F5, size: 0x8, addend: 0x0, symName: __ZNKSt3__16vectorINS_4pairI8PositioniEENS_9allocatorIS3_EEE14__annotate_newB7v160006Em, symObjAddr: 0x11830, symBinAddr: 0x10001E6B0, symSize: 0xA0 }
  - { offsetInCU: 0x2112F, offset: 0x59228, size: 0x8, addend: 0x0, symName: __ZNSt3__129_AllocatorDestroyRangeReverseINS_9allocatorINS_4pairI8PositioniEEEENS_16reverse_iteratorIPS4_EEEC1B7v160006ERS5_RS8_SB_, symObjAddr: 0x11940, symBinAddr: 0x10001E7C0, symSize: 0x40 }
  - { offsetInCU: 0x21185, offset: 0x5927E, size: 0x8, addend: 0x0, symName: __ZNSt3__128__exception_guard_exceptionsINS_29_AllocatorDestroyRangeReverseINS_9allocatorINS_4pairI8PositioniEEEENS_16reverse_iteratorIPS5_EEEEE10__completeB7v160006Ev, symObjAddr: 0x11980, symBinAddr: 0x10001E800, symSize: 0x20 }
  - { offsetInCU: 0x211A9, offset: 0x592A2, size: 0x8, addend: 0x0, symName: __ZNSt3__128__exception_guard_exceptionsINS_29_AllocatorDestroyRangeReverseINS_9allocatorINS_4pairI8PositioniEEEENS_16reverse_iteratorIPS5_EEEEED1B7v160006Ev, symObjAddr: 0x119A0, symBinAddr: 0x10001E820, symSize: 0x20 }
  - { offsetInCU: 0x211D2, offset: 0x592CB, size: 0x8, addend: 0x0, symName: __ZNSt3__128__exception_guard_exceptionsINS_29_AllocatorDestroyRangeReverseINS_9allocatorINS_4pairI8PositioniEEEENS_16reverse_iteratorIPS5_EEEEEC1B7v160006ESA_, symObjAddr: 0x119C0, symBinAddr: 0x10001E840, symSize: 0x40 }
  - { offsetInCU: 0x21209, offset: 0x59302, size: 0x8, addend: 0x0, symName: __ZNSt3__128__exception_guard_exceptionsINS_29_AllocatorDestroyRangeReverseINS_9allocatorINS_4pairI8PositioniEEEENS_16reverse_iteratorIPS5_EEEEEC2B7v160006ESA_, symObjAddr: 0x11A00, symBinAddr: 0x10001E880, symSize: 0x30 }
  - { offsetInCU: 0x21240, offset: 0x59339, size: 0x8, addend: 0x0, symName: __ZNSt3__129_AllocatorDestroyRangeReverseINS_9allocatorINS_4pairI8PositioniEEEENS_16reverse_iteratorIPS4_EEEC2B7v160006ERS5_RS8_SB_, symObjAddr: 0x11A30, symBinAddr: 0x10001E8B0, symSize: 0x40 }
  - { offsetInCU: 0x21296, offset: 0x5938F, size: 0x8, addend: 0x0, symName: __ZNSt3__128__exception_guard_exceptionsINS_29_AllocatorDestroyRangeReverseINS_9allocatorINS_4pairI8PositioniEEEENS_16reverse_iteratorIPS5_EEEEED2B7v160006Ev, symObjAddr: 0x11A70, symBinAddr: 0x10001E8F0, symSize: 0x40 }
  - { offsetInCU: 0x212BF, offset: 0x593B8, size: 0x8, addend: 0x0, symName: __ZNKSt3__129_AllocatorDestroyRangeReverseINS_9allocatorINS_4pairI8PositioniEEEENS_16reverse_iteratorIPS4_EEEclB7v160006Ev, symObjAddr: 0x11AB0, symBinAddr: 0x10001E930, symSize: 0xF0 }
  - { offsetInCU: 0x212E4, offset: 0x593DD, size: 0x8, addend: 0x0, symName: __ZNSt3__116reverse_iteratorINS0_IPNS_4pairI8PositioniEEEEEC1B7v160006ES5_, symObjAddr: 0x11C10, symBinAddr: 0x10001EA90, symSize: 0x30 }
  - { offsetInCU: 0x2131B, offset: 0x59414, size: 0x8, addend: 0x0, symName: __ZNSt3__116reverse_iteratorINS0_IPNS_4pairI8PositioniEEEEEppB7v160006Ev, symObjAddr: 0x11CB0, symBinAddr: 0x10001EB30, symSize: 0x30 }
  - { offsetInCU: 0x2133F, offset: 0x59438, size: 0x8, addend: 0x0, symName: __ZNKSt3__116reverse_iteratorINS0_IPNS_4pairI8PositioniEEEEE4baseB7v160006Ev, symObjAddr: 0x11CE0, symBinAddr: 0x10001EB60, symSize: 0x20 }
  - { offsetInCU: 0x21368, offset: 0x59461, size: 0x8, addend: 0x0, symName: __ZNSt3__119__to_address_helperINS_16reverse_iteratorINS1_IPNS_4pairI8PositioniEEEEEEvE6__callB7v160006ERKS7_, symObjAddr: 0x11D00, symBinAddr: 0x10001EB80, symSize: 0x40 }
  - { offsetInCU: 0x2138B, offset: 0x59484, size: 0x8, addend: 0x0, symName: __ZNKSt3__116reverse_iteratorINS0_IPNS_4pairI8PositioniEEEEEptB7v160006Ev, symObjAddr: 0x11D40, symBinAddr: 0x10001EBC0, symSize: 0x20 }
  - { offsetInCU: 0x213AF, offset: 0x594A8, size: 0x8, addend: 0x0, symName: __ZNKSt3__116reverse_iteratorINS0_IPNS_4pairI8PositioniEEEEEdeB7v160006Ev, symObjAddr: 0x11D60, symBinAddr: 0x10001EBE0, symSize: 0x40 }
  - { offsetInCU: 0x213E1, offset: 0x594DA, size: 0x8, addend: 0x0, symName: __ZNSt3__116reverse_iteratorIPNS_4pairI8PositioniEEEmmB7v160006Ev, symObjAddr: 0x11DA0, symBinAddr: 0x10001EC20, symSize: 0x20 }
  - { offsetInCU: 0x21405, offset: 0x594FE, size: 0x8, addend: 0x0, symName: __ZNSt3__116reverse_iteratorINS0_IPNS_4pairI8PositioniEEEEEC2B7v160006ES5_, symObjAddr: 0x11DC0, symBinAddr: 0x10001EC40, symSize: 0x40 }
  - { offsetInCU: 0x2143C, offset: 0x59535, size: 0x8, addend: 0x0, symName: __ZNSt3__114__split_bufferINS_4pairI8PositioniEERNS_9allocatorIS3_EEED2Ev, symObjAddr: 0x11E00, symBinAddr: 0x10001EC80, symSize: 0x70 }
  - { offsetInCU: 0x21467, offset: 0x59560, size: 0x8, addend: 0x0, symName: __ZNSt3__114__split_bufferINS_4pairI8PositioniEERNS_9allocatorIS3_EEE5clearB7v160006Ev, symObjAddr: 0x11E70, symBinAddr: 0x10001ECF0, symSize: 0x20 }
  - { offsetInCU: 0x2148B, offset: 0x59584, size: 0x8, addend: 0x0, symName: __ZNKSt3__114__split_bufferINS_4pairI8PositioniEERNS_9allocatorIS3_EEE8capacityB7v160006Ev, symObjAddr: 0x11E90, symBinAddr: 0x10001ED10, symSize: 0x40 }
  - { offsetInCU: 0x214AF, offset: 0x595A8, size: 0x8, addend: 0x0, symName: __ZNSt3__114__split_bufferINS_4pairI8PositioniEERNS_9allocatorIS3_EEE17__destruct_at_endB7v160006EPS3_, symObjAddr: 0x11ED0, symBinAddr: 0x10001ED50, symSize: 0x30 }
  - { offsetInCU: 0x214E1, offset: 0x595DA, size: 0x8, addend: 0x0, symName: __ZNSt3__114__split_bufferINS_4pairI8PositioniEERNS_9allocatorIS3_EEE17__destruct_at_endB7v160006EPS3_NS_17integral_constantIbLb0EEE, symObjAddr: 0x11F00, symBinAddr: 0x10001ED80, symSize: 0x80 }
  - { offsetInCU: 0x21521, offset: 0x5961A, size: 0x8, addend: 0x0, symName: __ZNKSt3__114__split_bufferINS_4pairI8PositioniEERNS_9allocatorIS3_EEE9__end_capB7v160006Ev, symObjAddr: 0x11F80, symBinAddr: 0x10001EE00, symSize: 0x20 }
  - { offsetInCU: 0x21545, offset: 0x5963E, size: 0x8, addend: 0x0, symName: __ZNKSt3__117__compressed_pairIPNS_4pairI8PositioniEERNS_9allocatorIS3_EEE5firstB7v160006Ev, symObjAddr: 0x11FA0, symBinAddr: 0x10001EE20, symSize: 0x20 }
  - { offsetInCU: 0x21569, offset: 0x59662, size: 0x8, addend: 0x0, symName: __ZNSt3__111__wrap_iterIPKNS_4pairI8PositioniEEEC2B7v160006IPS3_EERKNS0_IT_EEPNS_9enable_ifIXsr14is_convertibleIS9_S5_EE5valueEvE4typeE, symObjAddr: 0x11FC0, symBinAddr: 0x10001EE40, symSize: 0x40 }
  - { offsetInCU: 0x215B4, offset: 0x596AD, size: 0x8, addend: 0x0, symName: __ZNSt3__16vectorINS_6futureINS0_INS_4pairI8PositioniEENS_9allocatorIS4_EEEEEENS5_IS8_EEEC2B7v160006Ev, symObjAddr: 0x12000, symBinAddr: 0x10001EE80, symSize: 0x60 }
  - { offsetInCU: 0x215DD, offset: 0x596D6, size: 0x8, addend: 0x0, symName: __ZNSt3__117__compressed_pairIPNS_6futureINS_6vectorINS_4pairI8PositioniEENS_9allocatorIS5_EEEEEENS6_IS9_EEEC1B7v160006IDnNS_18__default_init_tagEEEOT_OT0_, symObjAddr: 0x12060, symBinAddr: 0x10001EEE0, symSize: 0x30 }
  - { offsetInCU: 0x21634, offset: 0x5972D, size: 0x8, addend: 0x0, symName: __ZNSt3__117__compressed_pairIPNS_6futureINS_6vectorINS_4pairI8PositioniEENS_9allocatorIS5_EEEEEENS6_IS9_EEEC2B7v160006IDnNS_18__default_init_tagEEEOT_OT0_, symObjAddr: 0x120A0, symBinAddr: 0x10001EF20, symSize: 0x40 }
  - { offsetInCU: 0x2168B, offset: 0x59784, size: 0x8, addend: 0x0, symName: __ZNSt3__122__compressed_pair_elemIPNS_6futureINS_6vectorINS_4pairI8PositioniEENS_9allocatorIS5_EEEEEELi0ELb0EEC2B7v160006IDnvEEOT_, symObjAddr: 0x120E0, symBinAddr: 0x10001EF60, symSize: 0x20 }
  - { offsetInCU: 0x216CC, offset: 0x597C5, size: 0x8, addend: 0x0, symName: __ZNSt3__122__compressed_pair_elemINS_9allocatorINS_6futureINS_6vectorINS_4pairI8PositioniEENS1_IS6_EEEEEEEELi1ELb1EEC2B7v160006ENS_18__default_init_tagE, symObjAddr: 0x12100, symBinAddr: 0x10001EF80, symSize: 0x20 }
  - { offsetInCU: 0x21700, offset: 0x597F9, size: 0x8, addend: 0x0, symName: __ZNSt3__19allocatorINS_6futureINS_6vectorINS_4pairI8PositioniEENS0_IS5_EEEEEEEC2B7v160006Ev, symObjAddr: 0x12120, symBinAddr: 0x10001EFA0, symSize: 0x20 }
  - { offsetInCU: 0x21729, offset: 0x59822, size: 0x8, addend: 0x0, symName: __ZNSt3__116__non_trivial_ifILb1ENS_9allocatorINS_6futureINS_6vectorINS_4pairI8PositioniEENS1_IS6_EEEEEEEEEC2B7v160006Ev, symObjAddr: 0x12140, symBinAddr: 0x10001EFC0, symSize: 0x10 }
  - { offsetInCU: 0x21752, offset: 0x5984B, size: 0x8, addend: 0x0, symName: __ZNSt3__16vectorINS_6futureINS0_INS_4pairI8PositioniEENS_9allocatorIS4_EEEEEENS5_IS8_EEED2B7v160006Ev, symObjAddr: 0x12150, symBinAddr: 0x10001EFD0, symSize: 0x40 }
  - { offsetInCU: 0x2177B, offset: 0x59874, size: 0x8, addend: 0x0, symName: __ZNSt3__16vectorINS_6futureINS0_INS_4pairI8PositioniEENS_9allocatorIS4_EEEEEENS5_IS8_EEE16__destroy_vectorC1ERSA_, symObjAddr: 0x12190, symBinAddr: 0x10001F010, symSize: 0x30 }
  - { offsetInCU: 0x217B3, offset: 0x598AC, size: 0x8, addend: 0x0, symName: __ZNSt3__16vectorINS_6futureINS0_INS_4pairI8PositioniEENS_9allocatorIS4_EEEEEENS5_IS8_EEE16__destroy_vectorclB7v160006Ev, symObjAddr: 0x121C0, symBinAddr: 0x10001F040, symSize: 0x90 }
  - { offsetInCU: 0x217D7, offset: 0x598D0, size: 0x8, addend: 0x0, symName: __ZNSt3__16vectorINS_6futureINS0_INS_4pairI8PositioniEENS_9allocatorIS4_EEEEEENS5_IS8_EEE16__destroy_vectorC2ERSA_, symObjAddr: 0x12250, symBinAddr: 0x10001F0D0, symSize: 0x20 }
  - { offsetInCU: 0x2180F, offset: 0x59908, size: 0x8, addend: 0x0, symName: __ZNKSt3__16vectorINS_6futureINS0_INS_4pairI8PositioniEENS_9allocatorIS4_EEEEEENS5_IS8_EEE17__annotate_deleteB7v160006Ev, symObjAddr: 0x12270, symBinAddr: 0x10001F0F0, symSize: 0xB0 }
  - { offsetInCU: 0x21833, offset: 0x5992C, size: 0x8, addend: 0x0, symName: __ZNSt3__16vectorINS_6futureINS0_INS_4pairI8PositioniEENS_9allocatorIS4_EEEEEENS5_IS8_EEE7__clearB7v160006Ev, symObjAddr: 0x12330, symBinAddr: 0x10001F1B0, symSize: 0x20 }
  - { offsetInCU: 0x21857, offset: 0x59950, size: 0x8, addend: 0x0, symName: __ZNSt3__116allocator_traitsINS_9allocatorINS_6futureINS_6vectorINS_4pairI8PositioniEENS1_IS6_EEEEEEEEE10deallocateB7v160006ERSA_PS9_m, symObjAddr: 0x12350, symBinAddr: 0x10001F1D0, symSize: 0x30 }
  - { offsetInCU: 0x21899, offset: 0x59992, size: 0x8, addend: 0x0, symName: __ZNSt3__16vectorINS_6futureINS0_INS_4pairI8PositioniEENS_9allocatorIS4_EEEEEENS5_IS8_EEE7__allocB7v160006Ev, symObjAddr: 0x12380, symBinAddr: 0x10001F200, symSize: 0x20 }
  - { offsetInCU: 0x218BD, offset: 0x599B6, size: 0x8, addend: 0x0, symName: __ZNKSt3__16vectorINS_6futureINS0_INS_4pairI8PositioniEENS_9allocatorIS4_EEEEEENS5_IS8_EEE8capacityB7v160006Ev, symObjAddr: 0x123A0, symBinAddr: 0x10001F220, symSize: 0x30 }
  - { offsetInCU: 0x218E1, offset: 0x599DA, size: 0x8, addend: 0x0, symName: __ZNKSt3__16vectorINS_6futureINS0_INS_4pairI8PositioniEENS_9allocatorIS4_EEEEEENS5_IS8_EEE31__annotate_contiguous_containerB7v160006EPKvSC_SC_SC_, symObjAddr: 0x123D0, symBinAddr: 0x10001F250, symSize: 0x20 }
  - { offsetInCU: 0x21935, offset: 0x59A2E, size: 0x8, addend: 0x0, symName: __ZNKSt3__16vectorINS_6futureINS0_INS_4pairI8PositioniEENS_9allocatorIS4_EEEEEENS5_IS8_EEE4dataB7v160006Ev, symObjAddr: 0x123F0, symBinAddr: 0x10001F270, symSize: 0x20 }
  - { offsetInCU: 0x21959, offset: 0x59A52, size: 0x8, addend: 0x0, symName: __ZNKSt3__16vectorINS_6futureINS0_INS_4pairI8PositioniEENS_9allocatorIS4_EEEEEENS5_IS8_EEE4sizeB7v160006Ev, symObjAddr: 0x12410, symBinAddr: 0x10001F290, symSize: 0x20 }
  - { offsetInCU: 0x2197D, offset: 0x59A76, size: 0x8, addend: 0x0, symName: __ZNSt3__16vectorINS_6futureINS0_INS_4pairI8PositioniEENS_9allocatorIS4_EEEEEENS5_IS8_EEE22__base_destruct_at_endB7v160006EPS8_, symObjAddr: 0x12440, symBinAddr: 0x10001F2C0, symSize: 0x80 }
  - { offsetInCU: 0x219BF, offset: 0x59AB8, size: 0x8, addend: 0x0, symName: __ZNSt3__116allocator_traitsINS_9allocatorINS_6futureINS_6vectorINS_4pairI8PositioniEENS1_IS6_EEEEEEEEE7destroyB7v160006IS9_vEEvRSA_PT_, symObjAddr: 0x124C0, symBinAddr: 0x10001F340, symSize: 0x30 }
  - { offsetInCU: 0x219FC, offset: 0x59AF5, size: 0x8, addend: 0x0, symName: __ZNSt3__19allocatorINS_6futureINS_6vectorINS_4pairI8PositioniEENS0_IS5_EEEEEEE7destroyB7v160006EPS8_, symObjAddr: 0x124F0, symBinAddr: 0x10001F370, symSize: 0x20 }
  - { offsetInCU: 0x21A2E, offset: 0x59B27, size: 0x8, addend: 0x0, symName: __ZNSt3__19allocatorINS_6futureINS_6vectorINS_4pairI8PositioniEENS0_IS5_EEEEEEE10deallocateB7v160006EPS8_m, symObjAddr: 0x12510, symBinAddr: 0x10001F390, symSize: 0x40 }
  - { offsetInCU: 0x21A6E, offset: 0x59B67, size: 0x8, addend: 0x0, symName: __ZNSt3__117__compressed_pairIPNS_6futureINS_6vectorINS_4pairI8PositioniEENS_9allocatorIS5_EEEEEENS6_IS9_EEE6secondB7v160006Ev, symObjAddr: 0x12550, symBinAddr: 0x10001F3D0, symSize: 0x20 }
  - { offsetInCU: 0x21A92, offset: 0x59B8B, size: 0x8, addend: 0x0, symName: __ZNSt3__122__compressed_pair_elemINS_9allocatorINS_6futureINS_6vectorINS_4pairI8PositioniEENS1_IS6_EEEEEEEELi1ELb1EE5__getB7v160006Ev, symObjAddr: 0x12570, symBinAddr: 0x10001F3F0, symSize: 0x10 }
  - { offsetInCU: 0x21AB6, offset: 0x59BAF, size: 0x8, addend: 0x0, symName: __ZNKSt3__16vectorINS_6futureINS0_INS_4pairI8PositioniEENS_9allocatorIS4_EEEEEENS5_IS8_EEE9__end_capB7v160006Ev, symObjAddr: 0x12580, symBinAddr: 0x10001F400, symSize: 0x20 }
  - { offsetInCU: 0x21ADA, offset: 0x59BD3, size: 0x8, addend: 0x0, symName: __ZNKSt3__117__compressed_pairIPNS_6futureINS_6vectorINS_4pairI8PositioniEENS_9allocatorIS5_EEEEEENS6_IS9_EEE5firstB7v160006Ev, symObjAddr: 0x125A0, symBinAddr: 0x10001F420, symSize: 0x20 }
  - { offsetInCU: 0x21AFE, offset: 0x59BF7, size: 0x8, addend: 0x0, symName: __ZNKSt3__122__compressed_pair_elemIPNS_6futureINS_6vectorINS_4pairI8PositioniEENS_9allocatorIS5_EEEEEELi0ELb0EE5__getB7v160006Ev, symObjAddr: 0x125C0, symBinAddr: 0x10001F440, symSize: 0x10 }
  - { offsetInCU: 0x21B22, offset: 0x59C1B, size: 0x8, addend: 0x0, symName: '__ZNSt3__112__async_funcIZNK12PossibleGrid20identifyUniqueValuesEibE3$_1JEEC1B7v160006EOS2_', symObjAddr: 0x126F0, symBinAddr: 0x10001F570, symSize: 0x30 }
  - { offsetInCU: 0x21B5A, offset: 0x59C53, size: 0x8, addend: 0x0, symName: __ZNSt3__16futureINS_6vectorINS_4pairI8PositioniEENS_9allocatorIS4_EEEEEC1B7v160006Ev, symObjAddr: 0x127E0, symBinAddr: 0x10001F660, symSize: 0x20 }
  - { offsetInCU: 0x21B83, offset: 0x59C7C, size: 0x8, addend: 0x0, symName: '__ZNSt3__119__async_assoc_stateINS_6vectorINS_4pairI8PositioniEENS_9allocatorIS4_EEEENS_12__async_funcIZNK12PossibleGrid20identifyUniqueValuesEibE3$_1JEEEEC1EOSB_', symObjAddr: 0x12800, symBinAddr: 0x10001F680, symSize: 0x30 }
  - { offsetInCU: 0x21C17, offset: 0x59D10, size: 0x8, addend: 0x0, symName: '__ZNSt3__110unique_ptrINS_19__async_assoc_stateINS_6vectorINS_4pairI8PositioniEENS_9allocatorIS5_EEEENS_12__async_funcIZNK12PossibleGrid20identifyUniqueValuesEibE3$_1JEEEEENS_22__release_shared_countEEC1B7v160006ILb1EvEEPSD_', symObjAddr: 0x12830, symBinAddr: 0x10001F6B0, symSize: 0x30 }
  - { offsetInCU: 0x21C59, offset: 0x59D52, size: 0x8, addend: 0x0, symName: '__ZNKSt3__110unique_ptrINS_19__async_assoc_stateINS_6vectorINS_4pairI8PositioniEENS_9allocatorIS5_EEEENS_12__async_funcIZNK12PossibleGrid20identifyUniqueValuesEibE3$_1JEEEEENS_22__release_shared_countEE3getB7v160006Ev', symObjAddr: 0x12860, symBinAddr: 0x10001F6E0, symSize: 0x20 }
  - { offsetInCU: 0x21C87, offset: 0x59D80, size: 0x8, addend: 0x0, symName: '__ZNSt3__16threadC1IMNS_19__async_assoc_stateINS_6vectorINS_4pairI8PositioniEENS_9allocatorIS6_EEEENS_12__async_funcIZNK12PossibleGrid20identifyUniqueValuesEibE3$_1JEEEEEFvvEJPSE_EvEEOT_DpOT0_', symObjAddr: 0x12880, symBinAddr: 0x10001F700, symSize: 0x30 }
  - { offsetInCU: 0x21CE3, offset: 0x59DDC, size: 0x8, addend: 0x0, symName: __ZNSt3__16futureINS_6vectorINS_4pairI8PositioniEENS_9allocatorIS4_EEEEEC1EPNS_13__assoc_stateIS7_EE, symObjAddr: 0x128B0, symBinAddr: 0x10001F730, symSize: 0x30 }
  - { offsetInCU: 0x21D1D, offset: 0x59E16, size: 0x8, addend: 0x0, symName: '__ZNSt3__110unique_ptrINS_19__async_assoc_stateINS_6vectorINS_4pairI8PositioniEENS_9allocatorIS5_EEEENS_12__async_funcIZNK12PossibleGrid20identifyUniqueValuesEibE3$_1JEEEEENS_22__release_shared_countEED1B7v160006Ev', symObjAddr: 0x128E0, symBinAddr: 0x10001F760, symSize: 0x20 }
  - { offsetInCU: 0x21D46, offset: 0x59E3F, size: 0x8, addend: 0x0, symName: '__ZNSt3__119__async_assoc_stateINS_6vectorINS_4pairI8PositioniEENS_9allocatorIS4_EEEENS_12__async_funcIZNK12PossibleGrid20identifyUniqueValuesEibE3$_1JEEEEC2EOSB_', symObjAddr: 0x12900, symBinAddr: 0x10001F780, symSize: 0x70 }
  - { offsetInCU: 0x21D80, offset: 0x59E79, size: 0x8, addend: 0x0, symName: __ZNSt3__113__assoc_stateINS_6vectorINS_4pairI8PositioniEENS_9allocatorIS4_EEEEEC2Ev, symObjAddr: 0x12970, symBinAddr: 0x10001F7F0, symSize: 0x40 }
  - { offsetInCU: 0x21DAC, offset: 0x59EA5, size: 0x8, addend: 0x0, symName: '__ZNSt3__112__async_funcIZNK12PossibleGrid20identifyUniqueValuesEibE3$_1JEEC1B7v160006EOS3_', symObjAddr: 0x129B0, symBinAddr: 0x10001F830, symSize: 0x30 }
  - { offsetInCU: 0x21DE4, offset: 0x59EDD, size: 0x8, addend: 0x0, symName: __ZNSt3__113__assoc_stateINS_6vectorINS_4pairI8PositioniEENS_9allocatorIS4_EEEEED2Ev, symObjAddr: 0x129E0, symBinAddr: 0x10001F860, symSize: 0x20 }
  - { offsetInCU: 0x21E10, offset: 0x59F09, size: 0x8, addend: 0x0, symName: '__ZNSt3__119__async_assoc_stateINS_6vectorINS_4pairI8PositioniEENS_9allocatorIS4_EEEENS_12__async_funcIZNK12PossibleGrid20identifyUniqueValuesEibE3$_1JEEEED1Ev', symObjAddr: 0x12A00, symBinAddr: 0x10001F880, symSize: 0x20 }
  - { offsetInCU: 0x21E3C, offset: 0x59F35, size: 0x8, addend: 0x0, symName: '__ZNSt3__119__async_assoc_stateINS_6vectorINS_4pairI8PositioniEENS_9allocatorIS4_EEEENS_12__async_funcIZNK12PossibleGrid20identifyUniqueValuesEibE3$_1JEEEED0Ev', symObjAddr: 0x12A20, symBinAddr: 0x10001F8A0, symSize: 0x30 }
  - { offsetInCU: 0x21E68, offset: 0x59F61, size: 0x8, addend: 0x0, symName: '__ZNSt3__119__async_assoc_stateINS_6vectorINS_4pairI8PositioniEENS_9allocatorIS4_EEEENS_12__async_funcIZNK12PossibleGrid20identifyUniqueValuesEibE3$_1JEEEE16__on_zero_sharedEv', symObjAddr: 0x12A50, symBinAddr: 0x10001F8D0, symSize: 0x40 }
  - { offsetInCU: 0x21E8F, offset: 0x59F88, size: 0x8, addend: 0x0, symName: '__ZNSt3__119__async_assoc_stateINS_6vectorINS_4pairI8PositioniEENS_9allocatorIS4_EEEENS_12__async_funcIZNK12PossibleGrid20identifyUniqueValuesEibE3$_1JEEEE9__executeEv', symObjAddr: 0x12A90, symBinAddr: 0x10001F910, symSize: 0xE0 }
  - { offsetInCU: 0x21EB6, offset: 0x59FAF, size: 0x8, addend: 0x0, symName: __ZNSt3__113__assoc_stateINS_6vectorINS_4pairI8PositioniEENS_9allocatorIS4_EEEEED1Ev, symObjAddr: 0x12B70, symBinAddr: 0x10001F9F0, symSize: 0x20 }
  - { offsetInCU: 0x21EE2, offset: 0x59FDB, size: 0x8, addend: 0x0, symName: __ZNSt3__113__assoc_stateINS_6vectorINS_4pairI8PositioniEENS_9allocatorIS4_EEEEED0Ev, symObjAddr: 0x12B90, symBinAddr: 0x10001FA10, symSize: 0x30 }
  - { offsetInCU: 0x21F0E, offset: 0x5A007, size: 0x8, addend: 0x0, symName: __ZNSt3__113__assoc_stateINS_6vectorINS_4pairI8PositioniEENS_9allocatorIS4_EEEEE16__on_zero_sharedEv, symObjAddr: 0x12BC0, symBinAddr: 0x10001FA40, symSize: 0x60 }
  - { offsetInCU: 0x21F35, offset: 0x5A02E, size: 0x8, addend: 0x0, symName: '__ZNSt3__112__async_funcIZNK12PossibleGrid20identifyUniqueValuesEibE3$_1JEEC2B7v160006EOS3_', symObjAddr: 0x12C20, symBinAddr: 0x10001FAA0, symSize: 0x40 }
  - { offsetInCU: 0x21F6D, offset: 0x5A066, size: 0x8, addend: 0x0, symName: '__ZNSt3__119__async_assoc_stateINS_6vectorINS_4pairI8PositioniEENS_9allocatorIS4_EEEENS_12__async_funcIZNK12PossibleGrid20identifyUniqueValuesEibE3$_1JEEEED2Ev', symObjAddr: 0x12C60, symBinAddr: 0x10001FAE0, symSize: 0x20 }
  - { offsetInCU: 0x21F99, offset: 0x5A092, size: 0x8, addend: 0x0, symName: __ZNSt3__113__assoc_stateINS_6vectorINS_4pairI8PositioniEENS_9allocatorIS4_EEEEE9set_valueIS7_EEvOT_, symObjAddr: 0x12C80, symBinAddr: 0x10001FB00, symSize: 0xC0 }
  - { offsetInCU: 0x21FE7, offset: 0x5A0E0, size: 0x8, addend: 0x0, symName: '__ZNSt3__112__async_funcIZNK12PossibleGrid20identifyUniqueValuesEibE3$_1JEEclEv', symObjAddr: 0x12D40, symBinAddr: 0x10001FBC0, symSize: 0x30 }
  - { offsetInCU: 0x2200B, offset: 0x5A104, size: 0x8, addend: 0x0, symName: __ZNSt3__111unique_lockINS_5mutexEEC1B7v160006ERS1_, symObjAddr: 0x12D70, symBinAddr: 0x10001FBF0, symSize: 0x30 }
  - { offsetInCU: 0x22042, offset: 0x5A13B, size: 0x8, addend: 0x0, symName: __ZNKSt3__117__assoc_sub_state11__has_valueB7v160006Ev, symObjAddr: 0x12DA0, symBinAddr: 0x10001FC20, symSize: 0x90 }
  - { offsetInCU: 0x22066, offset: 0x5A15F, size: 0x8, addend: 0x0, symName: __ZNSt3__16vectorINS_4pairI8PositioniEENS_9allocatorIS3_EEEC1B7v160006EOS6_, symObjAddr: 0x12EB0, symBinAddr: 0x10001FD30, symSize: 0x30 }
  - { offsetInCU: 0x220A0, offset: 0x5A199, size: 0x8, addend: 0x0, symName: __ZNSt3__111unique_lockINS_5mutexEED1B7v160006Ev, symObjAddr: 0x12EE0, symBinAddr: 0x10001FD60, symSize: 0x20 }
  - { offsetInCU: 0x220C9, offset: 0x5A1C2, size: 0x8, addend: 0x0, symName: __ZNSt3__111unique_lockINS_5mutexEEC2B7v160006ERS1_, symObjAddr: 0x12F00, symBinAddr: 0x10001FD80, symSize: 0x30 }
  - { offsetInCU: 0x22100, offset: 0x5A1F9, size: 0x8, addend: 0x0, symName: __ZNSt13exception_ptrC1B7v160006EDn, symObjAddr: 0x12F60, symBinAddr: 0x10001FDE0, symSize: 0x30 }
  - { offsetInCU: 0x22134, offset: 0x5A22D, size: 0x8, addend: 0x0, symName: __ZNSt13exception_ptrC2B7v160006EDn, symObjAddr: 0x12FC0, symBinAddr: 0x10001FE40, symSize: 0x20 }
  - { offsetInCU: 0x22168, offset: 0x5A261, size: 0x8, addend: 0x0, symName: __ZNSt3__110error_codeC1B7v160006EiRKNS_14error_categoryE, symObjAddr: 0x13020, symBinAddr: 0x10001FEA0, symSize: 0x30 }
  - { offsetInCU: 0x221AF, offset: 0x5A2A8, size: 0x8, addend: 0x0, symName: __ZNSt3__110error_codeC2B7v160006EiRKNS_14error_categoryE, symObjAddr: 0x13050, symBinAddr: 0x10001FED0, symSize: 0x30 }
  - { offsetInCU: 0x221F6, offset: 0x5A2EF, size: 0x8, addend: 0x0, symName: __ZNSt3__16vectorINS_4pairI8PositioniEENS_9allocatorIS3_EEEC2B7v160006EOS6_, symObjAddr: 0x13080, symBinAddr: 0x10001FF00, symSize: 0xE0 }
  - { offsetInCU: 0x22235, offset: 0x5A32E, size: 0x8, addend: 0x0, symName: __ZNSt3__117__compressed_pairIPNS_4pairI8PositioniEENS_9allocatorIS3_EEEC1B7v160006IDnS6_EEOT_OT0_, symObjAddr: 0x13160, symBinAddr: 0x10001FFE0, symSize: 0x30 }
  - { offsetInCU: 0x2228C, offset: 0x5A385, size: 0x8, addend: 0x0, symName: __ZNSt3__117__compressed_pairIPNS_4pairI8PositioniEENS_9allocatorIS3_EEEC2B7v160006IDnS6_EEOT_OT0_, symObjAddr: 0x131A0, symBinAddr: 0x100020020, symSize: 0x40 }
  - { offsetInCU: 0x222E3, offset: 0x5A3DC, size: 0x8, addend: 0x0, symName: __ZNSt3__122__compressed_pair_elemINS_9allocatorINS_4pairI8PositioniEEEELi1ELb1EEC2B7v160006IS5_vEEOT_, symObjAddr: 0x131E0, symBinAddr: 0x100020060, symSize: 0x10 }
  - { offsetInCU: 0x22324, offset: 0x5A41D, size: 0x8, addend: 0x0, symName: __ZNSt3__111unique_lockINS_5mutexEED2B7v160006Ev, symObjAddr: 0x131F0, symBinAddr: 0x100020070, symSize: 0x30 }
  - { offsetInCU: 0x2234D, offset: 0x5A446, size: 0x8, addend: 0x0, symName: '__ZNSt3__112__async_funcIZNK12PossibleGrid20identifyUniqueValuesEibE3$_1JEE9__executeIJEEENS_6vectorINS_4pairI8PositioniEENS_9allocatorIS8_EEEENS_15__tuple_indicesIJXspT_EEEE', symObjAddr: 0x13220, symBinAddr: 0x1000200A0, symSize: 0x40 }
  - { offsetInCU: 0x22382, offset: 0x5A47B, size: 0x8, addend: 0x0, symName: '__ZZNK12PossibleGrid20identifyUniqueValuesEibENK3$_1clEv', symObjAddr: 0x132B0, symBinAddr: 0x100020130, symSize: 0x410 }
  - { offsetInCU: 0x22484, offset: 0x5A57D, size: 0x8, addend: 0x0, symName: __ZNSt3__18multimapIi8PositionNS_4lessIiEENS_9allocatorINS_4pairIKiS1_EEEEEC1B7v160006Ev, symObjAddr: 0x136C0, symBinAddr: 0x100020540, symSize: 0x20 }
  - { offsetInCU: 0x224B2, offset: 0x5A5AB, size: 0x8, addend: 0x0, symName: __ZNSt3__18multimapIi8PositionNS_4lessIiEENS_9allocatorINS_4pairIKiS1_EEEEE7emplaceB7v160006IJRiS1_EEENS_14__map_iteratorINS_15__tree_iteratorINS_12__value_typeIiS1_EEPNS_11__tree_nodeISF_PvEElEEEEDpOT_, symObjAddr: 0x13720, symBinAddr: 0x100020560, symSize: 0x40 }
  - { offsetInCU: 0x22504, offset: 0x5A5FD, size: 0x8, addend: 0x0, symName: __ZNSt3__18multimapIi8PositionNS_4lessIiEENS_9allocatorINS_4pairIKiS1_EEEEE5beginB7v160006Ev, symObjAddr: 0x13790, symBinAddr: 0x1000205A0, symSize: 0x30 }
  - { offsetInCU: 0x22528, offset: 0x5A621, size: 0x8, addend: 0x0, symName: __ZNSt3__18multimapIi8PositionNS_4lessIiEENS_9allocatorINS_4pairIKiS1_EEEEE3endB7v160006Ev, symObjAddr: 0x137F0, symBinAddr: 0x100020600, symSize: 0x30 }
  - { offsetInCU: 0x2254C, offset: 0x5A645, size: 0x8, addend: 0x0, symName: __ZNKSt3__18multimapIi8PositionNS_4lessIiEENS_9allocatorINS_4pairIKiS1_EEEEE5countB7v160006ERS6_, symObjAddr: 0x13820, symBinAddr: 0x100020630, symSize: 0x30 }
  - { offsetInCU: 0x2257F, offset: 0x5A678, size: 0x8, addend: 0x0, symName: __ZNKSt3__114__map_iteratorINS_15__tree_iteratorINS_12__value_typeIi8PositionEEPNS_11__tree_nodeIS4_PvEElEEEptB7v160006Ev, symObjAddr: 0x13850, symBinAddr: 0x100020660, symSize: 0x30 }
  - { offsetInCU: 0x225A3, offset: 0x5A69C, size: 0x8, addend: 0x0, symName: __ZNSt3__16vectorINS_4pairI8PositioniEENS_9allocatorIS3_EEE9push_backB7v160006EOS3_, symObjAddr: 0x13880, symBinAddr: 0x100020690, symSize: 0x60 }
  - { offsetInCU: 0x225D9, offset: 0x5A6D2, size: 0x8, addend: 0x0, symName: __ZNSt3__114__map_iteratorINS_15__tree_iteratorINS_12__value_typeIi8PositionEEPNS_11__tree_nodeIS4_PvEElEEEppB7v160006Ev, symObjAddr: 0x13920, symBinAddr: 0x100020730, symSize: 0x30 }
  - { offsetInCU: 0x225FD, offset: 0x5A6F6, size: 0x8, addend: 0x0, symName: __ZNSt3__18multimapIi8PositionNS_4lessIiEENS_9allocatorINS_4pairIKiS1_EEEEED1B7v160006Ev, symObjAddr: 0x13950, symBinAddr: 0x100020760, symSize: 0x20 }
  - { offsetInCU: 0x22626, offset: 0x5A71F, size: 0x8, addend: 0x0, symName: __ZNSt3__18multimapIi8PositionNS_4lessIiEENS_9allocatorINS_4pairIKiS1_EEEEEC2B7v160006Ev, symObjAddr: 0x13970, symBinAddr: 0x100020780, symSize: 0x30 }
  - { offsetInCU: 0x2264F, offset: 0x5A748, size: 0x8, addend: 0x0, symName: __ZNSt3__119__map_value_compareIiNS_12__value_typeIi8PositionEENS_4lessIiEELb1EEC1B7v160006ES5_, symObjAddr: 0x139A0, symBinAddr: 0x1000207B0, symSize: 0x20 }
  - { offsetInCU: 0x22687, offset: 0x5A780, size: 0x8, addend: 0x0, symName: __ZNSt3__16__treeINS_12__value_typeIi8PositionEENS_19__map_value_compareIiS3_NS_4lessIiEELb1EEENS_9allocatorIS3_EEEC1ERKS7_, symObjAddr: 0x139C0, symBinAddr: 0x1000207D0, symSize: 0x30 }
  - { offsetInCU: 0x226C1, offset: 0x5A7BA, size: 0x8, addend: 0x0, symName: __ZNSt3__119__map_value_compareIiNS_12__value_typeIi8PositionEENS_4lessIiEELb1EEC2B7v160006ES5_, symObjAddr: 0x139F0, symBinAddr: 0x100020800, symSize: 0x10 }
  - { offsetInCU: 0x226F9, offset: 0x5A7F2, size: 0x8, addend: 0x0, symName: __ZNSt3__16__treeINS_12__value_typeIi8PositionEENS_19__map_value_compareIiS3_NS_4lessIiEELb1EEENS_9allocatorIS3_EEEC2ERKS7_, symObjAddr: 0x13A00, symBinAddr: 0x100020810, symSize: 0x80 }
  - { offsetInCU: 0x22733, offset: 0x5A82C, size: 0x8, addend: 0x0, symName: __ZNSt3__117__compressed_pairINS_15__tree_end_nodeIPNS_16__tree_node_baseIPvEEEENS_9allocatorINS_11__tree_nodeINS_12__value_typeIi8PositionEES3_EEEEEC1B7v160006ILb1EvEEv, symObjAddr: 0x13A80, symBinAddr: 0x100020890, symSize: 0x20 }
  - { offsetInCU: 0x22767, offset: 0x5A860, size: 0x8, addend: 0x0, symName: __ZNSt3__117__compressed_pairImNS_19__map_value_compareIiNS_12__value_typeIi8PositionEENS_4lessIiEELb1EEEEC1B7v160006IiRKS7_EEOT_OT0_, symObjAddr: 0x13AA0, symBinAddr: 0x1000208B0, symSize: 0x30 }
  - { offsetInCU: 0x227BE, offset: 0x5A8B7, size: 0x8, addend: 0x0, symName: __ZNSt3__16__treeINS_12__value_typeIi8PositionEENS_19__map_value_compareIiS3_NS_4lessIiEELb1EEENS_9allocatorIS3_EEE10__end_nodeB7v160006Ev, symObjAddr: 0x13AD0, symBinAddr: 0x1000208E0, symSize: 0x30 }
  - { offsetInCU: 0x227E2, offset: 0x5A8DB, size: 0x8, addend: 0x0, symName: __ZNSt3__16__treeINS_12__value_typeIi8PositionEENS_19__map_value_compareIiS3_NS_4lessIiEELb1EEENS_9allocatorIS3_EEE12__begin_nodeB7v160006Ev, symObjAddr: 0x13B00, symBinAddr: 0x100020910, symSize: 0x10 }
  - { offsetInCU: 0x22806, offset: 0x5A8FF, size: 0x8, addend: 0x0, symName: __ZNSt3__117__compressed_pairINS_15__tree_end_nodeIPNS_16__tree_node_baseIPvEEEENS_9allocatorINS_11__tree_nodeINS_12__value_typeIi8PositionEES3_EEEEEC2B7v160006ILb1EvEEv, symObjAddr: 0x13B10, symBinAddr: 0x100020920, symSize: 0x30 }
  - { offsetInCU: 0x2283A, offset: 0x5A933, size: 0x8, addend: 0x0, symName: __ZNSt3__122__compressed_pair_elemINS_15__tree_end_nodeIPNS_16__tree_node_baseIPvEEEELi0ELb0EEC2B7v160006ENS_16__value_init_tagE, symObjAddr: 0x13B40, symBinAddr: 0x100020950, symSize: 0x20 }
  - { offsetInCU: 0x2286E, offset: 0x5A967, size: 0x8, addend: 0x0, symName: __ZNSt3__122__compressed_pair_elemINS_9allocatorINS_11__tree_nodeINS_12__value_typeIi8PositionEEPvEEEELi1ELb1EEC2B7v160006ENS_16__value_init_tagE, symObjAddr: 0x13B60, symBinAddr: 0x100020970, symSize: 0x20 }
  - { offsetInCU: 0x228A2, offset: 0x5A99B, size: 0x8, addend: 0x0, symName: __ZNSt3__115__tree_end_nodeIPNS_16__tree_node_baseIPvEEEC1B7v160006Ev, symObjAddr: 0x13B80, symBinAddr: 0x100020990, symSize: 0x20 }
  - { offsetInCU: 0x228CB, offset: 0x5A9C4, size: 0x8, addend: 0x0, symName: __ZNSt3__115__tree_end_nodeIPNS_16__tree_node_baseIPvEEEC2B7v160006Ev, symObjAddr: 0x13BA0, symBinAddr: 0x1000209B0, symSize: 0x20 }
  - { offsetInCU: 0x228F4, offset: 0x5A9ED, size: 0x8, addend: 0x0, symName: __ZNSt3__19allocatorINS_11__tree_nodeINS_12__value_typeIi8PositionEEPvEEEC2B7v160006Ev, symObjAddr: 0x13BC0, symBinAddr: 0x1000209D0, symSize: 0x20 }
  - { offsetInCU: 0x2291D, offset: 0x5AA16, size: 0x8, addend: 0x0, symName: __ZNSt3__116__non_trivial_ifILb1ENS_9allocatorINS_11__tree_nodeINS_12__value_typeIi8PositionEEPvEEEEEC2B7v160006Ev, symObjAddr: 0x13BE0, symBinAddr: 0x1000209F0, symSize: 0x10 }
  - { offsetInCU: 0x22946, offset: 0x5AA3F, size: 0x8, addend: 0x0, symName: __ZNSt3__117__compressed_pairImNS_19__map_value_compareIiNS_12__value_typeIi8PositionEENS_4lessIiEELb1EEEEC2B7v160006IiRKS7_EEOT_OT0_, symObjAddr: 0x13BF0, symBinAddr: 0x100020A00, symSize: 0x40 }
  - { offsetInCU: 0x2299D, offset: 0x5AA96, size: 0x8, addend: 0x0, symName: __ZNSt3__122__compressed_pair_elemImLi0ELb0EEC2B7v160006IivEEOT_, symObjAddr: 0x13C30, symBinAddr: 0x100020A40, symSize: 0x20 }
  - { offsetInCU: 0x229DE, offset: 0x5AAD7, size: 0x8, addend: 0x0, symName: __ZNSt3__122__compressed_pair_elemINS_19__map_value_compareIiNS_12__value_typeIi8PositionEENS_4lessIiEELb1EEELi1ELb1EEC2B7v160006IRKS7_vEEOT_, symObjAddr: 0x13C50, symBinAddr: 0x100020A60, symSize: 0x10 }
  - { offsetInCU: 0x22A1F, offset: 0x5AB18, size: 0x8, addend: 0x0, symName: __ZNSt3__114pointer_traitsIPNS_15__tree_end_nodeIPNS_16__tree_node_baseIPvEEEEE10pointer_toB7v160006ERS6_, symObjAddr: 0x13C60, symBinAddr: 0x100020A70, symSize: 0x10 }
  - { offsetInCU: 0x22A42, offset: 0x5AB3B, size: 0x8, addend: 0x0, symName: __ZNSt3__117__compressed_pairINS_15__tree_end_nodeIPNS_16__tree_node_baseIPvEEEENS_9allocatorINS_11__tree_nodeINS_12__value_typeIi8PositionEES3_EEEEE5firstB7v160006Ev, symObjAddr: 0x13C70, symBinAddr: 0x100020A80, symSize: 0x20 }
  - { offsetInCU: 0x22A66, offset: 0x5AB5F, size: 0x8, addend: 0x0, symName: __ZNSt3__122__compressed_pair_elemINS_15__tree_end_nodeIPNS_16__tree_node_baseIPvEEEELi0ELb0EE5__getB7v160006Ev, symObjAddr: 0x13C90, symBinAddr: 0x100020AA0, symSize: 0x10 }
  - { offsetInCU: 0x22A8A, offset: 0x5AB83, size: 0x8, addend: 0x0, symName: __ZNSt3__16__treeINS_12__value_typeIi8PositionEENS_19__map_value_compareIiS3_NS_4lessIiEELb1EEENS_9allocatorIS3_EEE15__emplace_multiIJRiS2_EEENS_15__tree_iteratorIS3_PNS_11__tree_nodeIS3_PvEElEEDpOT_, symObjAddr: 0x13CA0, symBinAddr: 0x100020AB0, symSize: 0xF0 }
  - { offsetInCU: 0x22B0D, offset: 0x5AC06, size: 0x8, addend: 0x0, symName: __ZNSt3__114__map_iteratorINS_15__tree_iteratorINS_12__value_typeIi8PositionEEPNS_11__tree_nodeIS4_PvEElEEEC1B7v160006ES9_, symObjAddr: 0x13D90, symBinAddr: 0x100020BA0, symSize: 0x30 }
  - { offsetInCU: 0x22B45, offset: 0x5AC3E, size: 0x8, addend: 0x0, symName: __ZNSt3__16__treeINS_12__value_typeIi8PositionEENS_19__map_value_compareIiS3_NS_4lessIiEELb1EEENS_9allocatorIS3_EEE16__construct_nodeIJRiS2_EEENS_10unique_ptrINS_11__tree_nodeIS3_PvEENS_22__tree_node_destructorINS8_ISG_EEEEEEDpOT_, symObjAddr: 0x13DC0, symBinAddr: 0x100020BD0, symSize: 0x110 }
  - { offsetInCU: 0x22BB9, offset: 0x5ACB2, size: 0x8, addend: 0x0, symName: __ZNSt3__16__treeINS_12__value_typeIi8PositionEENS_19__map_value_compareIiS3_NS_4lessIiEELb1EEENS_9allocatorIS3_EEE16__find_leaf_highERPNS_15__tree_end_nodeIPNS_16__tree_node_baseIPvEEEERKi, symObjAddr: 0x13ED0, symBinAddr: 0x100020CE0, symSize: 0x110 }
  - { offsetInCU: 0x22C0D, offset: 0x5AD06, size: 0x8, addend: 0x0, symName: __ZNSt3__122__tree_key_value_typesINS_12__value_typeIi8PositionEEE9__get_keyB7v160006ERKS3_, symObjAddr: 0x13FE0, symBinAddr: 0x100020DF0, symSize: 0x20 }
  - { offsetInCU: 0x22C31, offset: 0x5AD2A, size: 0x8, addend: 0x0, symName: __ZNKSt3__110unique_ptrINS_11__tree_nodeINS_12__value_typeIi8PositionEEPvEENS_22__tree_node_destructorINS_9allocatorIS6_EEEEEptB7v160006Ev, symObjAddr: 0x14000, symBinAddr: 0x100020E10, symSize: 0x20 }
  - { offsetInCU: 0x22C55, offset: 0x5AD4E, size: 0x8, addend: 0x0, symName: __ZNSt3__16__treeINS_12__value_typeIi8PositionEENS_19__map_value_compareIiS3_NS_4lessIiEELb1EEENS_9allocatorIS3_EEE16__insert_node_atEPNS_15__tree_end_nodeIPNS_16__tree_node_baseIPvEEEERSF_SF_, symObjAddr: 0x14020, symBinAddr: 0x100020E30, symSize: 0xC0 }
  - { offsetInCU: 0x22CA9, offset: 0x5ADA2, size: 0x8, addend: 0x0, symName: __ZNKSt3__110unique_ptrINS_11__tree_nodeINS_12__value_typeIi8PositionEEPvEENS_22__tree_node_destructorINS_9allocatorIS6_EEEEE3getB7v160006Ev, symObjAddr: 0x140E0, symBinAddr: 0x100020EF0, symSize: 0x20 }
  - { offsetInCU: 0x22CCD, offset: 0x5ADC6, size: 0x8, addend: 0x0, symName: __ZNSt3__110unique_ptrINS_11__tree_nodeINS_12__value_typeIi8PositionEEPvEENS_22__tree_node_destructorINS_9allocatorIS6_EEEEE7releaseB7v160006Ev, symObjAddr: 0x14100, symBinAddr: 0x100020F10, symSize: 0x40 }
  - { offsetInCU: 0x22D00, offset: 0x5ADF9, size: 0x8, addend: 0x0, symName: __ZNSt3__115__tree_iteratorINS_12__value_typeIi8PositionEEPNS_11__tree_nodeIS3_PvEElEC1B7v160006ES7_, symObjAddr: 0x14140, symBinAddr: 0x100020F50, symSize: 0x30 }
  - { offsetInCU: 0x22D38, offset: 0x5AE31, size: 0x8, addend: 0x0, symName: __ZNSt3__110unique_ptrINS_11__tree_nodeINS_12__value_typeIi8PositionEEPvEENS_22__tree_node_destructorINS_9allocatorIS6_EEEEED1B7v160006Ev, symObjAddr: 0x14170, symBinAddr: 0x100020F80, symSize: 0x20 }
  - { offsetInCU: 0x22D61, offset: 0x5AE5A, size: 0x8, addend: 0x0, symName: __ZNSt3__16__treeINS_12__value_typeIi8PositionEENS_19__map_value_compareIiS3_NS_4lessIiEELb1EEENS_9allocatorIS3_EEE12__node_allocB7v160006Ev, symObjAddr: 0x14190, symBinAddr: 0x100020FA0, symSize: 0x20 }
  - { offsetInCU: 0x22D85, offset: 0x5AE7E, size: 0x8, addend: 0x0, symName: __ZNSt3__116allocator_traitsINS_9allocatorINS_11__tree_nodeINS_12__value_typeIi8PositionEEPvEEEEE8allocateB7v160006ERS8_m, symObjAddr: 0x141B0, symBinAddr: 0x100020FC0, symSize: 0x30 }
  - { offsetInCU: 0x22DB8, offset: 0x5AEB1, size: 0x8, addend: 0x0, symName: __ZNSt3__122__tree_node_destructorINS_9allocatorINS_11__tree_nodeINS_12__value_typeIi8PositionEEPvEEEEEC1B7v160006ERS8_b, symObjAddr: 0x141E0, symBinAddr: 0x100020FF0, symSize: 0x40 }
  - { offsetInCU: 0x22E04, offset: 0x5AEFD, size: 0x8, addend: 0x0, symName: __ZNSt3__110unique_ptrINS_11__tree_nodeINS_12__value_typeIi8PositionEEPvEENS_22__tree_node_destructorINS_9allocatorIS6_EEEEEC1B7v160006ILb1EvEEPS6_NS_16__dependent_typeINS_27__unique_ptr_deleter_sfinaeISA_EEXT_EE20__good_rval_ref_typeE, symObjAddr: 0x14220, symBinAddr: 0x100021030, symSize: 0x30 }
  - { offsetInCU: 0x22E54, offset: 0x5AF4D, size: 0x8, addend: 0x0, symName: __ZNSt3__116allocator_traitsINS_9allocatorINS_11__tree_nodeINS_12__value_typeIi8PositionEEPvEEEEE9constructB7v160006INS_4pairIKiS4_EEJRiS4_EvEEvRS8_PT_DpOT0_, symObjAddr: 0x14250, symBinAddr: 0x100021060, symSize: 0x40 }
  - { offsetInCU: 0x22EBF, offset: 0x5AFB8, size: 0x8, addend: 0x0, symName: __ZNSt3__122__tree_key_value_typesINS_12__value_typeIi8PositionEEE9__get_ptrB7v160006ERS3_, symObjAddr: 0x14290, symBinAddr: 0x1000210A0, symSize: 0x20 }
  - { offsetInCU: 0x22EE3, offset: 0x5AFDC, size: 0x8, addend: 0x0, symName: __ZNSt3__110unique_ptrINS_11__tree_nodeINS_12__value_typeIi8PositionEEPvEENS_22__tree_node_destructorINS_9allocatorIS6_EEEEE11get_deleterB7v160006Ev, symObjAddr: 0x142B0, symBinAddr: 0x1000210C0, symSize: 0x20 }
  - { offsetInCU: 0x22F07, offset: 0x5B000, size: 0x8, addend: 0x0, symName: __ZNSt3__117__compressed_pairINS_15__tree_end_nodeIPNS_16__tree_node_baseIPvEEEENS_9allocatorINS_11__tree_nodeINS_12__value_typeIi8PositionEES3_EEEEE6secondB7v160006Ev, symObjAddr: 0x142D0, symBinAddr: 0x1000210E0, symSize: 0x20 }
  - { offsetInCU: 0x22F2B, offset: 0x5B024, size: 0x8, addend: 0x0, symName: __ZNSt3__122__compressed_pair_elemINS_9allocatorINS_11__tree_nodeINS_12__value_typeIi8PositionEEPvEEEELi1ELb1EE5__getB7v160006Ev, symObjAddr: 0x142F0, symBinAddr: 0x100021100, symSize: 0x10 }
  - { offsetInCU: 0x22F4F, offset: 0x5B048, size: 0x8, addend: 0x0, symName: __ZNSt3__19allocatorINS_11__tree_nodeINS_12__value_typeIi8PositionEEPvEEE8allocateB7v160006Em, symObjAddr: 0x14300, symBinAddr: 0x100021110, symSize: 0x50 }
  - { offsetInCU: 0x22F8B, offset: 0x5B084, size: 0x8, addend: 0x0, symName: __ZNSt3__116allocator_traitsINS_9allocatorINS_11__tree_nodeINS_12__value_typeIi8PositionEEPvEEEEE8max_sizeB7v160006IS8_vEEmRKS8_, symObjAddr: 0x14350, symBinAddr: 0x100021160, symSize: 0x20 }
  - { offsetInCU: 0x22FB9, offset: 0x5B0B2, size: 0x8, addend: 0x0, symName: __ZNKSt3__19allocatorINS_11__tree_nodeINS_12__value_typeIi8PositionEEPvEEE8max_sizeB7v160006Ev, symObjAddr: 0x14370, symBinAddr: 0x100021180, symSize: 0x20 }
  - { offsetInCU: 0x22FDD, offset: 0x5B0D6, size: 0x8, addend: 0x0, symName: __ZNSt3__122__tree_node_destructorINS_9allocatorINS_11__tree_nodeINS_12__value_typeIi8PositionEEPvEEEEEC2B7v160006ERS8_b, symObjAddr: 0x14390, symBinAddr: 0x1000211A0, symSize: 0x30 }
  - { offsetInCU: 0x23024, offset: 0x5B11D, size: 0x8, addend: 0x0, symName: __ZNSt3__110unique_ptrINS_11__tree_nodeINS_12__value_typeIi8PositionEEPvEENS_22__tree_node_destructorINS_9allocatorIS6_EEEEEC2B7v160006ILb1EvEEPS6_NS_16__dependent_typeINS_27__unique_ptr_deleter_sfinaeISA_EEXT_EE20__good_rval_ref_typeE, symObjAddr: 0x143C0, symBinAddr: 0x1000211D0, symSize: 0x40 }
  - { offsetInCU: 0x23074, offset: 0x5B16D, size: 0x8, addend: 0x0, symName: __ZNSt3__117__compressed_pairIPNS_11__tree_nodeINS_12__value_typeIi8PositionEEPvEENS_22__tree_node_destructorINS_9allocatorIS6_EEEEEC1B7v160006IRS7_SB_EEOT_OT0_, symObjAddr: 0x14400, symBinAddr: 0x100021210, symSize: 0x30 }
  - { offsetInCU: 0x230CB, offset: 0x5B1C4, size: 0x8, addend: 0x0, symName: __ZNSt3__117__compressed_pairIPNS_11__tree_nodeINS_12__value_typeIi8PositionEEPvEENS_22__tree_node_destructorINS_9allocatorIS6_EEEEEC2B7v160006IRS7_SB_EEOT_OT0_, symObjAddr: 0x14430, symBinAddr: 0x100021240, symSize: 0x40 }
  - { offsetInCU: 0x23122, offset: 0x5B21B, size: 0x8, addend: 0x0, symName: __ZNSt3__122__compressed_pair_elemIPNS_11__tree_nodeINS_12__value_typeIi8PositionEEPvEELi0ELb0EEC2B7v160006IRS7_vEEOT_, symObjAddr: 0x14470, symBinAddr: 0x100021280, symSize: 0x20 }
  - { offsetInCU: 0x23163, offset: 0x5B25C, size: 0x8, addend: 0x0, symName: __ZNSt3__122__compressed_pair_elemINS_22__tree_node_destructorINS_9allocatorINS_11__tree_nodeINS_12__value_typeIi8PositionEEPvEEEEEELi1ELb0EEC2B7v160006ISA_vEEOT_, symObjAddr: 0x14490, symBinAddr: 0x1000212A0, symSize: 0x30 }
  - { offsetInCU: 0x231A4, offset: 0x5B29D, size: 0x8, addend: 0x0, symName: __ZNSt3__19allocatorINS_11__tree_nodeINS_12__value_typeIi8PositionEEPvEEE9constructB7v160006INS_4pairIKiS3_EEJRiS3_EEEvPT_DpOT0_, symObjAddr: 0x144C0, symBinAddr: 0x1000212D0, symSize: 0x30 }
  - { offsetInCU: 0x2320B, offset: 0x5B304, size: 0x8, addend: 0x0, symName: __ZNSt3__14pairIKi8PositionEC1B7v160006IRiS2_LPv0EEEOT_OT0_, symObjAddr: 0x144F0, symBinAddr: 0x100021300, symSize: 0x30 }
  - { offsetInCU: 0x23268, offset: 0x5B361, size: 0x8, addend: 0x0, symName: __ZNSt3__14pairIKi8PositionEC2B7v160006IRiS2_LPv0EEEOT_OT0_, symObjAddr: 0x14520, symBinAddr: 0x100021330, symSize: 0x30 }
  - { offsetInCU: 0x232C5, offset: 0x5B3BE, size: 0x8, addend: 0x0, symName: __ZNSt3__112__value_typeIi8PositionE11__get_valueB7v160006Ev, symObjAddr: 0x14550, symBinAddr: 0x100021360, symSize: 0x10 }
  - { offsetInCU: 0x232E9, offset: 0x5B3E2, size: 0x8, addend: 0x0, symName: __ZNSt3__117__compressed_pairIPNS_11__tree_nodeINS_12__value_typeIi8PositionEEPvEENS_22__tree_node_destructorINS_9allocatorIS6_EEEEE6secondB7v160006Ev, symObjAddr: 0x14560, symBinAddr: 0x100021370, symSize: 0x20 }
  - { offsetInCU: 0x2330D, offset: 0x5B406, size: 0x8, addend: 0x0, symName: __ZNSt3__122__compressed_pair_elemINS_22__tree_node_destructorINS_9allocatorINS_11__tree_nodeINS_12__value_typeIi8PositionEEPvEEEEEELi1ELb0EE5__getB7v160006Ev, symObjAddr: 0x14580, symBinAddr: 0x100021390, symSize: 0x10 }
  - { offsetInCU: 0x23331, offset: 0x5B42A, size: 0x8, addend: 0x0, symName: __ZNKSt3__16__treeINS_12__value_typeIi8PositionEENS_19__map_value_compareIiS3_NS_4lessIiEELb1EEENS_9allocatorIS3_EEE6__rootB7v160006Ev, symObjAddr: 0x14590, symBinAddr: 0x1000213A0, symSize: 0x20 }
  - { offsetInCU: 0x23355, offset: 0x5B44E, size: 0x8, addend: 0x0, symName: __ZNSt3__16__treeINS_12__value_typeIi8PositionEENS_19__map_value_compareIiS3_NS_4lessIiEELb1EEENS_9allocatorIS3_EEE10value_compB7v160006Ev, symObjAddr: 0x145B0, symBinAddr: 0x1000213C0, symSize: 0x20 }
  - { offsetInCU: 0x23379, offset: 0x5B472, size: 0x8, addend: 0x0, symName: __ZNKSt3__119__map_value_compareIiNS_12__value_typeIi8PositionEENS_4lessIiEELb1EEclB7v160006ERKiRKS3_, symObjAddr: 0x145D0, symBinAddr: 0x1000213E0, symSize: 0x50 }
  - { offsetInCU: 0x233BB, offset: 0x5B4B4, size: 0x8, addend: 0x0, symName: __ZNKSt3__16__treeINS_12__value_typeIi8PositionEENS_19__map_value_compareIiS3_NS_4lessIiEELb1EEENS_9allocatorIS3_EEE10__end_nodeB7v160006Ev, symObjAddr: 0x14620, symBinAddr: 0x100021430, symSize: 0x30 }
  - { offsetInCU: 0x233DF, offset: 0x5B4D8, size: 0x8, addend: 0x0, symName: __ZNKSt3__117__compressed_pairINS_15__tree_end_nodeIPNS_16__tree_node_baseIPvEEEENS_9allocatorINS_11__tree_nodeINS_12__value_typeIi8PositionEES3_EEEEE5firstB7v160006Ev, symObjAddr: 0x14650, symBinAddr: 0x100021460, symSize: 0x20 }
  - { offsetInCU: 0x23403, offset: 0x5B4FC, size: 0x8, addend: 0x0, symName: __ZNKSt3__122__compressed_pair_elemINS_15__tree_end_nodeIPNS_16__tree_node_baseIPvEEEELi0ELb0EE5__getB7v160006Ev, symObjAddr: 0x14670, symBinAddr: 0x100021480, symSize: 0x10 }
  - { offsetInCU: 0x23427, offset: 0x5B520, size: 0x8, addend: 0x0, symName: __ZNSt3__117__compressed_pairImNS_19__map_value_compareIiNS_12__value_typeIi8PositionEENS_4lessIiEELb1EEEE6secondB7v160006Ev, symObjAddr: 0x14680, symBinAddr: 0x100021490, symSize: 0x20 }
  - { offsetInCU: 0x2344B, offset: 0x5B544, size: 0x8, addend: 0x0, symName: __ZNSt3__122__compressed_pair_elemINS_19__map_value_compareIiNS_12__value_typeIi8PositionEENS_4lessIiEELb1EEELi1ELb1EE5__getB7v160006Ev, symObjAddr: 0x146A0, symBinAddr: 0x1000214B0, symSize: 0x10 }
  - { offsetInCU: 0x2346F, offset: 0x5B568, size: 0x8, addend: 0x0, symName: __ZNKSt3__14lessIiEclB7v160006ERKiS3_, symObjAddr: 0x146B0, symBinAddr: 0x1000214C0, symSize: 0x30 }
  - { offsetInCU: 0x234B1, offset: 0x5B5AA, size: 0x8, addend: 0x0, symName: __ZNKSt3__112__value_typeIi8PositionE11__get_valueB7v160006Ev, symObjAddr: 0x146E0, symBinAddr: 0x1000214F0, symSize: 0x10 }
  - { offsetInCU: 0x234D5, offset: 0x5B5CE, size: 0x8, addend: 0x0, symName: __ZNKSt3__117__compressed_pairIPNS_11__tree_nodeINS_12__value_typeIi8PositionEEPvEENS_22__tree_node_destructorINS_9allocatorIS6_EEEEE5firstB7v160006Ev, symObjAddr: 0x146F0, symBinAddr: 0x100021500, symSize: 0x20 }
  - { offsetInCU: 0x234F9, offset: 0x5B5F2, size: 0x8, addend: 0x0, symName: __ZNKSt3__122__compressed_pair_elemIPNS_11__tree_nodeINS_12__value_typeIi8PositionEEPvEELi0ELb0EE5__getB7v160006Ev, symObjAddr: 0x14710, symBinAddr: 0x100021520, symSize: 0x10 }
  - { offsetInCU: 0x2351D, offset: 0x5B616, size: 0x8, addend: 0x0, symName: __ZNSt3__16__treeINS_12__value_typeIi8PositionEENS_19__map_value_compareIiS3_NS_4lessIiEELb1EEENS_9allocatorIS3_EEE4sizeB7v160006Ev, symObjAddr: 0x14A40, symBinAddr: 0x100021850, symSize: 0x20 }
  - { offsetInCU: 0x23541, offset: 0x5B63A, size: 0x8, addend: 0x0, symName: __ZNKSt3__116__tree_node_baseIPvE15__parent_unsafeB7v160006Ev, symObjAddr: 0x14A60, symBinAddr: 0x100021870, symSize: 0x20 }
  - { offsetInCU: 0x23565, offset: 0x5B65E, size: 0x8, addend: 0x0, symName: __ZNSt3__116__tree_node_baseIPvE12__set_parentB7v160006EPS2_, symObjAddr: 0x14C40, symBinAddr: 0x100021A50, symSize: 0x20 }
  - { offsetInCU: 0x23598, offset: 0x5B691, size: 0x8, addend: 0x0, symName: __ZNSt3__117__compressed_pairImNS_19__map_value_compareIiNS_12__value_typeIi8PositionEENS_4lessIiEELb1EEEE5firstB7v160006Ev, symObjAddr: 0x14C60, symBinAddr: 0x100021A70, symSize: 0x20 }
  - { offsetInCU: 0x235BC, offset: 0x5B6B5, size: 0x8, addend: 0x0, symName: __ZNSt3__122__compressed_pair_elemImLi0ELb0EE5__getB7v160006Ev, symObjAddr: 0x14C80, symBinAddr: 0x100021A90, symSize: 0x10 }
  - { offsetInCU: 0x235E0, offset: 0x5B6D9, size: 0x8, addend: 0x0, symName: __ZNSt3__117__compressed_pairIPNS_11__tree_nodeINS_12__value_typeIi8PositionEEPvEENS_22__tree_node_destructorINS_9allocatorIS6_EEEEE5firstB7v160006Ev, symObjAddr: 0x14C90, symBinAddr: 0x100021AA0, symSize: 0x20 }
  - { offsetInCU: 0x23604, offset: 0x5B6FD, size: 0x8, addend: 0x0, symName: __ZNSt3__122__compressed_pair_elemIPNS_11__tree_nodeINS_12__value_typeIi8PositionEEPvEELi0ELb0EE5__getB7v160006Ev, symObjAddr: 0x14CB0, symBinAddr: 0x100021AC0, symSize: 0x10 }
  - { offsetInCU: 0x23628, offset: 0x5B721, size: 0x8, addend: 0x0, symName: __ZNSt3__115__tree_iteratorINS_12__value_typeIi8PositionEEPNS_11__tree_nodeIS3_PvEElEC2B7v160006ES7_, symObjAddr: 0x14CC0, symBinAddr: 0x100021AD0, symSize: 0x20 }
  - { offsetInCU: 0x23660, offset: 0x5B759, size: 0x8, addend: 0x0, symName: __ZNSt3__110unique_ptrINS_11__tree_nodeINS_12__value_typeIi8PositionEEPvEENS_22__tree_node_destructorINS_9allocatorIS6_EEEEED2B7v160006Ev, symObjAddr: 0x14CE0, symBinAddr: 0x100021AF0, symSize: 0x20 }
  - { offsetInCU: 0x23689, offset: 0x5B782, size: 0x8, addend: 0x0, symName: __ZNSt3__110unique_ptrINS_11__tree_nodeINS_12__value_typeIi8PositionEEPvEENS_22__tree_node_destructorINS_9allocatorIS6_EEEEE5resetB7v160006EPS6_, symObjAddr: 0x14D00, symBinAddr: 0x100021B10, symSize: 0x70 }
  - { offsetInCU: 0x236CB, offset: 0x5B7C4, size: 0x8, addend: 0x0, symName: __ZNSt3__122__tree_node_destructorINS_9allocatorINS_11__tree_nodeINS_12__value_typeIi8PositionEEPvEEEEEclB7v160006EPS7_, symObjAddr: 0x14D70, symBinAddr: 0x100021B80, symSize: 0x90 }
  - { offsetInCU: 0x236FE, offset: 0x5B7F7, size: 0x8, addend: 0x0, symName: __ZNSt3__116allocator_traitsINS_9allocatorINS_11__tree_nodeINS_12__value_typeIi8PositionEEPvEEEEE7destroyB7v160006INS_4pairIKiS4_EEvvEEvRS8_PT_, symObjAddr: 0x14E00, symBinAddr: 0x100021C10, symSize: 0x10 }
  - { offsetInCU: 0x23739, offset: 0x5B832, size: 0x8, addend: 0x0, symName: __ZNSt3__116allocator_traitsINS_9allocatorINS_11__tree_nodeINS_12__value_typeIi8PositionEEPvEEEEE10deallocateB7v160006ERS8_PS7_m, symObjAddr: 0x14E10, symBinAddr: 0x100021C20, symSize: 0x30 }
  - { offsetInCU: 0x2377B, offset: 0x5B874, size: 0x8, addend: 0x0, symName: __ZNSt3__19allocatorINS_11__tree_nodeINS_12__value_typeIi8PositionEEPvEEE10deallocateB7v160006EPS6_m, symObjAddr: 0x14E40, symBinAddr: 0x100021C50, symSize: 0x50 }
  - { offsetInCU: 0x237BB, offset: 0x5B8B4, size: 0x8, addend: 0x0, symName: __ZNSt3__114__map_iteratorINS_15__tree_iteratorINS_12__value_typeIi8PositionEEPNS_11__tree_nodeIS4_PvEElEEEC2B7v160006ES9_, symObjAddr: 0x14E90, symBinAddr: 0x100021CA0, symSize: 0x20 }
  - { offsetInCU: 0x237F3, offset: 0x5B8EC, size: 0x8, addend: 0x0, symName: __ZNSt3__16__treeINS_12__value_typeIi8PositionEENS_19__map_value_compareIiS3_NS_4lessIiEELb1EEENS_9allocatorIS3_EEE5beginB7v160006Ev, symObjAddr: 0x14ED0, symBinAddr: 0x100021CC0, symSize: 0x30 }
  - { offsetInCU: 0x23817, offset: 0x5B910, size: 0x8, addend: 0x0, symName: __ZNSt3__115__tree_iteratorINS_12__value_typeIi8PositionEEPNS_11__tree_nodeIS3_PvEElEC1B7v160006EPNS_15__tree_end_nodeIPNS_16__tree_node_baseIS5_EEEE, symObjAddr: 0x14F00, symBinAddr: 0x100021CF0, symSize: 0x30 }
  - { offsetInCU: 0x2384F, offset: 0x5B948, size: 0x8, addend: 0x0, symName: __ZNSt3__115__tree_iteratorINS_12__value_typeIi8PositionEEPNS_11__tree_nodeIS3_PvEElEC2B7v160006EPNS_15__tree_end_nodeIPNS_16__tree_node_baseIS5_EEEE, symObjAddr: 0x14F30, symBinAddr: 0x100021D20, symSize: 0x20 }
  - { offsetInCU: 0x23887, offset: 0x5B980, size: 0x8, addend: 0x0, symName: __ZNSt3__16__treeINS_12__value_typeIi8PositionEENS_19__map_value_compareIiS3_NS_4lessIiEELb1EEENS_9allocatorIS3_EEE3endB7v160006Ev, symObjAddr: 0x14FB0, symBinAddr: 0x100021DA0, symSize: 0x30 }
  - { offsetInCU: 0x238AB, offset: 0x5B9A4, size: 0x8, addend: 0x0, symName: __ZNKSt3__16__treeINS_12__value_typeIi8PositionEENS_19__map_value_compareIiS3_NS_4lessIiEELb1EEENS_9allocatorIS3_EEE13__count_multiIiEEmRKT_, symObjAddr: 0x14FE0, symBinAddr: 0x100021DD0, symSize: 0x130 }
  - { offsetInCU: 0x23908, offset: 0x5BA01, size: 0x8, addend: 0x0, symName: __ZNKSt3__16__treeINS_12__value_typeIi8PositionEENS_19__map_value_compareIiS3_NS_4lessIiEELb1EEENS_9allocatorIS3_EEE10value_compB7v160006Ev, symObjAddr: 0x15110, symBinAddr: 0x100021F00, symSize: 0x20 }
  - { offsetInCU: 0x2392C, offset: 0x5BA25, size: 0x8, addend: 0x0, symName: __ZNKSt3__119__map_value_compareIiNS_12__value_typeIi8PositionEENS_4lessIiEELb1EEclB7v160006ERKS3_RKi, symObjAddr: 0x15130, symBinAddr: 0x100021F20, symSize: 0x40 }
  - { offsetInCU: 0x2396E, offset: 0x5BA67, size: 0x8, addend: 0x0, symName: __ZNKSt3__16__treeINS_12__value_typeIi8PositionEENS_19__map_value_compareIiS3_NS_4lessIiEELb1EEENS_9allocatorIS3_EEE13__lower_boundIiEENS_21__tree_const_iteratorIS3_PNS_11__tree_nodeIS3_PvEElEERKT_SG_PNS_15__tree_end_nodeIPNS_16__tree_node_baseISE_EEEE, symObjAddr: 0x151B0, symBinAddr: 0x100021FA0, symSize: 0x90 }
  - { offsetInCU: 0x239CB, offset: 0x5BAC4, size: 0x8, addend: 0x0, symName: __ZNKSt3__16__treeINS_12__value_typeIi8PositionEENS_19__map_value_compareIiS3_NS_4lessIiEELb1EEENS_9allocatorIS3_EEE13__upper_boundIiEENS_21__tree_const_iteratorIS3_PNS_11__tree_nodeIS3_PvEElEERKT_SG_PNS_15__tree_end_nodeIPNS_16__tree_node_baseISE_EEEE, symObjAddr: 0x15240, symBinAddr: 0x100022030, symSize: 0xA0 }
  - { offsetInCU: 0x23A28, offset: 0x5BB21, size: 0x8, addend: 0x0, symName: __ZNKSt3__117__compressed_pairImNS_19__map_value_compareIiNS_12__value_typeIi8PositionEENS_4lessIiEELb1EEEE6secondB7v160006Ev, symObjAddr: 0x152E0, symBinAddr: 0x1000220D0, symSize: 0x20 }
  - { offsetInCU: 0x23A4C, offset: 0x5BB45, size: 0x8, addend: 0x0, symName: __ZNKSt3__122__compressed_pair_elemINS_19__map_value_compareIiNS_12__value_typeIi8PositionEENS_4lessIiEELb1EEELi1ELb1EE5__getB7v160006Ev, symObjAddr: 0x15300, symBinAddr: 0x1000220F0, symSize: 0x10 }
  - { offsetInCU: 0x23A70, offset: 0x5BB69, size: 0x8, addend: 0x0, symName: __ZNSt3__121__tree_const_iteratorINS_12__value_typeIi8PositionEEPNS_11__tree_nodeIS3_PvEElEppB7v160006Ev, symObjAddr: 0x153A0, symBinAddr: 0x100022190, symSize: 0x30 }
  - { offsetInCU: 0x23A94, offset: 0x5BB8D, size: 0x8, addend: 0x0, symName: __ZNSt3__121__tree_const_iteratorINS_12__value_typeIi8PositionEEPNS_11__tree_nodeIS3_PvEElEC1B7v160006EPNS_15__tree_end_nodeIPNS_16__tree_node_baseIS5_EEEE, symObjAddr: 0x154B0, symBinAddr: 0x1000222A0, symSize: 0x30 }
  - { offsetInCU: 0x23ACC, offset: 0x5BBC5, size: 0x8, addend: 0x0, symName: __ZNSt3__121__tree_const_iteratorINS_12__value_typeIi8PositionEEPNS_11__tree_nodeIS3_PvEElEC2B7v160006EPNS_15__tree_end_nodeIPNS_16__tree_node_baseIS5_EEEE, symObjAddr: 0x154E0, symBinAddr: 0x1000222D0, symSize: 0x20 }
  - { offsetInCU: 0x23B04, offset: 0x5BBFD, size: 0x8, addend: 0x0, symName: __ZNSt3__114pointer_traitsIPNS_4pairIKi8PositionEEE10pointer_toB7v160006ERS4_, symObjAddr: 0x15500, symBinAddr: 0x1000222F0, symSize: 0x10 }
  - { offsetInCU: 0x23B27, offset: 0x5BC20, size: 0x8, addend: 0x0, symName: __ZNKSt3__115__tree_iteratorINS_12__value_typeIi8PositionEEPNS_11__tree_nodeIS3_PvEElEptB7v160006Ev, symObjAddr: 0x15510, symBinAddr: 0x100022300, symSize: 0x30 }
  - { offsetInCU: 0x23B4B, offset: 0x5BC44, size: 0x8, addend: 0x0, symName: __ZNSt3__114pointer_traitsIPNS_12__value_typeIi8PositionEEE10pointer_toB7v160006ERS3_, symObjAddr: 0x15540, symBinAddr: 0x100022330, symSize: 0x10 }
  - { offsetInCU: 0x23B6E, offset: 0x5BC67, size: 0x8, addend: 0x0, symName: __ZNKSt3__115__tree_iteratorINS_12__value_typeIi8PositionEEPNS_11__tree_nodeIS3_PvEElE8__get_npB7v160006Ev, symObjAddr: 0x15550, symBinAddr: 0x100022340, symSize: 0x20 }
  - { offsetInCU: 0x23B92, offset: 0x5BC8B, size: 0x8, addend: 0x0, symName: __ZNSt3__16vectorINS_4pairI8PositioniEENS_9allocatorIS3_EEE22__construct_one_at_endB7v160006IJS3_EEEvDpOT_, symObjAddr: 0x15570, symBinAddr: 0x100022360, symSize: 0x90 }
  - { offsetInCU: 0x23BDF, offset: 0x5BCD8, size: 0x8, addend: 0x0, symName: __ZNSt3__16vectorINS_4pairI8PositioniEENS_9allocatorIS3_EEE21__push_back_slow_pathIS3_EEvOT_, symObjAddr: 0x15600, symBinAddr: 0x1000223F0, symSize: 0xD0 }
  - { offsetInCU: 0x23C3C, offset: 0x5BD35, size: 0x8, addend: 0x0, symName: __ZNSt3__14pairI8PositioniEC1B7v160006IRS1_RKiLPv0EEEOT_OT0_, symObjAddr: 0x15800, symBinAddr: 0x1000225F0, symSize: 0x30 }
  - { offsetInCU: 0x23C99, offset: 0x5BD92, size: 0x8, addend: 0x0, symName: __ZNSt3__14pairI8PositioniEC2B7v160006IRS1_RKiLPv0EEEOT_OT0_, symObjAddr: 0x15830, symBinAddr: 0x100022620, symSize: 0x30 }
  - { offsetInCU: 0x23CF6, offset: 0x5BDEF, size: 0x8, addend: 0x0, symName: __ZNSt3__115__tree_iteratorINS_12__value_typeIi8PositionEEPNS_11__tree_nodeIS3_PvEElEppB7v160006Ev, symObjAddr: 0x15860, symBinAddr: 0x100022650, symSize: 0x30 }
  - { offsetInCU: 0x23D1A, offset: 0x5BE13, size: 0x8, addend: 0x0, symName: __ZNSt3__18multimapIi8PositionNS_4lessIiEENS_9allocatorINS_4pairIKiS1_EEEEED2B7v160006Ev, symObjAddr: 0x15890, symBinAddr: 0x100022680, symSize: 0x20 }
  - { offsetInCU: 0x23D43, offset: 0x5BE3C, size: 0x8, addend: 0x0, symName: __ZNSt3__16__treeINS_12__value_typeIi8PositionEENS_19__map_value_compareIiS3_NS_4lessIiEELb1EEENS_9allocatorIS3_EEED1Ev, symObjAddr: 0x158B0, symBinAddr: 0x1000226A0, symSize: 0x20 }
  - { offsetInCU: 0x23D6E, offset: 0x5BE67, size: 0x8, addend: 0x0, symName: __ZNSt3__16__treeINS_12__value_typeIi8PositionEENS_19__map_value_compareIiS3_NS_4lessIiEELb1EEENS_9allocatorIS3_EEED2Ev, symObjAddr: 0x158D0, symBinAddr: 0x1000226C0, symSize: 0x30 }
  - { offsetInCU: 0x23D99, offset: 0x5BE92, size: 0x8, addend: 0x0, symName: __ZNSt3__16__treeINS_12__value_typeIi8PositionEENS_19__map_value_compareIiS3_NS_4lessIiEELb1EEENS_9allocatorIS3_EEE7destroyEPNS_11__tree_nodeIS3_PvEE, symObjAddr: 0x15900, symBinAddr: 0x1000226F0, symSize: 0xA0 }
  - { offsetInCU: 0x23DE4, offset: 0x5BEDD, size: 0x8, addend: 0x0, symName: '__ZNSt3__112__tuple_leafILm0EZNK12PossibleGrid20identifyUniqueValuesEibE3$_1Lb0EE3getB7v160006Ev', symObjAddr: 0x159A0, symBinAddr: 0x100022790, symSize: 0x10 }
  - { offsetInCU: 0x23E08, offset: 0x5BF01, size: 0x8, addend: 0x0, symName: '__ZNSt3__110unique_ptrINS_19__async_assoc_stateINS_6vectorINS_4pairI8PositioniEENS_9allocatorIS5_EEEENS_12__async_funcIZNK12PossibleGrid20identifyUniqueValuesEibE3$_1JEEEEENS_22__release_shared_countEEC2B7v160006ILb1EvEEPSD_', symObjAddr: 0x159B0, symBinAddr: 0x1000227A0, symSize: 0x40 }
  - { offsetInCU: 0x23E4A, offset: 0x5BF43, size: 0x8, addend: 0x0, symName: '__ZNSt3__117__compressed_pairIPNS_19__async_assoc_stateINS_6vectorINS_4pairI8PositioniEENS_9allocatorIS5_EEEENS_12__async_funcIZNK12PossibleGrid20identifyUniqueValuesEibE3$_1JEEEEENS_22__release_shared_countEEC1B7v160006IRSE_NS_16__value_init_tagEEEOT_OT0_', symObjAddr: 0x159F0, symBinAddr: 0x1000227E0, symSize: 0x30 }
  - { offsetInCU: 0x23EA1, offset: 0x5BF9A, size: 0x8, addend: 0x0, symName: '__ZNSt3__117__compressed_pairIPNS_19__async_assoc_stateINS_6vectorINS_4pairI8PositioniEENS_9allocatorIS5_EEEENS_12__async_funcIZNK12PossibleGrid20identifyUniqueValuesEibE3$_1JEEEEENS_22__release_shared_countEEC2B7v160006IRSE_NS_16__value_init_tagEEEOT_OT0_', symObjAddr: 0x15A20, symBinAddr: 0x100022810, symSize: 0x40 }
  - { offsetInCU: 0x23EF8, offset: 0x5BFF1, size: 0x8, addend: 0x0, symName: '__ZNSt3__122__compressed_pair_elemIPNS_19__async_assoc_stateINS_6vectorINS_4pairI8PositioniEENS_9allocatorIS5_EEEENS_12__async_funcIZNK12PossibleGrid20identifyUniqueValuesEibE3$_1JEEEEELi0ELb0EEC2B7v160006IRSE_vEEOT_', symObjAddr: 0x15A60, symBinAddr: 0x100022850, symSize: 0x20 }
  - { offsetInCU: 0x23F39, offset: 0x5C032, size: 0x8, addend: 0x0, symName: '__ZNKSt3__117__compressed_pairIPNS_19__async_assoc_stateINS_6vectorINS_4pairI8PositioniEENS_9allocatorIS5_EEEENS_12__async_funcIZNK12PossibleGrid20identifyUniqueValuesEibE3$_1JEEEEENS_22__release_shared_countEE5firstB7v160006Ev', symObjAddr: 0x15A80, symBinAddr: 0x100022870, symSize: 0x20 }
  - { offsetInCU: 0x23F5D, offset: 0x5C056, size: 0x8, addend: 0x0, symName: '__ZNKSt3__122__compressed_pair_elemIPNS_19__async_assoc_stateINS_6vectorINS_4pairI8PositioniEENS_9allocatorIS5_EEEENS_12__async_funcIZNK12PossibleGrid20identifyUniqueValuesEibE3$_1JEEEEELi0ELb0EE5__getB7v160006Ev', symObjAddr: 0x15AA0, symBinAddr: 0x100022890, symSize: 0x10 }
  - { offsetInCU: 0x23F81, offset: 0x5C07A, size: 0x8, addend: 0x0, symName: '__ZNSt3__16threadC2IMNS_19__async_assoc_stateINS_6vectorINS_4pairI8PositioniEENS_9allocatorIS6_EEEENS_12__async_funcIZNK12PossibleGrid20identifyUniqueValuesEibE3$_1JEEEEEFvvEJPSE_EvEEOT_DpOT0_', symObjAddr: 0x15AB0, symBinAddr: 0x1000228A0, symSize: 0x150 }
  - { offsetInCU: 0x24010, offset: 0x5C109, size: 0x8, addend: 0x0, symName: '__ZNSt3__15tupleIJNS_10unique_ptrINS_15__thread_structENS_14default_deleteIS2_EEEEMNS_19__async_assoc_stateINS_6vectorINS_4pairI8PositioniEENS_9allocatorISA_EEEENS_12__async_funcIZNK12PossibleGrid20identifyUniqueValuesEibE3$_1JEEEEEFvvEPSI_EEC1B7v160006IJS5_SK_SL_ELi0EEEDpOT_', symObjAddr: 0x15C00, symBinAddr: 0x1000229F0, symSize: 0x40 }
  - { offsetInCU: 0x24112, offset: 0x5C20B, size: 0x8, addend: 0x0, symName: '__ZNSt3__110unique_ptrINS_5tupleIJNS0_INS_15__thread_structENS_14default_deleteIS2_EEEEMNS_19__async_assoc_stateINS_6vectorINS_4pairI8PositioniEENS_9allocatorISA_EEEENS_12__async_funcIZNK12PossibleGrid20identifyUniqueValuesEibE3$_1JEEEEEFvvEPSI_EEENS3_ISM_EEEC1B7v160006ILb1EvEEPSM_', symObjAddr: 0x15C40, symBinAddr: 0x100022A30, symSize: 0x30 }
  - { offsetInCU: 0x24154, offset: 0x5C24D, size: 0x8, addend: 0x0, symName: '__ZNKSt3__110unique_ptrINS_5tupleIJNS0_INS_15__thread_structENS_14default_deleteIS2_EEEEMNS_19__async_assoc_stateINS_6vectorINS_4pairI8PositioniEENS_9allocatorISA_EEEENS_12__async_funcIZNK12PossibleGrid20identifyUniqueValuesEibE3$_1JEEEEEFvvEPSI_EEENS3_ISM_EEE3getB7v160006Ev', symObjAddr: 0x15D10, symBinAddr: 0x100022B00, symSize: 0x20 }
  - { offsetInCU: 0x24178, offset: 0x5C271, size: 0x8, addend: 0x0, symName: '__ZNSt3__110unique_ptrINS_5tupleIJNS0_INS_15__thread_structENS_14default_deleteIS2_EEEEMNS_19__async_assoc_stateINS_6vectorINS_4pairI8PositioniEENS_9allocatorISA_EEEENS_12__async_funcIZNK12PossibleGrid20identifyUniqueValuesEibE3$_1JEEEEEFvvEPSI_EEENS3_ISM_EEE7releaseB7v160006Ev', symObjAddr: 0x15D30, symBinAddr: 0x100022B20, symSize: 0x40 }
  - { offsetInCU: 0x241AB, offset: 0x5C2A4, size: 0x8, addend: 0x0, symName: '__ZNSt3__110unique_ptrINS_5tupleIJNS0_INS_15__thread_structENS_14default_deleteIS2_EEEEMNS_19__async_assoc_stateINS_6vectorINS_4pairI8PositioniEENS_9allocatorISA_EEEENS_12__async_funcIZNK12PossibleGrid20identifyUniqueValuesEibE3$_1JEEEEEFvvEPSI_EEENS3_ISM_EEED1B7v160006Ev', symObjAddr: 0x15D70, symBinAddr: 0x100022B60, symSize: 0x20 }
  - { offsetInCU: 0x241D4, offset: 0x5C2CD, size: 0x8, addend: 0x0, symName: '__ZNSt3__15tupleIJNS_10unique_ptrINS_15__thread_structENS_14default_deleteIS2_EEEEMNS_19__async_assoc_stateINS_6vectorINS_4pairI8PositioniEENS_9allocatorISA_EEEENS_12__async_funcIZNK12PossibleGrid20identifyUniqueValuesEibE3$_1JEEEEEFvvEPSI_EEC2B7v160006IJS5_SK_SL_ELi0EEEDpOT_', symObjAddr: 0x15D90, symBinAddr: 0x100022B80, symSize: 0x40 }
  - { offsetInCU: 0x24245, offset: 0x5C33E, size: 0x8, addend: 0x0, symName: '__ZNSt3__112__tuple_implINS_15__tuple_indicesIJLm0ELm1ELm2EEEEJNS_10unique_ptrINS_15__thread_structENS_14default_deleteIS4_EEEEMNS_19__async_assoc_stateINS_6vectorINS_4pairI8PositioniEENS_9allocatorISC_EEEENS_12__async_funcIZNK12PossibleGrid20identifyUniqueValuesEibE3$_1JEEEEEFvvEPSK_EEC1B7v160006IJLm0ELm1ELm2EEJS7_SM_SN_EJEJEJS7_SM_SN_EEENS1_IJXspT_EEEENS_13__tuple_typesIJDpT0_EEENS1_IJXspT1_EEEENSR_IJDpT2_EEEDpOT3_', symObjAddr: 0x15DD0, symBinAddr: 0x100022BC0, symSize: 0x40 }
  - { offsetInCU: 0x24317, offset: 0x5C410, size: 0x8, addend: 0x0, symName: '__ZNSt3__112__tuple_implINS_15__tuple_indicesIJLm0ELm1ELm2EEEEJNS_10unique_ptrINS_15__thread_structENS_14default_deleteIS4_EEEEMNS_19__async_assoc_stateINS_6vectorINS_4pairI8PositioniEENS_9allocatorISC_EEEENS_12__async_funcIZNK12PossibleGrid20identifyUniqueValuesEibE3$_1JEEEEEFvvEPSK_EEC2B7v160006IJLm0ELm1ELm2EEJS7_SM_SN_EJEJEJS7_SM_SN_EEENS1_IJXspT_EEEENS_13__tuple_typesIJDpT0_EEENS1_IJXspT1_EEEENSR_IJDpT2_EEEDpOT3_', symObjAddr: 0x15E10, symBinAddr: 0x100022C00, symSize: 0x60 }
  - { offsetInCU: 0x243E9, offset: 0x5C4E2, size: 0x8, addend: 0x0, symName: '__ZNSt3__112__tuple_leafILm1EMNS_19__async_assoc_stateINS_6vectorINS_4pairI8PositioniEENS_9allocatorIS5_EEEENS_12__async_funcIZNK12PossibleGrid20identifyUniqueValuesEibE3$_1JEEEEEFvvELb0EEC2B7v160006ISF_vEEOT_', symObjAddr: 0x15E70, symBinAddr: 0x100022C60, symSize: 0x30 }
  - { offsetInCU: 0x2442B, offset: 0x5C524, size: 0x8, addend: 0x0, symName: '__ZNSt3__112__tuple_leafILm2EPNS_19__async_assoc_stateINS_6vectorINS_4pairI8PositioniEENS_9allocatorIS5_EEEENS_12__async_funcIZNK12PossibleGrid20identifyUniqueValuesEibE3$_1JEEEEELb0EEC2B7v160006ISE_vEEOT_', symObjAddr: 0x15EA0, symBinAddr: 0x100022C90, symSize: 0x20 }
  - { offsetInCU: 0x2446D, offset: 0x5C566, size: 0x8, addend: 0x0, symName: '__ZNSt3__110unique_ptrINS_5tupleIJNS0_INS_15__thread_structENS_14default_deleteIS2_EEEEMNS_19__async_assoc_stateINS_6vectorINS_4pairI8PositioniEENS_9allocatorISA_EEEENS_12__async_funcIZNK12PossibleGrid20identifyUniqueValuesEibE3$_1JEEEEEFvvEPSI_EEENS3_ISM_EEEC2B7v160006ILb1EvEEPSM_', symObjAddr: 0x15EC0, symBinAddr: 0x100022CB0, symSize: 0x40 }
  - { offsetInCU: 0x244AF, offset: 0x5C5A8, size: 0x8, addend: 0x0, symName: '__ZNSt3__117__compressed_pairIPNS_5tupleIJNS_10unique_ptrINS_15__thread_structENS_14default_deleteIS3_EEEEMNS_19__async_assoc_stateINS_6vectorINS_4pairI8PositioniEENS_9allocatorISB_EEEENS_12__async_funcIZNK12PossibleGrid20identifyUniqueValuesEibE3$_1JEEEEEFvvEPSJ_EEENS4_ISN_EEEC1B7v160006IRSO_NS_16__value_init_tagEEEOT_OT0_', symObjAddr: 0x15F00, symBinAddr: 0x100022CF0, symSize: 0x30 }
  - { offsetInCU: 0x24506, offset: 0x5C5FF, size: 0x8, addend: 0x0, symName: '__ZNSt3__117__compressed_pairIPNS_5tupleIJNS_10unique_ptrINS_15__thread_structENS_14default_deleteIS3_EEEEMNS_19__async_assoc_stateINS_6vectorINS_4pairI8PositioniEENS_9allocatorISB_EEEENS_12__async_funcIZNK12PossibleGrid20identifyUniqueValuesEibE3$_1JEEEEEFvvEPSJ_EEENS4_ISN_EEEC2B7v160006IRSO_NS_16__value_init_tagEEEOT_OT0_', symObjAddr: 0x15F30, symBinAddr: 0x100022D20, symSize: 0x40 }
  - { offsetInCU: 0x2455D, offset: 0x5C656, size: 0x8, addend: 0x0, symName: '__ZNSt3__122__compressed_pair_elemIPNS_5tupleIJNS_10unique_ptrINS_15__thread_structENS_14default_deleteIS3_EEEEMNS_19__async_assoc_stateINS_6vectorINS_4pairI8PositioniEENS_9allocatorISB_EEEENS_12__async_funcIZNK12PossibleGrid20identifyUniqueValuesEibE3$_1JEEEEEFvvEPSJ_EEELi0ELb0EEC2B7v160006IRSO_vEEOT_', symObjAddr: 0x15F70, symBinAddr: 0x100022D60, symSize: 0x20 }
  - { offsetInCU: 0x2459E, offset: 0x5C697, size: 0x8, addend: 0x0, symName: '__ZNSt3__122__compressed_pair_elemINS_14default_deleteINS_5tupleIJNS_10unique_ptrINS_15__thread_structENS1_IS4_EEEEMNS_19__async_assoc_stateINS_6vectorINS_4pairI8PositioniEENS_9allocatorISB_EEEENS_12__async_funcIZNK12PossibleGrid20identifyUniqueValuesEibE3$_1JEEEEEFvvEPSJ_EEEEELi1ELb1EEC2B7v160006ENS_16__value_init_tagE', symObjAddr: 0x15F90, symBinAddr: 0x100022D80, symSize: 0x10 }
  - { offsetInCU: 0x245D2, offset: 0x5C6CB, size: 0x8, addend: 0x0, symName: '__ZNSt3__112__tuple_leafILm1EMNS_19__async_assoc_stateINS_6vectorINS_4pairI8PositioniEENS_9allocatorIS5_EEEENS_12__async_funcIZNK12PossibleGrid20identifyUniqueValuesEibE3$_1JEEEEEFvvELb0EE3getB7v160006Ev', symObjAddr: 0x160B0, symBinAddr: 0x100022EA0, symSize: 0x10 }
  - { offsetInCU: 0x245F6, offset: 0x5C6EF, size: 0x8, addend: 0x0, symName: '__ZNSt3__112__tuple_leafILm2EPNS_19__async_assoc_stateINS_6vectorINS_4pairI8PositioniEENS_9allocatorIS5_EEEENS_12__async_funcIZNK12PossibleGrid20identifyUniqueValuesEibE3$_1JEEEEELb0EE3getB7v160006Ev', symObjAddr: 0x160C0, symBinAddr: 0x100022EB0, symSize: 0x10 }
  - { offsetInCU: 0x2461A, offset: 0x5C713, size: 0x8, addend: 0x0, symName: '__ZNKSt3__117__compressed_pairIPNS_5tupleIJNS_10unique_ptrINS_15__thread_structENS_14default_deleteIS3_EEEEMNS_19__async_assoc_stateINS_6vectorINS_4pairI8PositioniEENS_9allocatorISB_EEEENS_12__async_funcIZNK12PossibleGrid20identifyUniqueValuesEibE3$_1JEEEEEFvvEPSJ_EEENS4_ISN_EEE5firstB7v160006Ev', symObjAddr: 0x160D0, symBinAddr: 0x100022EC0, symSize: 0x20 }
  - { offsetInCU: 0x2463E, offset: 0x5C737, size: 0x8, addend: 0x0, symName: '__ZNKSt3__122__compressed_pair_elemIPNS_5tupleIJNS_10unique_ptrINS_15__thread_structENS_14default_deleteIS3_EEEEMNS_19__async_assoc_stateINS_6vectorINS_4pairI8PositioniEENS_9allocatorISB_EEEENS_12__async_funcIZNK12PossibleGrid20identifyUniqueValuesEibE3$_1JEEEEEFvvEPSJ_EEELi0ELb0EE5__getB7v160006Ev', symObjAddr: 0x160F0, symBinAddr: 0x100022EE0, symSize: 0x10 }
  - { offsetInCU: 0x24662, offset: 0x5C75B, size: 0x8, addend: 0x0, symName: '__ZNSt3__117__compressed_pairIPNS_5tupleIJNS_10unique_ptrINS_15__thread_structENS_14default_deleteIS3_EEEEMNS_19__async_assoc_stateINS_6vectorINS_4pairI8PositioniEENS_9allocatorISB_EEEENS_12__async_funcIZNK12PossibleGrid20identifyUniqueValuesEibE3$_1JEEEEEFvvEPSJ_EEENS4_ISN_EEE5firstB7v160006Ev', symObjAddr: 0x16100, symBinAddr: 0x100022EF0, symSize: 0x20 }
  - { offsetInCU: 0x24686, offset: 0x5C77F, size: 0x8, addend: 0x0, symName: '__ZNSt3__122__compressed_pair_elemIPNS_5tupleIJNS_10unique_ptrINS_15__thread_structENS_14default_deleteIS3_EEEEMNS_19__async_assoc_stateINS_6vectorINS_4pairI8PositioniEENS_9allocatorISB_EEEENS_12__async_funcIZNK12PossibleGrid20identifyUniqueValuesEibE3$_1JEEEEEFvvEPSJ_EEELi0ELb0EE5__getB7v160006Ev', symObjAddr: 0x16120, symBinAddr: 0x100022F10, symSize: 0x10 }
  - { offsetInCU: 0x246AA, offset: 0x5C7A3, size: 0x8, addend: 0x0, symName: '__ZNSt3__110unique_ptrINS_5tupleIJNS0_INS_15__thread_structENS_14default_deleteIS2_EEEEMNS_19__async_assoc_stateINS_6vectorINS_4pairI8PositioniEENS_9allocatorISA_EEEENS_12__async_funcIZNK12PossibleGrid20identifyUniqueValuesEibE3$_1JEEEEEFvvEPSI_EEENS3_ISM_EEED2B7v160006Ev', symObjAddr: 0x16130, symBinAddr: 0x100022F20, symSize: 0x20 }
  - { offsetInCU: 0x246D3, offset: 0x5C7CC, size: 0x8, addend: 0x0, symName: '__ZNSt3__110unique_ptrINS_5tupleIJNS0_INS_15__thread_structENS_14default_deleteIS2_EEEEMNS_19__async_assoc_stateINS_6vectorINS_4pairI8PositioniEENS_9allocatorISA_EEEENS_12__async_funcIZNK12PossibleGrid20identifyUniqueValuesEibE3$_1JEEEEEFvvEPSI_EEENS3_ISM_EEE5resetB7v160006EPSM_', symObjAddr: 0x16150, symBinAddr: 0x100022F40, symSize: 0x70 }
  - { offsetInCU: 0x24715, offset: 0x5C80E, size: 0x8, addend: 0x0, symName: '__ZNSt3__117__compressed_pairIPNS_5tupleIJNS_10unique_ptrINS_15__thread_structENS_14default_deleteIS3_EEEEMNS_19__async_assoc_stateINS_6vectorINS_4pairI8PositioniEENS_9allocatorISB_EEEENS_12__async_funcIZNK12PossibleGrid20identifyUniqueValuesEibE3$_1JEEEEEFvvEPSJ_EEENS4_ISN_EEE6secondB7v160006Ev', symObjAddr: 0x161C0, symBinAddr: 0x100022FB0, symSize: 0x20 }
  - { offsetInCU: 0x24739, offset: 0x5C832, size: 0x8, addend: 0x0, symName: '__ZNKSt3__114default_deleteINS_5tupleIJNS_10unique_ptrINS_15__thread_structENS0_IS3_EEEEMNS_19__async_assoc_stateINS_6vectorINS_4pairI8PositioniEENS_9allocatorISA_EEEENS_12__async_funcIZNK12PossibleGrid20identifyUniqueValuesEibE3$_1JEEEEEFvvEPSI_EEEEclB7v160006EPSM_', symObjAddr: 0x161E0, symBinAddr: 0x100022FD0, symSize: 0x40 }
  - { offsetInCU: 0x2476B, offset: 0x5C864, size: 0x8, addend: 0x0, symName: '__ZNSt3__122__compressed_pair_elemINS_14default_deleteINS_5tupleIJNS_10unique_ptrINS_15__thread_structENS1_IS4_EEEEMNS_19__async_assoc_stateINS_6vectorINS_4pairI8PositioniEENS_9allocatorISB_EEEENS_12__async_funcIZNK12PossibleGrid20identifyUniqueValuesEibE3$_1JEEEEEFvvEPSJ_EEEEELi1ELb1EE5__getB7v160006Ev', symObjAddr: 0x16220, symBinAddr: 0x100023010, symSize: 0x10 }
  - { offsetInCU: 0x2478F, offset: 0x5C888, size: 0x8, addend: 0x0, symName: '__ZNSt3__15tupleIJNS_10unique_ptrINS_15__thread_structENS_14default_deleteIS2_EEEEMNS_19__async_assoc_stateINS_6vectorINS_4pairI8PositioniEENS_9allocatorISA_EEEENS_12__async_funcIZNK12PossibleGrid20identifyUniqueValuesEibE3$_1JEEEEEFvvEPSI_EED1Ev', symObjAddr: 0x16230, symBinAddr: 0x100023020, symSize: 0x20 }
  - { offsetInCU: 0x247BB, offset: 0x5C8B4, size: 0x8, addend: 0x0, symName: '__ZNSt3__15tupleIJNS_10unique_ptrINS_15__thread_structENS_14default_deleteIS2_EEEEMNS_19__async_assoc_stateINS_6vectorINS_4pairI8PositioniEENS_9allocatorISA_EEEENS_12__async_funcIZNK12PossibleGrid20identifyUniqueValuesEibE3$_1JEEEEEFvvEPSI_EED2Ev', symObjAddr: 0x16250, symBinAddr: 0x100023040, symSize: 0x20 }
  - { offsetInCU: 0x247E7, offset: 0x5C8E0, size: 0x8, addend: 0x0, symName: '__ZNSt3__112__tuple_implINS_15__tuple_indicesIJLm0ELm1ELm2EEEEJNS_10unique_ptrINS_15__thread_structENS_14default_deleteIS4_EEEEMNS_19__async_assoc_stateINS_6vectorINS_4pairI8PositioniEENS_9allocatorISC_EEEENS_12__async_funcIZNK12PossibleGrid20identifyUniqueValuesEibE3$_1JEEEEEFvvEPSK_EED1Ev', symObjAddr: 0x16270, symBinAddr: 0x100023060, symSize: 0x20 }
  - { offsetInCU: 0x24813, offset: 0x5C90C, size: 0x8, addend: 0x0, symName: '__ZNSt3__112__tuple_implINS_15__tuple_indicesIJLm0ELm1ELm2EEEEJNS_10unique_ptrINS_15__thread_structENS_14default_deleteIS4_EEEEMNS_19__async_assoc_stateINS_6vectorINS_4pairI8PositioniEENS_9allocatorISC_EEEENS_12__async_funcIZNK12PossibleGrid20identifyUniqueValuesEibE3$_1JEEEEEFvvEPSK_EED2Ev', symObjAddr: 0x16290, symBinAddr: 0x100023080, symSize: 0x20 }
  - { offsetInCU: 0x2483F, offset: 0x5C938, size: 0x8, addend: 0x0, symName: __ZNSt3__16futureINS_6vectorINS_4pairI8PositioniEENS_9allocatorIS4_EEEEEC2EPNS_13__assoc_stateIS7_EE, symObjAddr: 0x162B0, symBinAddr: 0x1000230A0, symSize: 0x30 }
  - { offsetInCU: 0x24879, offset: 0x5C972, size: 0x8, addend: 0x0, symName: __ZNSt3__117__assoc_sub_state15__attach_futureB7v160006Ev, symObjAddr: 0x162E0, symBinAddr: 0x1000230D0, symSize: 0xB0 }
  - { offsetInCU: 0x248D4, offset: 0x5C9CD, size: 0x8, addend: 0x0, symName: __ZNSt3__110lock_guardINS_5mutexEEC1B7v160006ERS1_, symObjAddr: 0x16390, symBinAddr: 0x100023180, symSize: 0x30 }
  - { offsetInCU: 0x2490B, offset: 0x5CA04, size: 0x8, addend: 0x0, symName: __ZNSt3__114__shared_count12__add_sharedB7v160006Ev, symObjAddr: 0x163C0, symBinAddr: 0x1000231B0, symSize: 0x20 }
  - { offsetInCU: 0x2492F, offset: 0x5CA28, size: 0x8, addend: 0x0, symName: __ZNSt3__110lock_guardINS_5mutexEED1B7v160006Ev, symObjAddr: 0x163E0, symBinAddr: 0x1000231D0, symSize: 0x20 }
  - { offsetInCU: 0x24958, offset: 0x5CA51, size: 0x8, addend: 0x0, symName: __ZNSt3__110lock_guardINS_5mutexEEC2B7v160006ERS1_, symObjAddr: 0x16400, symBinAddr: 0x1000231F0, symSize: 0x30 }
  - { offsetInCU: 0x2498F, offset: 0x5CA88, size: 0x8, addend: 0x0, symName: __ZNSt3__110lock_guardINS_5mutexEED2B7v160006Ev, symObjAddr: 0x16460, symBinAddr: 0x100023250, symSize: 0x20 }
  - { offsetInCU: 0x249B8, offset: 0x5CAB1, size: 0x8, addend: 0x0, symName: '__ZNSt3__110unique_ptrINS_19__async_assoc_stateINS_6vectorINS_4pairI8PositioniEENS_9allocatorIS5_EEEENS_12__async_funcIZNK12PossibleGrid20identifyUniqueValuesEibE3$_1JEEEEENS_22__release_shared_countEED2B7v160006Ev', symObjAddr: 0x16480, symBinAddr: 0x100023270, symSize: 0x20 }
  - { offsetInCU: 0x249E1, offset: 0x5CADA, size: 0x8, addend: 0x0, symName: '__ZNSt3__110unique_ptrINS_19__async_assoc_stateINS_6vectorINS_4pairI8PositioniEENS_9allocatorIS5_EEEENS_12__async_funcIZNK12PossibleGrid20identifyUniqueValuesEibE3$_1JEEEEENS_22__release_shared_countEE5resetB7v160006EPSD_', symObjAddr: 0x164A0, symBinAddr: 0x100023290, symSize: 0x70 }
  - { offsetInCU: 0x24A23, offset: 0x5CB1C, size: 0x8, addend: 0x0, symName: '__ZNSt3__117__compressed_pairIPNS_19__async_assoc_stateINS_6vectorINS_4pairI8PositioniEENS_9allocatorIS5_EEEENS_12__async_funcIZNK12PossibleGrid20identifyUniqueValuesEibE3$_1JEEEEENS_22__release_shared_countEE5firstB7v160006Ev', symObjAddr: 0x16510, symBinAddr: 0x100023300, symSize: 0x20 }
  - { offsetInCU: 0x24A47, offset: 0x5CB40, size: 0x8, addend: 0x0, symName: '__ZNSt3__117__compressed_pairIPNS_19__async_assoc_stateINS_6vectorINS_4pairI8PositioniEENS_9allocatorIS5_EEEENS_12__async_funcIZNK12PossibleGrid20identifyUniqueValuesEibE3$_1JEEEEENS_22__release_shared_countEE6secondB7v160006Ev', symObjAddr: 0x16530, symBinAddr: 0x100023320, symSize: 0x20 }
  - { offsetInCU: 0x24A6B, offset: 0x5CB64, size: 0x8, addend: 0x0, symName: '__ZNSt3__122__compressed_pair_elemIPNS_19__async_assoc_stateINS_6vectorINS_4pairI8PositioniEENS_9allocatorIS5_EEEENS_12__async_funcIZNK12PossibleGrid20identifyUniqueValuesEibE3$_1JEEEEELi0ELb0EE5__getB7v160006Ev', symObjAddr: 0x16550, symBinAddr: 0x100023340, symSize: 0x10 }
  - { offsetInCU: 0x24A8F, offset: 0x5CB88, size: 0x8, addend: 0x0, symName: '__ZNSt3__112__async_funcIZNK12PossibleGrid20identifyUniqueValuesEibE3$_1JEEC2B7v160006EOS2_', symObjAddr: 0x16560, symBinAddr: 0x100023350, symSize: 0x30 }
  - { offsetInCU: 0x24AC7, offset: 0x5CBC0, size: 0x8, addend: 0x0, symName: '__ZNSt3__15tupleIJZNK12PossibleGrid20identifyUniqueValuesEibE3$_1EEC1B7v160006IJS2_ELi0EEEDpOT_', symObjAddr: 0x16590, symBinAddr: 0x100023380, symSize: 0x30 }
  - { offsetInCU: 0x24B10, offset: 0x5CC09, size: 0x8, addend: 0x0, symName: '__ZNSt3__15tupleIJZNK12PossibleGrid20identifyUniqueValuesEibE3$_1EEC2B7v160006IJS2_ELi0EEEDpOT_', symObjAddr: 0x165C0, symBinAddr: 0x1000233B0, symSize: 0x30 }
  - { offsetInCU: 0x24B59, offset: 0x5CC52, size: 0x8, addend: 0x0, symName: '__ZNSt3__112__tuple_implINS_15__tuple_indicesIJLm0EEEEJZNK12PossibleGrid20identifyUniqueValuesEibE3$_1EEC1B7v160006IJLm0EEJS4_EJEJEJS4_EEENS1_IJXspT_EEEENS_13__tuple_typesIJDpT0_EEENS1_IJXspT1_EEEENS8_IJDpT2_EEEDpOT3_', symObjAddr: 0x165F0, symBinAddr: 0x1000233E0, symSize: 0x30 }
  - { offsetInCU: 0x24BED, offset: 0x5CCE6, size: 0x8, addend: 0x0, symName: '__ZNSt3__112__tuple_implINS_15__tuple_indicesIJLm0EEEEJZNK12PossibleGrid20identifyUniqueValuesEibE3$_1EEC2B7v160006IJLm0EEJS4_EJEJEJS4_EEENS1_IJXspT_EEEENS_13__tuple_typesIJDpT0_EEENS1_IJXspT1_EEEENS8_IJDpT2_EEEDpOT3_', symObjAddr: 0x16620, symBinAddr: 0x100023410, symSize: 0x30 }
  - { offsetInCU: 0x24C81, offset: 0x5CD7A, size: 0x8, addend: 0x0, symName: '__ZNSt3__112__tuple_leafILm0EZNK12PossibleGrid20identifyUniqueValuesEibE3$_1Lb0EEC2B7v160006IS2_vEEOT_', symObjAddr: 0x16650, symBinAddr: 0x100023440, symSize: 0x40 }
  - { offsetInCU: 0x24CC8, offset: 0x5CDC1, size: 0x8, addend: 0x0, symName: '__ZNSt3__122__deferred_assoc_stateINS_6vectorINS_4pairI8PositioniEENS_9allocatorIS4_EEEENS_12__async_funcIZNK12PossibleGrid20identifyUniqueValuesEibE3$_1JEEEEC1EOSB_', symObjAddr: 0x16690, symBinAddr: 0x100023480, symSize: 0x30 }
  - { offsetInCU: 0x24D70, offset: 0x5CE69, size: 0x8, addend: 0x0, symName: '__ZNSt3__110unique_ptrINS_22__deferred_assoc_stateINS_6vectorINS_4pairI8PositioniEENS_9allocatorIS5_EEEENS_12__async_funcIZNK12PossibleGrid20identifyUniqueValuesEibE3$_1JEEEEENS_22__release_shared_countEEC1B7v160006ILb1EvEEPSD_', symObjAddr: 0x166C0, symBinAddr: 0x1000234B0, symSize: 0x30 }
  - { offsetInCU: 0x24DB2, offset: 0x5CEAB, size: 0x8, addend: 0x0, symName: '__ZNKSt3__110unique_ptrINS_22__deferred_assoc_stateINS_6vectorINS_4pairI8PositioniEENS_9allocatorIS5_EEEENS_12__async_funcIZNK12PossibleGrid20identifyUniqueValuesEibE3$_1JEEEEENS_22__release_shared_countEE3getB7v160006Ev', symObjAddr: 0x166F0, symBinAddr: 0x1000234E0, symSize: 0x20 }
  - { offsetInCU: 0x24DD6, offset: 0x5CECF, size: 0x8, addend: 0x0, symName: '__ZNSt3__110unique_ptrINS_22__deferred_assoc_stateINS_6vectorINS_4pairI8PositioniEENS_9allocatorIS5_EEEENS_12__async_funcIZNK12PossibleGrid20identifyUniqueValuesEibE3$_1JEEEEENS_22__release_shared_countEED1B7v160006Ev', symObjAddr: 0x16710, symBinAddr: 0x100023500, symSize: 0x20 }
  - { offsetInCU: 0x24DFF, offset: 0x5CEF8, size: 0x8, addend: 0x0, symName: '__ZNSt3__122__deferred_assoc_stateINS_6vectorINS_4pairI8PositioniEENS_9allocatorIS4_EEEENS_12__async_funcIZNK12PossibleGrid20identifyUniqueValuesEibE3$_1JEEEEC2EOSB_', symObjAddr: 0x16730, symBinAddr: 0x100023520, symSize: 0x70 }
  - { offsetInCU: 0x24E39, offset: 0x5CF32, size: 0x8, addend: 0x0, symName: '__ZNSt3__122__deferred_assoc_stateINS_6vectorINS_4pairI8PositioniEENS_9allocatorIS4_EEEENS_12__async_funcIZNK12PossibleGrid20identifyUniqueValuesEibE3$_1JEEEED1Ev', symObjAddr: 0x167A0, symBinAddr: 0x100023590, symSize: 0x20 }
  - { offsetInCU: 0x24E65, offset: 0x5CF5E, size: 0x8, addend: 0x0, symName: '__ZNSt3__122__deferred_assoc_stateINS_6vectorINS_4pairI8PositioniEENS_9allocatorIS4_EEEENS_12__async_funcIZNK12PossibleGrid20identifyUniqueValuesEibE3$_1JEEEED0Ev', symObjAddr: 0x167C0, symBinAddr: 0x1000235B0, symSize: 0x30 }
  - { offsetInCU: 0x24E91, offset: 0x5CF8A, size: 0x8, addend: 0x0, symName: '__ZNSt3__122__deferred_assoc_stateINS_6vectorINS_4pairI8PositioniEENS_9allocatorIS4_EEEENS_12__async_funcIZNK12PossibleGrid20identifyUniqueValuesEibE3$_1JEEEE9__executeEv', symObjAddr: 0x167F0, symBinAddr: 0x1000235E0, symSize: 0xE0 }
  - { offsetInCU: 0x24EB8, offset: 0x5CFB1, size: 0x8, addend: 0x0, symName: '__ZNSt3__122__deferred_assoc_stateINS_6vectorINS_4pairI8PositioniEENS_9allocatorIS4_EEEENS_12__async_funcIZNK12PossibleGrid20identifyUniqueValuesEibE3$_1JEEEED2Ev', symObjAddr: 0x168D0, symBinAddr: 0x1000236C0, symSize: 0x20 }
  - { offsetInCU: 0x24EE4, offset: 0x5CFDD, size: 0x8, addend: 0x0, symName: '__ZNSt3__110unique_ptrINS_22__deferred_assoc_stateINS_6vectorINS_4pairI8PositioniEENS_9allocatorIS5_EEEENS_12__async_funcIZNK12PossibleGrid20identifyUniqueValuesEibE3$_1JEEEEENS_22__release_shared_countEEC2B7v160006ILb1EvEEPSD_', symObjAddr: 0x168F0, symBinAddr: 0x1000236E0, symSize: 0x40 }
  - { offsetInCU: 0x24F26, offset: 0x5D01F, size: 0x8, addend: 0x0, symName: '__ZNSt3__117__compressed_pairIPNS_22__deferred_assoc_stateINS_6vectorINS_4pairI8PositioniEENS_9allocatorIS5_EEEENS_12__async_funcIZNK12PossibleGrid20identifyUniqueValuesEibE3$_1JEEEEENS_22__release_shared_countEEC1B7v160006IRSE_NS_16__value_init_tagEEEOT_OT0_', symObjAddr: 0x16930, symBinAddr: 0x100023720, symSize: 0x30 }
  - { offsetInCU: 0x24F7D, offset: 0x5D076, size: 0x8, addend: 0x0, symName: '__ZNSt3__117__compressed_pairIPNS_22__deferred_assoc_stateINS_6vectorINS_4pairI8PositioniEENS_9allocatorIS5_EEEENS_12__async_funcIZNK12PossibleGrid20identifyUniqueValuesEibE3$_1JEEEEENS_22__release_shared_countEEC2B7v160006IRSE_NS_16__value_init_tagEEEOT_OT0_', symObjAddr: 0x16960, symBinAddr: 0x100023750, symSize: 0x40 }
  - { offsetInCU: 0x24FD4, offset: 0x5D0CD, size: 0x8, addend: 0x0, symName: '__ZNSt3__122__compressed_pair_elemIPNS_22__deferred_assoc_stateINS_6vectorINS_4pairI8PositioniEENS_9allocatorIS5_EEEENS_12__async_funcIZNK12PossibleGrid20identifyUniqueValuesEibE3$_1JEEEEELi0ELb0EEC2B7v160006IRSE_vEEOT_', symObjAddr: 0x169A0, symBinAddr: 0x100023790, symSize: 0x20 }
  - { offsetInCU: 0x25015, offset: 0x5D10E, size: 0x8, addend: 0x0, symName: '__ZNKSt3__117__compressed_pairIPNS_22__deferred_assoc_stateINS_6vectorINS_4pairI8PositioniEENS_9allocatorIS5_EEEENS_12__async_funcIZNK12PossibleGrid20identifyUniqueValuesEibE3$_1JEEEEENS_22__release_shared_countEE5firstB7v160006Ev', symObjAddr: 0x169C0, symBinAddr: 0x1000237B0, symSize: 0x20 }
  - { offsetInCU: 0x25039, offset: 0x5D132, size: 0x8, addend: 0x0, symName: '__ZNKSt3__122__compressed_pair_elemIPNS_22__deferred_assoc_stateINS_6vectorINS_4pairI8PositioniEENS_9allocatorIS5_EEEENS_12__async_funcIZNK12PossibleGrid20identifyUniqueValuesEibE3$_1JEEEEELi0ELb0EE5__getB7v160006Ev', symObjAddr: 0x169E0, symBinAddr: 0x1000237D0, symSize: 0x10 }
  - { offsetInCU: 0x2505D, offset: 0x5D156, size: 0x8, addend: 0x0, symName: '__ZNSt3__110unique_ptrINS_22__deferred_assoc_stateINS_6vectorINS_4pairI8PositioniEENS_9allocatorIS5_EEEENS_12__async_funcIZNK12PossibleGrid20identifyUniqueValuesEibE3$_1JEEEEENS_22__release_shared_countEED2B7v160006Ev', symObjAddr: 0x169F0, symBinAddr: 0x1000237E0, symSize: 0x20 }
  - { offsetInCU: 0x25086, offset: 0x5D17F, size: 0x8, addend: 0x0, symName: '__ZNSt3__110unique_ptrINS_22__deferred_assoc_stateINS_6vectorINS_4pairI8PositioniEENS_9allocatorIS5_EEEENS_12__async_funcIZNK12PossibleGrid20identifyUniqueValuesEibE3$_1JEEEEENS_22__release_shared_countEE5resetB7v160006EPSD_', symObjAddr: 0x16A10, symBinAddr: 0x100023800, symSize: 0x70 }
  - { offsetInCU: 0x250C8, offset: 0x5D1C1, size: 0x8, addend: 0x0, symName: '__ZNSt3__117__compressed_pairIPNS_22__deferred_assoc_stateINS_6vectorINS_4pairI8PositioniEENS_9allocatorIS5_EEEENS_12__async_funcIZNK12PossibleGrid20identifyUniqueValuesEibE3$_1JEEEEENS_22__release_shared_countEE5firstB7v160006Ev', symObjAddr: 0x16A80, symBinAddr: 0x100023870, symSize: 0x20 }
  - { offsetInCU: 0x250EC, offset: 0x5D1E5, size: 0x8, addend: 0x0, symName: '__ZNSt3__117__compressed_pairIPNS_22__deferred_assoc_stateINS_6vectorINS_4pairI8PositioniEENS_9allocatorIS5_EEEENS_12__async_funcIZNK12PossibleGrid20identifyUniqueValuesEibE3$_1JEEEEENS_22__release_shared_countEE6secondB7v160006Ev', symObjAddr: 0x16AA0, symBinAddr: 0x100023890, symSize: 0x20 }
  - { offsetInCU: 0x25110, offset: 0x5D209, size: 0x8, addend: 0x0, symName: '__ZNSt3__122__compressed_pair_elemIPNS_22__deferred_assoc_stateINS_6vectorINS_4pairI8PositioniEENS_9allocatorIS5_EEEENS_12__async_funcIZNK12PossibleGrid20identifyUniqueValuesEibE3$_1JEEEEELi0ELb0EE5__getB7v160006Ev', symObjAddr: 0x16AC0, symBinAddr: 0x1000238B0, symSize: 0x10 }
  - { offsetInCU: 0x25134, offset: 0x5D22D, size: 0x8, addend: 0x0, symName: __ZNSt3__16futureINS_6vectorINS_4pairI8PositioniEENS_9allocatorIS4_EEEEEC2B7v160006Ev, symObjAddr: 0x16AD0, symBinAddr: 0x1000238C0, symSize: 0x20 }
  - { offsetInCU: 0x2515D, offset: 0x5D256, size: 0x8, addend: 0x0, symName: __ZNSt3__16futureINS_6vectorINS_4pairI8PositioniEENS_9allocatorIS4_EEEEED2Ev, symObjAddr: 0x16AF0, symBinAddr: 0x1000238E0, symSize: 0x30 }
  - { offsetInCU: 0x25188, offset: 0x5D281, size: 0x8, addend: 0x0, symName: __ZNSt3__16vectorINS_6futureINS0_INS_4pairI8PositioniEENS_9allocatorIS4_EEEEEENS5_IS8_EEE9__end_capB7v160006Ev, symObjAddr: 0x16B20, symBinAddr: 0x100023910, symSize: 0x20 }
  - { offsetInCU: 0x251AC, offset: 0x5D2A5, size: 0x8, addend: 0x0, symName: __ZNSt3__16vectorINS_6futureINS0_INS_4pairI8PositioniEENS_9allocatorIS4_EEEEEENS5_IS8_EEE22__construct_one_at_endB7v160006IJS8_EEEvDpOT_, symObjAddr: 0x16B40, symBinAddr: 0x100023930, symSize: 0x90 }
  - { offsetInCU: 0x251F9, offset: 0x5D2F2, size: 0x8, addend: 0x0, symName: __ZNSt3__16vectorINS_6futureINS0_INS_4pairI8PositioniEENS_9allocatorIS4_EEEEEENS5_IS8_EEE21__push_back_slow_pathIS8_EEvOT_, symObjAddr: 0x16BD0, symBinAddr: 0x1000239C0, symSize: 0xD0 }
  - { offsetInCU: 0x25256, offset: 0x5D34F, size: 0x8, addend: 0x0, symName: __ZNSt3__117__compressed_pairIPNS_6futureINS_6vectorINS_4pairI8PositioniEENS_9allocatorIS5_EEEEEENS6_IS9_EEE5firstB7v160006Ev, symObjAddr: 0x16CA0, symBinAddr: 0x100023A90, symSize: 0x20 }
  - { offsetInCU: 0x2527A, offset: 0x5D373, size: 0x8, addend: 0x0, symName: __ZNSt3__122__compressed_pair_elemIPNS_6futureINS_6vectorINS_4pairI8PositioniEENS_9allocatorIS5_EEEEEELi0ELb0EE5__getB7v160006Ev, symObjAddr: 0x16CC0, symBinAddr: 0x100023AB0, symSize: 0x10 }
  - { offsetInCU: 0x252B7, offset: 0x5D3B0, size: 0x8, addend: 0x0, symName: __ZNSt3__16vectorINS_6futureINS0_INS_4pairI8PositioniEENS_9allocatorIS4_EEEEEENS5_IS8_EEE21_ConstructTransactionC1B7v160006ERSA_m, symObjAddr: 0x16CD0, symBinAddr: 0x100023AC0, symSize: 0x30 }
  - { offsetInCU: 0x252FE, offset: 0x5D3F7, size: 0x8, addend: 0x0, symName: __ZNSt3__116allocator_traitsINS_9allocatorINS_6futureINS_6vectorINS_4pairI8PositioniEENS1_IS6_EEEEEEEEE9constructB7v160006IS9_JS9_EvEEvRSA_PT_DpOT0_, symObjAddr: 0x16D00, symBinAddr: 0x100023AF0, symSize: 0x30 }
  - { offsetInCU: 0x25355, offset: 0x5D44E, size: 0x8, addend: 0x0, symName: __ZNSt3__16vectorINS_6futureINS0_INS_4pairI8PositioniEENS_9allocatorIS4_EEEEEENS5_IS8_EEE21_ConstructTransactionD1B7v160006Ev, symObjAddr: 0x16D30, symBinAddr: 0x100023B20, symSize: 0x20 }
  - { offsetInCU: 0x2537E, offset: 0x5D477, size: 0x8, addend: 0x0, symName: __ZNSt3__16vectorINS_6futureINS0_INS_4pairI8PositioniEENS_9allocatorIS4_EEEEEENS5_IS8_EEE21_ConstructTransactionC2B7v160006ERSA_m, symObjAddr: 0x16D50, symBinAddr: 0x100023B40, symSize: 0x40 }
  - { offsetInCU: 0x253C5, offset: 0x5D4BE, size: 0x8, addend: 0x0, symName: __ZNSt3__19allocatorINS_6futureINS_6vectorINS_4pairI8PositioniEENS0_IS5_EEEEEEE9constructB7v160006IS8_JS8_EEEvPT_DpOT0_, symObjAddr: 0x16D90, symBinAddr: 0x100023B80, symSize: 0x30 }
  - { offsetInCU: 0x25419, offset: 0x5D512, size: 0x8, addend: 0x0, symName: __ZNSt3__16futureINS_6vectorINS_4pairI8PositioniEENS_9allocatorIS4_EEEEEC1B7v160006EOS8_, symObjAddr: 0x16DC0, symBinAddr: 0x100023BB0, symSize: 0x30 }
  - { offsetInCU: 0x25451, offset: 0x5D54A, size: 0x8, addend: 0x0, symName: __ZNSt3__16futureINS_6vectorINS_4pairI8PositioniEENS_9allocatorIS4_EEEEEC2B7v160006EOS8_, symObjAddr: 0x16DF0, symBinAddr: 0x100023BE0, symSize: 0x30 }
  - { offsetInCU: 0x25489, offset: 0x5D582, size: 0x8, addend: 0x0, symName: __ZNSt3__16vectorINS_6futureINS0_INS_4pairI8PositioniEENS_9allocatorIS4_EEEEEENS5_IS8_EEE21_ConstructTransactionD2B7v160006Ev, symObjAddr: 0x16E20, symBinAddr: 0x100023C10, symSize: 0x20 }
  - { offsetInCU: 0x254B2, offset: 0x5D5AB, size: 0x8, addend: 0x0, symName: __ZNKSt3__16vectorINS_6futureINS0_INS_4pairI8PositioniEENS_9allocatorIS4_EEEEEENS5_IS8_EEE11__recommendB7v160006Em, symObjAddr: 0x16E40, symBinAddr: 0x100023C30, symSize: 0xA0 }
  - { offsetInCU: 0x25506, offset: 0x5D5FF, size: 0x8, addend: 0x0, symName: __ZNSt3__114__split_bufferINS_6futureINS_6vectorINS_4pairI8PositioniEENS_9allocatorIS5_EEEEEERNS6_IS9_EEEC1EmmSB_, symObjAddr: 0x16EE0, symBinAddr: 0x100023CD0, symSize: 0x40 }
  - { offsetInCU: 0x2555B, offset: 0x5D654, size: 0x8, addend: 0x0, symName: __ZNSt3__114__split_bufferINS_6futureINS_6vectorINS_4pairI8PositioniEENS_9allocatorIS5_EEEEEERNS6_IS9_EEED1Ev, symObjAddr: 0x17050, symBinAddr: 0x100023E40, symSize: 0x20 }
  - { offsetInCU: 0x25586, offset: 0x5D67F, size: 0x8, addend: 0x0, symName: __ZNKSt3__16vectorINS_6futureINS0_INS_4pairI8PositioniEENS_9allocatorIS4_EEEEEENS5_IS8_EEE8max_sizeEv, symObjAddr: 0x17070, symBinAddr: 0x100023E60, symSize: 0x60 }
  - { offsetInCU: 0x255AD, offset: 0x5D6A6, size: 0x8, addend: 0x0, symName: __ZNKSt3__16vectorINS_6futureINS0_INS_4pairI8PositioniEENS_9allocatorIS4_EEEEEENS5_IS8_EEE20__throw_length_errorB7v160006Ev, symObjAddr: 0x170D0, symBinAddr: 0x100023EC0, symSize: 0x20 }
  - { offsetInCU: 0x255DB, offset: 0x5D6D4, size: 0x8, addend: 0x0, symName: __ZNSt3__116allocator_traitsINS_9allocatorINS_6futureINS_6vectorINS_4pairI8PositioniEENS1_IS6_EEEEEEEEE8max_sizeB7v160006ISA_vEEmRKSA_, symObjAddr: 0x170F0, symBinAddr: 0x100023EE0, symSize: 0x20 }
  - { offsetInCU: 0x25609, offset: 0x5D702, size: 0x8, addend: 0x0, symName: __ZNKSt3__16vectorINS_6futureINS0_INS_4pairI8PositioniEENS_9allocatorIS4_EEEEEENS5_IS8_EEE7__allocB7v160006Ev, symObjAddr: 0x17110, symBinAddr: 0x100023F00, symSize: 0x20 }
  - { offsetInCU: 0x2562D, offset: 0x5D726, size: 0x8, addend: 0x0, symName: __ZNKSt3__19allocatorINS_6futureINS_6vectorINS_4pairI8PositioniEENS0_IS5_EEEEEEE8max_sizeB7v160006Ev, symObjAddr: 0x17130, symBinAddr: 0x100023F20, symSize: 0x20 }
  - { offsetInCU: 0x25651, offset: 0x5D74A, size: 0x8, addend: 0x0, symName: __ZNKSt3__117__compressed_pairIPNS_6futureINS_6vectorINS_4pairI8PositioniEENS_9allocatorIS5_EEEEEENS6_IS9_EEE6secondB7v160006Ev, symObjAddr: 0x17150, symBinAddr: 0x100023F40, symSize: 0x20 }
  - { offsetInCU: 0x25675, offset: 0x5D76E, size: 0x8, addend: 0x0, symName: __ZNKSt3__122__compressed_pair_elemINS_9allocatorINS_6futureINS_6vectorINS_4pairI8PositioniEENS1_IS6_EEEEEEEELi1ELb1EE5__getB7v160006Ev, symObjAddr: 0x17170, symBinAddr: 0x100023F60, symSize: 0x10 }
  - { offsetInCU: 0x25699, offset: 0x5D792, size: 0x8, addend: 0x0, symName: __ZNSt3__114__split_bufferINS_6futureINS_6vectorINS_4pairI8PositioniEENS_9allocatorIS5_EEEEEERNS6_IS9_EEEC2EmmSB_, symObjAddr: 0x17180, symBinAddr: 0x100023F70, symSize: 0xD0 }
  - { offsetInCU: 0x2570C, offset: 0x5D805, size: 0x8, addend: 0x0, symName: __ZNSt3__117__compressed_pairIPNS_6futureINS_6vectorINS_4pairI8PositioniEENS_9allocatorIS5_EEEEEERNS6_IS9_EEEC1B7v160006IDnSC_EEOT_OT0_, symObjAddr: 0x17250, symBinAddr: 0x100024040, symSize: 0x30 }
  - { offsetInCU: 0x25763, offset: 0x5D85C, size: 0x8, addend: 0x0, symName: __ZNSt3__114__split_bufferINS_6futureINS_6vectorINS_4pairI8PositioniEENS_9allocatorIS5_EEEEEERNS6_IS9_EEE7__allocB7v160006Ev, symObjAddr: 0x172C0, symBinAddr: 0x1000240B0, symSize: 0x20 }
  - { offsetInCU: 0x25787, offset: 0x5D880, size: 0x8, addend: 0x0, symName: __ZNSt3__114__split_bufferINS_6futureINS_6vectorINS_4pairI8PositioniEENS_9allocatorIS5_EEEEEERNS6_IS9_EEE9__end_capB7v160006Ev, symObjAddr: 0x172E0, symBinAddr: 0x1000240D0, symSize: 0x20 }
  - { offsetInCU: 0x257AB, offset: 0x5D8A4, size: 0x8, addend: 0x0, symName: __ZNSt3__117__compressed_pairIPNS_6futureINS_6vectorINS_4pairI8PositioniEENS_9allocatorIS5_EEEEEERNS6_IS9_EEEC2B7v160006IDnSC_EEOT_OT0_, symObjAddr: 0x17300, symBinAddr: 0x1000240F0, symSize: 0x40 }
  - { offsetInCU: 0x25802, offset: 0x5D8FB, size: 0x8, addend: 0x0, symName: __ZNSt3__122__compressed_pair_elemIRNS_9allocatorINS_6futureINS_6vectorINS_4pairI8PositioniEENS1_IS6_EEEEEEEELi1ELb0EEC2B7v160006ISB_vEEOT_, symObjAddr: 0x17340, symBinAddr: 0x100024130, symSize: 0x20 }
  - { offsetInCU: 0x25843, offset: 0x5D93C, size: 0x8, addend: 0x0, symName: __ZNSt3__19allocatorINS_6futureINS_6vectorINS_4pairI8PositioniEENS0_IS5_EEEEEEE8allocateB7v160006Em, symObjAddr: 0x17360, symBinAddr: 0x100024150, symSize: 0x50 }
  - { offsetInCU: 0x25875, offset: 0x5D96E, size: 0x8, addend: 0x0, symName: __ZNSt3__117__compressed_pairIPNS_6futureINS_6vectorINS_4pairI8PositioniEENS_9allocatorIS5_EEEEEERNS6_IS9_EEE6secondB7v160006Ev, symObjAddr: 0x173B0, symBinAddr: 0x1000241A0, symSize: 0x20 }
  - { offsetInCU: 0x25899, offset: 0x5D992, size: 0x8, addend: 0x0, symName: __ZNSt3__122__compressed_pair_elemIRNS_9allocatorINS_6futureINS_6vectorINS_4pairI8PositioniEENS1_IS6_EEEEEEEELi1ELb0EE5__getB7v160006Ev, symObjAddr: 0x173D0, symBinAddr: 0x1000241C0, symSize: 0x20 }
  - { offsetInCU: 0x258BD, offset: 0x5D9B6, size: 0x8, addend: 0x0, symName: __ZNSt3__117__compressed_pairIPNS_6futureINS_6vectorINS_4pairI8PositioniEENS_9allocatorIS5_EEEEEERNS6_IS9_EEE5firstB7v160006Ev, symObjAddr: 0x173F0, symBinAddr: 0x1000241E0, symSize: 0x20 }
  - { offsetInCU: 0x258E1, offset: 0x5D9DA, size: 0x8, addend: 0x0, symName: __ZNSt3__116reverse_iteratorIPNS_6futureINS_6vectorINS_4pairI8PositioniEENS_9allocatorIS5_EEEEEEEC1B7v160006ESA_, symObjAddr: 0x17590, symBinAddr: 0x100024380, symSize: 0x30 }
  - { offsetInCU: 0x25918, offset: 0x5DA11, size: 0x8, addend: 0x0, symName: __ZNKSt3__116reverse_iteratorIPNS_6futureINS_6vectorINS_4pairI8PositioniEENS_9allocatorIS5_EEEEEEE4baseB7v160006Ev, symObjAddr: 0x175C0, symBinAddr: 0x1000243B0, symSize: 0x20 }
  - { offsetInCU: 0x2593C, offset: 0x5DA35, size: 0x8, addend: 0x0, symName: __ZNKSt3__16vectorINS_6futureINS0_INS_4pairI8PositioniEENS_9allocatorIS4_EEEEEENS5_IS8_EEE14__annotate_newB7v160006Em, symObjAddr: 0x17620, symBinAddr: 0x100024410, symSize: 0xB0 }
  - { offsetInCU: 0x2596F, offset: 0x5DA68, size: 0x8, addend: 0x0, symName: __ZNSt3__129_AllocatorDestroyRangeReverseINS_9allocatorINS_6futureINS_6vectorINS_4pairI8PositioniEENS1_IS6_EEEEEEEENS_16reverse_iteratorIPS9_EEEC1B7v160006ERSA_RSD_SG_, symObjAddr: 0x17740, symBinAddr: 0x100024530, symSize: 0x40 }
  - { offsetInCU: 0x259C5, offset: 0x5DABE, size: 0x8, addend: 0x0, symName: __ZNKSt3__116reverse_iteratorIPNS_6futureINS_6vectorINS_4pairI8PositioniEENS_9allocatorIS5_EEEEEEEdeB7v160006Ev, symObjAddr: 0x177E0, symBinAddr: 0x1000245D0, symSize: 0x30 }
  - { offsetInCU: 0x259F7, offset: 0x5DAF0, size: 0x8, addend: 0x0, symName: __ZNSt3__116reverse_iteratorIPNS_6futureINS_6vectorINS_4pairI8PositioniEENS_9allocatorIS5_EEEEEEEppB7v160006Ev, symObjAddr: 0x17810, symBinAddr: 0x100024600, symSize: 0x20 }
  - { offsetInCU: 0x25A1B, offset: 0x5DB14, size: 0x8, addend: 0x0, symName: __ZNSt3__128__exception_guard_exceptionsINS_29_AllocatorDestroyRangeReverseINS_9allocatorINS_6futureINS_6vectorINS_4pairI8PositioniEENS2_IS7_EEEEEEEENS_16reverse_iteratorIPSA_EEEEE10__completeB7v160006Ev, symObjAddr: 0x17830, symBinAddr: 0x100024620, symSize: 0x20 }
  - { offsetInCU: 0x25A3F, offset: 0x5DB38, size: 0x8, addend: 0x0, symName: __ZNSt3__128__exception_guard_exceptionsINS_29_AllocatorDestroyRangeReverseINS_9allocatorINS_6futureINS_6vectorINS_4pairI8PositioniEENS2_IS7_EEEEEEEENS_16reverse_iteratorIPSA_EEEEED1B7v160006Ev, symObjAddr: 0x17850, symBinAddr: 0x100024640, symSize: 0x20 }
  - { offsetInCU: 0x25A68, offset: 0x5DB61, size: 0x8, addend: 0x0, symName: __ZNSt3__128__exception_guard_exceptionsINS_29_AllocatorDestroyRangeReverseINS_9allocatorINS_6futureINS_6vectorINS_4pairI8PositioniEENS2_IS7_EEEEEEEENS_16reverse_iteratorIPSA_EEEEEC1B7v160006ESF_, symObjAddr: 0x17870, symBinAddr: 0x100024660, symSize: 0x40 }
  - { offsetInCU: 0x25A9F, offset: 0x5DB98, size: 0x8, addend: 0x0, symName: __ZNSt3__128__exception_guard_exceptionsINS_29_AllocatorDestroyRangeReverseINS_9allocatorINS_6futureINS_6vectorINS_4pairI8PositioniEENS2_IS7_EEEEEEEENS_16reverse_iteratorIPSA_EEEEEC2B7v160006ESF_, symObjAddr: 0x178B0, symBinAddr: 0x1000246A0, symSize: 0x30 }
  - { offsetInCU: 0x25AD6, offset: 0x5DBCF, size: 0x8, addend: 0x0, symName: __ZNSt3__129_AllocatorDestroyRangeReverseINS_9allocatorINS_6futureINS_6vectorINS_4pairI8PositioniEENS1_IS6_EEEEEEEENS_16reverse_iteratorIPS9_EEEC2B7v160006ERSA_RSD_SG_, symObjAddr: 0x178E0, symBinAddr: 0x1000246D0, symSize: 0x40 }
  - { offsetInCU: 0x25B31, offset: 0x5DC2A, size: 0x8, addend: 0x0, symName: __ZNSt3__119__to_address_helperINS_16reverse_iteratorIPNS_6futureINS_6vectorINS_4pairI8PositioniEENS_9allocatorIS6_EEEEEEEEvE6__callB7v160006ERKSC_, symObjAddr: 0x17920, symBinAddr: 0x100024710, symSize: 0x40 }
  - { offsetInCU: 0x25B54, offset: 0x5DC4D, size: 0x8, addend: 0x0, symName: __ZNKSt3__116reverse_iteratorIPNS_6futureINS_6vectorINS_4pairI8PositioniEENS_9allocatorIS5_EEEEEEEptB7v160006Ev, symObjAddr: 0x17960, symBinAddr: 0x100024750, symSize: 0x20 }
  - { offsetInCU: 0x25B78, offset: 0x5DC71, size: 0x8, addend: 0x0, symName: __ZNSt3__128__exception_guard_exceptionsINS_29_AllocatorDestroyRangeReverseINS_9allocatorINS_6futureINS_6vectorINS_4pairI8PositioniEENS2_IS7_EEEEEEEENS_16reverse_iteratorIPSA_EEEEED2B7v160006Ev, symObjAddr: 0x17980, symBinAddr: 0x100024770, symSize: 0x40 }
  - { offsetInCU: 0x25BA1, offset: 0x5DC9A, size: 0x8, addend: 0x0, symName: __ZNKSt3__129_AllocatorDestroyRangeReverseINS_9allocatorINS_6futureINS_6vectorINS_4pairI8PositioniEENS1_IS6_EEEEEEEENS_16reverse_iteratorIPS9_EEEclB7v160006Ev, symObjAddr: 0x179C0, symBinAddr: 0x1000247B0, symSize: 0xF0 }
  - { offsetInCU: 0x25BC6, offset: 0x5DCBF, size: 0x8, addend: 0x0, symName: __ZNSt3__116reverse_iteratorINS0_IPNS_6futureINS_6vectorINS_4pairI8PositioniEENS_9allocatorIS5_EEEEEEEEEC1B7v160006ESB_, symObjAddr: 0x17B20, symBinAddr: 0x100024910, symSize: 0x30 }
  - { offsetInCU: 0x25BFD, offset: 0x5DCF6, size: 0x8, addend: 0x0, symName: __ZNSt3__116reverse_iteratorINS0_IPNS_6futureINS_6vectorINS_4pairI8PositioniEENS_9allocatorIS5_EEEEEEEEEppB7v160006Ev, symObjAddr: 0x17BC0, symBinAddr: 0x1000249B0, symSize: 0x30 }
  - { offsetInCU: 0x25C21, offset: 0x5DD1A, size: 0x8, addend: 0x0, symName: __ZNKSt3__116reverse_iteratorINS0_IPNS_6futureINS_6vectorINS_4pairI8PositioniEENS_9allocatorIS5_EEEEEEEEE4baseB7v160006Ev, symObjAddr: 0x17BF0, symBinAddr: 0x1000249E0, symSize: 0x20 }
  - { offsetInCU: 0x25C4A, offset: 0x5DD43, size: 0x8, addend: 0x0, symName: __ZNSt3__119__to_address_helperINS_16reverse_iteratorINS1_IPNS_6futureINS_6vectorINS_4pairI8PositioniEENS_9allocatorIS6_EEEEEEEEEEvE6__callB7v160006ERKSD_, symObjAddr: 0x17C10, symBinAddr: 0x100024A00, symSize: 0x40 }
  - { offsetInCU: 0x25C6D, offset: 0x5DD66, size: 0x8, addend: 0x0, symName: __ZNKSt3__116reverse_iteratorINS0_IPNS_6futureINS_6vectorINS_4pairI8PositioniEENS_9allocatorIS5_EEEEEEEEEptB7v160006Ev, symObjAddr: 0x17C50, symBinAddr: 0x100024A40, symSize: 0x20 }
  - { offsetInCU: 0x25C91, offset: 0x5DD8A, size: 0x8, addend: 0x0, symName: __ZNKSt3__116reverse_iteratorINS0_IPNS_6futureINS_6vectorINS_4pairI8PositioniEENS_9allocatorIS5_EEEEEEEEEdeB7v160006Ev, symObjAddr: 0x17C70, symBinAddr: 0x100024A60, symSize: 0x40 }
  - { offsetInCU: 0x25CC3, offset: 0x5DDBC, size: 0x8, addend: 0x0, symName: __ZNSt3__116reverse_iteratorIPNS_6futureINS_6vectorINS_4pairI8PositioniEENS_9allocatorIS5_EEEEEEEmmB7v160006Ev, symObjAddr: 0x17CB0, symBinAddr: 0x100024AA0, symSize: 0x20 }
  - { offsetInCU: 0x25CE7, offset: 0x5DDE0, size: 0x8, addend: 0x0, symName: __ZNSt3__116reverse_iteratorINS0_IPNS_6futureINS_6vectorINS_4pairI8PositioniEENS_9allocatorIS5_EEEEEEEEEC2B7v160006ESB_, symObjAddr: 0x17CD0, symBinAddr: 0x100024AC0, symSize: 0x40 }
  - { offsetInCU: 0x25D1E, offset: 0x5DE17, size: 0x8, addend: 0x0, symName: __ZNSt3__116reverse_iteratorIPNS_6futureINS_6vectorINS_4pairI8PositioniEENS_9allocatorIS5_EEEEEEEC2B7v160006ESA_, symObjAddr: 0x17D10, symBinAddr: 0x100024B00, symSize: 0x30 }
  - { offsetInCU: 0x25D55, offset: 0x5DE4E, size: 0x8, addend: 0x0, symName: __ZNSt3__114__split_bufferINS_6futureINS_6vectorINS_4pairI8PositioniEENS_9allocatorIS5_EEEEEERNS6_IS9_EEED2Ev, symObjAddr: 0x17D40, symBinAddr: 0x100024B30, symSize: 0x70 }
  - { offsetInCU: 0x25D80, offset: 0x5DE79, size: 0x8, addend: 0x0, symName: __ZNSt3__114__split_bufferINS_6futureINS_6vectorINS_4pairI8PositioniEENS_9allocatorIS5_EEEEEERNS6_IS9_EEE5clearB7v160006Ev, symObjAddr: 0x17DB0, symBinAddr: 0x100024BA0, symSize: 0x20 }
  - { offsetInCU: 0x25DA4, offset: 0x5DE9D, size: 0x8, addend: 0x0, symName: __ZNKSt3__114__split_bufferINS_6futureINS_6vectorINS_4pairI8PositioniEENS_9allocatorIS5_EEEEEERNS6_IS9_EEE8capacityB7v160006Ev, symObjAddr: 0x17DD0, symBinAddr: 0x100024BC0, symSize: 0x30 }
  - { offsetInCU: 0x25DC8, offset: 0x5DEC1, size: 0x8, addend: 0x0, symName: __ZNSt3__114__split_bufferINS_6futureINS_6vectorINS_4pairI8PositioniEENS_9allocatorIS5_EEEEEERNS6_IS9_EEE17__destruct_at_endB7v160006EPS9_, symObjAddr: 0x17E00, symBinAddr: 0x100024BF0, symSize: 0x30 }
  - { offsetInCU: 0x25DFA, offset: 0x5DEF3, size: 0x8, addend: 0x0, symName: __ZNSt3__114__split_bufferINS_6futureINS_6vectorINS_4pairI8PositioniEENS_9allocatorIS5_EEEEEERNS6_IS9_EEE17__destruct_at_endB7v160006EPS9_NS_17integral_constantIbLb0EEE, symObjAddr: 0x17E30, symBinAddr: 0x100024C20, symSize: 0x80 }
  - { offsetInCU: 0x25E3A, offset: 0x5DF33, size: 0x8, addend: 0x0, symName: __ZNKSt3__114__split_bufferINS_6futureINS_6vectorINS_4pairI8PositioniEENS_9allocatorIS5_EEEEEERNS6_IS9_EEE9__end_capB7v160006Ev, symObjAddr: 0x17EB0, symBinAddr: 0x100024CA0, symSize: 0x20 }
  - { offsetInCU: 0x25E5E, offset: 0x5DF57, size: 0x8, addend: 0x0, symName: __ZNKSt3__117__compressed_pairIPNS_6futureINS_6vectorINS_4pairI8PositioniEENS_9allocatorIS5_EEEEEERNS6_IS9_EEE5firstB7v160006Ev, symObjAddr: 0x17ED0, symBinAddr: 0x100024CC0, symSize: 0x20 }
  - { offsetInCU: 0x25E82, offset: 0x5DF7B, size: 0x8, addend: 0x0, symName: __ZNSt3__16vectorINS_6futureINS0_INS_4pairI8PositioniEENS_9allocatorIS4_EEEEEENS5_IS8_EEE11__make_iterB7v160006EPS8_, symObjAddr: 0x17EF0, symBinAddr: 0x100024CE0, symSize: 0x30 }
  - { offsetInCU: 0x25EB5, offset: 0x5DFAE, size: 0x8, addend: 0x0, symName: __ZNSt3__111__wrap_iterIPNS_6futureINS_6vectorINS_4pairI8PositioniEENS_9allocatorIS5_EEEEEEEC1B7v160006EPKvSA_, symObjAddr: 0x17F20, symBinAddr: 0x100024D10, symSize: 0x30 }
  - { offsetInCU: 0x25EFA, offset: 0x5DFF3, size: 0x8, addend: 0x0, symName: __ZNSt3__111__wrap_iterIPNS_6futureINS_6vectorINS_4pairI8PositioniEENS_9allocatorIS5_EEEEEEEC2B7v160006EPKvSA_, symObjAddr: 0x17F50, symBinAddr: 0x100024D40, symSize: 0x20 }
  - { offsetInCU: 0x25FA3, offset: 0x5E09C, size: 0x8, addend: 0x0, symName: __ZNSt3__110unique_ptrINS_14__shared_countENS_22__release_shared_countEEC1B7v160006ILb1EvEEPS1_, symObjAddr: 0x17F70, symBinAddr: 0x100024D60, symSize: 0x30 }
  - { offsetInCU: 0x25FE5, offset: 0x5E0DE, size: 0x8, addend: 0x0, symName: __ZNSt3__113__assoc_stateINS_6vectorINS_4pairI8PositioniEENS_9allocatorIS4_EEEEE4moveEv, symObjAddr: 0x17FA0, symBinAddr: 0x100024D90, symSize: 0x120 }
  - { offsetInCU: 0x2601B, offset: 0x5E114, size: 0x8, addend: 0x0, symName: __ZNSt3__110unique_ptrINS_14__shared_countENS_22__release_shared_countEED1B7v160006Ev, symObjAddr: 0x180C0, symBinAddr: 0x100024EB0, symSize: 0x20 }
  - { offsetInCU: 0x26044, offset: 0x5E13D, size: 0x8, addend: 0x0, symName: __ZNSt3__110unique_ptrINS_14__shared_countENS_22__release_shared_countEEC2B7v160006ILb1EvEEPS1_, symObjAddr: 0x180E0, symBinAddr: 0x100024ED0, symSize: 0x40 }
  - { offsetInCU: 0x26086, offset: 0x5E17F, size: 0x8, addend: 0x0, symName: __ZNSt3__117__compressed_pairIPNS_14__shared_countENS_22__release_shared_countEEC1B7v160006IRS2_NS_16__value_init_tagEEEOT_OT0_, symObjAddr: 0x18120, symBinAddr: 0x100024F10, symSize: 0x30 }
  - { offsetInCU: 0x260DD, offset: 0x5E1D6, size: 0x8, addend: 0x0, symName: __ZNSt3__117__compressed_pairIPNS_14__shared_countENS_22__release_shared_countEEC2B7v160006IRS2_NS_16__value_init_tagEEEOT_OT0_, symObjAddr: 0x18150, symBinAddr: 0x100024F40, symSize: 0x40 }
  - { offsetInCU: 0x26134, offset: 0x5E22D, size: 0x8, addend: 0x0, symName: __ZNSt3__122__compressed_pair_elemIPNS_14__shared_countELi0ELb0EEC2B7v160006IRS2_vEEOT_, symObjAddr: 0x18190, symBinAddr: 0x100024F80, symSize: 0x20 }
  - { offsetInCU: 0x26175, offset: 0x5E26E, size: 0x8, addend: 0x0, symName: __ZNSt3__110unique_ptrINS_14__shared_countENS_22__release_shared_countEED2B7v160006Ev, symObjAddr: 0x181B0, symBinAddr: 0x100024FA0, symSize: 0x20 }
  - { offsetInCU: 0x2619E, offset: 0x5E297, size: 0x8, addend: 0x0, symName: __ZNSt3__110unique_ptrINS_14__shared_countENS_22__release_shared_countEE5resetB7v160006EPS1_, symObjAddr: 0x181D0, symBinAddr: 0x100024FC0, symSize: 0x70 }
  - { offsetInCU: 0x261E0, offset: 0x5E2D9, size: 0x8, addend: 0x0, symName: __ZNSt3__117__compressed_pairIPNS_14__shared_countENS_22__release_shared_countEE5firstB7v160006Ev, symObjAddr: 0x18240, symBinAddr: 0x100025030, symSize: 0x20 }
  - { offsetInCU: 0x26204, offset: 0x5E2FD, size: 0x8, addend: 0x0, symName: __ZNSt3__117__compressed_pairIPNS_14__shared_countENS_22__release_shared_countEE6secondB7v160006Ev, symObjAddr: 0x18260, symBinAddr: 0x100025050, symSize: 0x20 }
  - { offsetInCU: 0x26228, offset: 0x5E321, size: 0x8, addend: 0x0, symName: __ZNSt3__122__compressed_pair_elemIPNS_14__shared_countELi0ELb0EE5__getB7v160006Ev, symObjAddr: 0x18280, symBinAddr: 0x100025070, symSize: 0xE }
...
